

Microchip MPLAB XC8 Assembler V2.10 build 88905656 
                                                                                               Wed Dec 02 16:26:00 2020

Microchip MPLAB XC8 C Compiler v2.10 (Free license) build 20190730164152 Og1 
     1                           	processor	18F45Q10
     2                           	fnconf	rparam,??,?,0
     3                           	opt	pw 120
     4                           	opt	flic
     5                           	psect	smallconst,global,reloc=2,class=SMALLCONST,delta=1,noexec
     6                           	psect	cinit,global,reloc=2,class=CODE,delta=1
     7                           	psect	bssBANK0,global,class=BANK0,space=1,delta=1,lowdata,noexec
     8                           	psect	bssBANK1,global,class=BANK1,space=1,delta=1,lowdata,noexec
     9                           	psect	cstackBANK1,global,class=BANK1,space=1,delta=1,noexec
    10                           	psect	cstackBANK0,global,class=BANK0,space=1,delta=1,noexec
    11                           	psect	cstackCOMRAM,global,class=COMRAM,space=1,delta=1,noexec
    12                           	psect	text0,global,reloc=2,class=CODE,delta=1
    13                           	psect	text1,global,reloc=2,class=CODE,delta=1
    14                           	psect	text2,global,reloc=2,class=CODE,delta=1
    15                           	psect	text3,global,reloc=2,class=CODE,delta=1
    16                           	psect	text4,global,reloc=2,class=CODE,delta=1
    17                           	psect	text5,global,reloc=2,class=CODE,delta=1
    18                           	psect	text6,global,reloc=2,class=CODE,delta=1
    19                           	psect	text7,global,reloc=2,class=CODE,delta=1
    20                           	psect	text8,global,reloc=2,class=CODE,delta=1
    21                           	psect	text9,global,reloc=2,class=CODE,delta=1
    22                           	psect	text10,global,reloc=2,class=CODE,delta=1
    23                           	psect	text11,global,reloc=2,class=CODE,delta=1
    24                           	psect	text12,global,reloc=2,class=CODE,delta=1
    25                           	psect	text13,global,reloc=2,class=CODE,delta=1
    26                           	psect	text14,global,reloc=2,class=CODE,delta=1
    27                           	psect	text15,global,reloc=2,class=CODE,delta=1
    28                           	psect	text16,global,reloc=2,class=CODE,delta=1
    29                           	psect	text17,global,reloc=2,class=CODE,delta=1
    30                           	psect	text18,global,reloc=2,class=CODE,delta=1
    31                           	psect	text19,global,reloc=2,class=CODE,delta=1,group=2
    32                           	psect	text20,global,reloc=2,class=CODE,delta=1
    33                           	psect	text21,global,reloc=2,class=CODE,delta=1
    34                           	psect	text22,global,reloc=2,class=CODE,delta=1
    35                           	psect	text23,global,reloc=2,class=CODE,delta=1
    36                           	psect	text24,global,reloc=2,class=CODE,delta=1,group=2
    37                           	psect	text25,global,reloc=2,class=CODE,delta=1,group=2
    38                           	psect	text26,global,reloc=2,class=CODE,delta=1,group=2
    39                           	psect	text27,global,reloc=2,class=CODE,delta=1,group=2
    40                           	psect	text28,global,reloc=2,class=CODE,delta=1,group=1
    41                           	psect	text29,global,reloc=2,class=CODE,delta=1,group=1
    42                           	psect	text30,global,reloc=2,class=CODE,delta=1
    43                           	psect	text31,global,reloc=2,class=CODE,delta=1
    44                           	psect	text32,global,reloc=2,class=CODE,delta=1
    45                           	psect	text33,global,reloc=2,class=CODE,delta=1
    46                           	psect	text34,global,reloc=2,class=CODE,delta=1
    47                           	psect	text35,global,reloc=2,class=CODE,delta=1,group=1
    48                           	psect	text36,global,reloc=2,class=CODE,delta=1,group=1
    49                           	psect	text37,global,reloc=2,class=CODE,delta=1
    50                           	psect	text38,global,reloc=2,class=CODE,delta=1
    51                           	psect	intcode,global,reloc=2,class=CODE,delta=1
    52                           	psect	text40,global,reloc=2,class=CODE,delta=1
    53                           	psect	text41,global,reloc=2,class=CODE,delta=1,group=1
    54                           	psect	text42,global,reloc=2,class=CODE,delta=1,group=1
    55                           	psect	text43,global,reloc=2,class=CODE,delta=1,group=1
    56                           	psect	text44,global,reloc=2,class=CODE,delta=1,group=1
    57                           	psect	text45,global,reloc=2,class=CODE,delta=1
    58                           	psect	text46,global,reloc=2,class=CODE,delta=1
    59                           	psect	text47,global,reloc=2,class=CODE,delta=1
    60                           	psect	intsave_regs,global,class=BIGRAM,space=1,delta=1,noexec
    61                           	psect	rparam,global,class=COMRAM,space=1,delta=1,noexec
    62                           	psect	temp,global,ovrld,common,class=COMRAM,space=1,delta=1
    63  0000                     
    64                           ; Version 2.10
    65                           ; Generated 31/07/2019 GMT
    66                           ; 
    67                           ; Copyright © 2019, Microchip Technology Inc. and its subsidiaries ("Microchip")
    68                           ; All rights reserved.
    69                           ; 
    70                           ; This software is developed by Microchip Technology Inc. and its subsidiaries ("Microch
      +                          ip").
    71                           ; 
    72                           ; Redistribution and use in source and binary forms, with or without modification, are
    73                           ; permitted provided that the following conditions are met:
    74                           ; 
    75                           ;     1. Redistributions of source code must retain the above copyright notice, this lis
      +                          t of
    76                           ;        conditions and the following disclaimer.
    77                           ; 
    78                           ;     2. Redistributions in binary form must reproduce the above copyright notice, this 
      +                          list
    79                           ;        of conditions and the following disclaimer in the documentation and/or other
    80                           ;        materials provided with the distribution.
    81                           ; 
    82                           ;     3. Microchip's name may not be used to endorse or promote products derived from th
      +                          is
    83                           ;        software without specific prior written permission.
    84                           ; 
    85                           ; THIS SOFTWARE IS PROVIDED BY MICROCHIP "AS IS" AND ANY EXPRESS OR IMPLIED WARRANTIES,
    86                           ; INCLUDING, BUT NOT LIMITED TO, THE IMPLIED WARRANTIES OF MERCHANTABILITY AND FITNESS F
      +                          OR
    87                           ; PURPOSE ARE DISCLAIMED.  IN NO EVENT SHALL MICROCHIP BE LIABLE FOR ANY DIRECT, INDIREC
      +                          T,
    88                           ; INCIDENTAL, SPECIAL, EXEMPLARY, OR CONSEQUENTIAL DAMAGES (INCLUDING BUT NOT LIMITED TO
    89                           ; PROCUREMENT OF SUBSTITUTE GOODS OR SERVICES; LOSS OF USE, DATA OR PROFITS; OR BUSINESS
    90                           ; INTERRUPTION) HOWSOEVER CAUSED AND ON ANY THEORY OF LIABILITY, WHETHER IN CONTRACT, ST
      +                          RICT
    91                           ; LIABILITY, OR TORT (INCLUDING NEGLIGENCE OR OTHERWISE) ARISING IN ANY WAY OUT OF THE U
      +                          SE OF
    92                           ; THIS SOFTWARE, EVEN IF ADVISED OF THE POSSIBILITY OF SUCH DAMAGE.
    93                           ; 
    94                           ; 
    95                           ; Code-generator required, PIC18F45Q10 Definitions
    96                           ; 
    97                           ; SFR Addresses
    98  0000                     
    99                           	psect	smallconst
   100  000800                     __psmallconst:
   101                           	opt callstack 0
   102  000800  00                 	db	0
   103  000801  0000               	dw	0
   104  000803                     __end_of_stop:
   105                           	opt callstack 0
   106  000803  0001               	dw	1
   107  000805                     __end_of_go:
   108                           	opt callstack 0
   109  0000                     _RC3PPS	set	3829
   110  0000                     _RC4PPS	set	3830
   111  0000                     _SSP1DATPPS	set	3763
   112  0000                     _SSP1CLKPPS	set	3762
   113  0000                     _RC5PPS	set	3831
   114  0000                     _RC6PPS	set	3832
   115  0000                     _PMD3	set	3807
   116  0000                     _PMD1	set	3805
   117  0000                     _OSCTUNE	set	3800
   118  0000                     _OSCEN	set	3799
   119  0000                     _OSCCON3	set	3797
   120  0000                     _RA4PPS	set	3814
   121  0000                     _PMD0	set	3804
   122  0000                     _PIE0bits	set	3773
   123  0000                     _OSCCON1	set	3795
   124  0000                     _TMR1IF	set	30280
   125  0000                     _ADRES	set	3934
   126  0000                     _ADCON0bits	set	3931
   127  0000                     _ADPCH	set	3930
   128  0000                     _ADCON0	set	3931
   129  0000                     _ANSELC	set	3868
   130  0000                     _ANSELB	set	3860
   131  0000                     _IOCBNbits	set	3854
   132  0000                     _IOCBFbits	set	3853
   133  0000                     _IOCBF	set	3853
   134  0000                     _IOCBN	set	3854
   135  0000                     _IOCBPbits	set	3855
   136  0000                     _TMR1	set	4044
   137  0000                     _PORTD	set	3983
   138  0000                     _SSP1STATbits	set	3988
   139  0000                     _SSP1BUF	set	3985
   140  0000                     _SSP1CON2bits	set	3990
   141  0000                     _SSP1CON1bits	set	3989
   142  0000                     _SSP1ADD	set	3986
   143  0000                     _TRISDbits	set	3978
   144  0000                     _TRISBbits	set	3976
   145  0000                     _TRISAbits	set	3975
   146  0000                     _TRISCbits	set	3977
   147  0000                     _TRISEbits	set	3979
   148  0000                     _LATDbits	set	3973
   149  0000                     _PORTDbits	set	3983
   150  0000                     _PWM3CONbits	set	4004
   151  0000                     _PWM3DCL	set	4002
   152  0000                     _PWM3DCH	set	4003
   153  0000                     _CCP2CONbits	set	4007
   154  0000                     _T4CON	set	4022
   155  0000                     _T4TMR	set	4020
   156  0000                     _T4PR	set	4021
   157  0000                     _T4RST	set	4025
   158  0000                     _T4HLT	set	4023
   159  0000                     _T4CLKCON	set	4024
   160  0000                     _CCP1CON	set	4011
   161  0000                     _T2CON	set	4028
   162  0000                     _T2TMR	set	4026
   163  0000                     _T2PR	set	4027
   164  0000                     _T2RST	set	4031
   165  0000                     _T2HLT	set	4029
   166  0000                     _T2CLKCON	set	4030
   167  0000                     _CCPTMRSbits	set	4013
   168  0000                     _PORTBbits	set	3981
   169  0000                     _CCPR2L	set	4005
   170  0000                     _CCPR2H	set	4006
   171  0000                     _CCPR1L	set	4009
   172  0000                     _CCPR1H	set	4010
   173  0000                     _PORTAbits	set	3980
   174  0000                     _TMR1H	set	4045
   175  0000                     _TMR1L	set	4044
   176  0000                     _INTCONbits	set	4082
   177  0000                     _TMR1CLKbits	set	4049
   178  0000                     _T1CON	set	4046
   179  0000                     _RC1	set	31857
   180  0000                     _RC0	set	31856
   181  0000                     _RC2	set	31858
   182  0000                     _RE0	set	31872
   183  0000                     _TMR1ON	set	32368
   184  0000                     _RB2	set	31850
   185  0000                     _RD6	set	31870
   186  000805                     STR_1:
   187  000805  25                 	db	37
   188  000806  75                 	db	117	;'u'
   189  000807  00                 	db	0
   190  0000                     
   191                           ; #config settings
   192  000808  00                 	db	0	; dummy byte at the end
   193  0000                     
   194                           	psect	cinit
   195  003388                     __pcinit:
   196                           	opt callstack 0
   197  003388                     start_initialization:
   198                           	opt callstack 0
   199  003388                     __initialization:
   200                           	opt callstack 0
   201                           
   202                           ; NVMREG Errata
   203  003388                     	if	3968
   204  003388  8E80               	bsf	128,7,c
   205  00338A  9C80               	bcf	128,6,c
   206  00338C                     	endif
   207                           
   208                           ; Clear objects allocated to BANK1 (98 bytes)
   209  00338C  EE01  F000         	lfsr	0,__pbssBANK1
   210  003390  0E62               	movlw	98
   211  003392                     clear_0:
   212  003392  6AEE               	clrf	postinc0,c
   213  003394  06E8               	decf	wreg,f,c
   214  003396  E1FD               	bnz	clear_0
   215                           
   216                           ; Clear objects allocated to BANK0 (10 bytes)
   217  003398  EE00  F0E7         	lfsr	0,__pbssBANK0
   218  00339C  0E0A               	movlw	10
   219  00339E                     clear_1:
   220  00339E  6AEE               	clrf	postinc0,c
   221  0033A0  06E8               	decf	wreg,f,c
   222  0033A2  E1FD               	bnz	clear_1
   223  0033A4                     end_of_initialization:
   224                           	opt callstack 0
   225  0033A4                     __end_of__initialization:
   226                           	opt callstack 0
   227  0033A4  9048               	bcf	int$flags,0,c	;clear compiler interrupt flag (level 1)
   228  0033A6  9248               	bcf	int$flags,1,c	;clear compiler interrupt flag (level 2)
   229  0033A8  0E00               	movlw	low (__Lsmallconst shr (0+16))
   230  0033AA  6EF8               	movwf	tblptru,c
   231  0033AC  0E08               	movlw	high __Lsmallconst
   232  0033AE  6EF7               	movwf	tblptrh,c
   233  0033B0  0100               	movlb	0
   234  0033B2  EF05  F004         	goto	_main	;jump to C main() function
   235                           
   236                           	psect	bssBANK0
   237  0000E7                     __pbssBANK0:
   238                           	opt callstack 0
   239  0000E7                     _nout:
   240                           	opt callstack 0
   241  0000E7                     	ds	2
   242  0000E9                     _width:
   243                           	opt callstack 0
   244  0000E9                     	ds	2
   245  0000EB                     _prec:
   246                           	opt callstack 0
   247  0000EB                     	ds	2
   248  0000ED                     _flags:
   249                           	opt callstack 0
   250  0000ED                     	ds	2
   251  0000EF                     _distance:
   252                           	opt callstack 0
   253  0000EF                     	ds	2
   254                           
   255                           	psect	bssBANK1
   256  000100                     __pbssBANK1:
   257                           	opt callstack 0
   258  000100                     _maze:
   259                           	opt callstack 0
   260  000100                     	ds	60
   261  00013C                     _value0:
   262                           	opt callstack 0
   263  00013C                     	ds	4
   264  000140                     _index:
   265                           	opt callstack 0
   266  000140                     	ds	2
   267  000142                     _dbuf:
   268                           	opt callstack 0
   269  000142                     	ds	32
   270                           
   271                           	psect	cstackBANK1
   272  000162                     __pcstackBANK1:
   273                           	opt callstack 0
   274  000162                     main@spf:
   275                           	opt callstack 0
   276                           
   277                           ; 30 bytes @ 0x0
   278  000162                     	ds	30
   279  000180                     main@distc:
   280                           	opt callstack 0
   281                           
   282                           ; 2 bytes @ 0x1E
   283  000180                     	ds	4
   284  000184                     main@i_786:
   285                           	opt callstack 0
   286                           
   287                           ; 2 bytes @ 0x22
   288  000184                     	ds	2
   289  000186                     main@i_787:
   290                           	opt callstack 0
   291                           
   292                           ; 2 bytes @ 0x24
   293  000186                     	ds	2
   294  000188                     main@to3:
   295                           	opt callstack 0
   296                           
   297                           ; 2 bytes @ 0x26
   298  000188                     	ds	2
   299  00018A                     main@i:
   300                           	opt callstack 0
   301                           
   302                           ; 2 bytes @ 0x28
   303  00018A                     	ds	2
   304  00018C                     main@i_789:
   305                           	opt callstack 0
   306                           
   307                           ; 2 bytes @ 0x2A
   308  00018C                     	ds	2
   309  00018E                     main@distcc:
   310                           	opt callstack 0
   311                           
   312                           ; 2 bytes @ 0x2C
   313  00018E                     	ds	2
   314  000190                     main@j:
   315                           	opt callstack 0
   316                           
   317                           ; 2 bytes @ 0x2E
   318  000190                     	ds	2
   319  000192                     main@distl:
   320                           	opt callstack 0
   321                           
   322                           ; 2 bytes @ 0x30
   323  000192                     	ds	2
   324  000194                     main@distr:
   325                           	opt callstack 0
   326                           
   327                           ; 2 bytes @ 0x32
   328  000194                     	ds	2
   329                           
   330                           	psect	cstackBANK0
   331  000060                     __pcstackBANK0:
   332                           	opt callstack 0
   333  000060                     ??_lcd_command:
   334  000060                     ??_lcd_char:
   335  000060                     ??_lturn:
   336  000060                     ??_backward:
   337  000060                     ??_reverser:
   338  000060                     ??_reversel:
   339  000060                     ??_rturn:
   340  000060                     ?_strlen:
   341                           	opt callstack 0
   342  000060                     ?_ultra_dist:
   343                           	opt callstack 0
   344  000060                     ?___awdiv:
   345                           	opt callstack 0
   346  000060                     ?_adcNum0:
   347                           	opt callstack 0
   348  000060                     ?___lodiv:
   349                           	opt callstack 0
   350  000060                     ?___lomod:
   351                           	opt callstack 0
   352  000060                     i2c_read@registers:
   353                           	opt callstack 0
   354  000060                     i2c_write@registers:
   355                           	opt callstack 0
   356  000060                     forward@gostop:
   357                           	opt callstack 0
   358  000060                     ___awdiv@dividend:
   359                           	opt callstack 0
   360  000060                     fputc@c:
   361                           	opt callstack 0
   362  000060                     strlen@s:
   363                           	opt callstack 0
   364  000060                     ___lodiv@dividend:
   365                           	opt callstack 0
   366  000060                     ___lomod@dividend:
   367                           	opt callstack 0
   368                           
   369                           ; 8 bytes @ 0x0
   370  000060                     	ds	1
   371  000061                     i2c_write@data:
   372                           	opt callstack 0
   373  000061                     lcd_command@temp:
   374                           	opt callstack 0
   375  000061                     lcd_char@temp:
   376                           	opt callstack 0
   377  000061                     i2c_read@num:
   378                           	opt callstack 0
   379                           
   380                           ; 4 bytes @ 0x1
   381  000061                     	ds	1
   382  000062                     ??_ultra_dist:
   383  000062                     i2c_write@address:
   384                           	opt callstack 0
   385  000062                     lcd_command@x:
   386                           	opt callstack 0
   387  000062                     lcd_char@x:
   388                           	opt callstack 0
   389  000062                     ___awdiv@divisor:
   390                           	opt callstack 0
   391  000062                     fputc@fp:
   392                           	opt callstack 0
   393  000062                     strlen@a:
   394                           	opt callstack 0
   395                           
   396                           ; 2 bytes @ 0x2
   397  000062                     	ds	1
   398  000063                     
   399                           ; 1 bytes @ 0x3
   400  000063                     	ds	1
   401  000064                     ??_adcNum0:
   402  000064                     ??_fputc:
   403  000064                     ___awdiv@counter:
   404                           	opt callstack 0
   405                           
   406                           ; 1 bytes @ 0x4
   407  000064                     	ds	1
   408  000065                     i2c_read@read:
   409                           	opt callstack 0
   410  000065                     ___awdiv@sign:
   411                           	opt callstack 0
   412                           
   413                           ; 1 bytes @ 0x5
   414  000065                     	ds	1
   415  000066                     i2c_read@address:
   416                           	opt callstack 0
   417  000066                     ___awdiv@quotient:
   418                           	opt callstack 0
   419                           
   420                           ; 2 bytes @ 0x6
   421  000066                     	ds	1
   422  000067                     ??_get_minutes:
   423  000067                     ??_get_seconds:
   424  000067                     ??_rtc_init:
   425                           
   426                           ; 1 bytes @ 0x7
   427  000067                     	ds	1
   428  000068                     ?___awmod:
   429                           	opt callstack 0
   430  000068                     get_seconds@sec:
   431                           	opt callstack 0
   432  000068                     get_minutes@min:
   433                           	opt callstack 0
   434  000068                     rtc_init@i:
   435                           	opt callstack 0
   436  000068                     ___awmod@dividend:
   437                           	opt callstack 0
   438  000068                     ___lodiv@divisor:
   439                           	opt callstack 0
   440  000068                     ___lomod@divisor:
   441                           	opt callstack 0
   442                           
   443                           ; 8 bytes @ 0x8
   444  000068                     	ds	1
   445  000069                     fputs@s:
   446                           	opt callstack 0
   447                           
   448                           ; 2 bytes @ 0x9
   449  000069                     	ds	1
   450  00006A                     rtc_init@sec:
   451                           	opt callstack 0
   452  00006A                     ___awmod@divisor:
   453                           	opt callstack 0
   454                           
   455                           ; 2 bytes @ 0xA
   456  00006A                     	ds	1
   457  00006B                     rtc_init@hour:
   458                           	opt callstack 0
   459  00006B                     fputs@fp:
   460                           	opt callstack 0
   461                           
   462                           ; 2 bytes @ 0xB
   463  00006B                     	ds	1
   464  00006C                     ___awmod@counter:
   465                           	opt callstack 0
   466                           
   467                           ; 1 bytes @ 0xC
   468  00006C                     	ds	1
   469  00006D                     ___awmod@sign:
   470                           	opt callstack 0
   471  00006D                     fputs@c:
   472                           	opt callstack 0
   473                           
   474                           ; 1 bytes @ 0xD
   475  00006D                     	ds	1
   476  00006E                     ??_set_minutes:
   477  00006E                     ??_set_seconds:
   478  00006E                     fputs@i:
   479                           	opt callstack 0
   480                           
   481                           ; 2 bytes @ 0xE
   482  00006E                     	ds	2
   483  000070                     ?_pad:
   484                           	opt callstack 0
   485  000070                     set_seconds@curr_sec:
   486                           	opt callstack 0
   487  000070                     set_minutes@min:
   488                           	opt callstack 0
   489  000070                     ___lomod@counter:
   490                           	opt callstack 0
   491  000070                     pad@fp:
   492                           	opt callstack 0
   493  000070                     ___lodiv@quotient:
   494                           	opt callstack 0
   495                           
   496                           ; 8 bytes @ 0x10
   497  000070                     	ds	1
   498  000071                     set_seconds@sec:
   499                           	opt callstack 0
   500                           
   501                           ; 1 bytes @ 0x11
   502  000071                     	ds	1
   503  000072                     pad@buf:
   504                           	opt callstack 0
   505                           
   506                           ; 2 bytes @ 0x12
   507  000072                     	ds	2
   508  000074                     pad@p:
   509                           	opt callstack 0
   510                           
   511                           ; 2 bytes @ 0x14
   512  000074                     	ds	2
   513  000076                     ??_pad:
   514                           
   515                           ; 1 bytes @ 0x16
   516  000076                     	ds	1
   517  000077                     pad@i:
   518                           	opt callstack 0
   519                           
   520                           ; 2 bytes @ 0x17
   521  000077                     	ds	1
   522  000078                     ___lodiv@counter:
   523                           	opt callstack 0
   524                           
   525                           ; 1 bytes @ 0x18
   526  000078                     	ds	1
   527  000079                     pad@w:
   528                           	opt callstack 0
   529                           
   530                           ; 2 bytes @ 0x19
   531  000079                     	ds	2
   532  00007B                     ?_utoa:
   533                           	opt callstack 0
   534  00007B                     utoa@fp:
   535                           	opt callstack 0
   536                           
   537                           ; 2 bytes @ 0x1B
   538  00007B                     	ds	2
   539  00007D                     utoa@d:
   540                           	opt callstack 0
   541                           
   542                           ; 8 bytes @ 0x1D
   543  00007D                     	ds	8
   544  000085                     ??_utoa:
   545                           
   546                           ; 1 bytes @ 0x25
   547  000085                     	ds	8
   548  00008D                     utoa@p:
   549                           	opt callstack 0
   550                           
   551                           ; 2 bytes @ 0x2D
   552  00008D                     	ds	2
   553  00008F                     utoa@w:
   554                           	opt callstack 0
   555                           
   556                           ; 2 bytes @ 0x2F
   557  00008F                     	ds	2
   558  000091                     utoa@n:
   559                           	opt callstack 0
   560                           
   561                           ; 8 bytes @ 0x31
   562  000091                     	ds	8
   563  000099                     utoa@i:
   564                           	opt callstack 0
   565                           
   566                           ; 2 bytes @ 0x39
   567  000099                     	ds	2
   568  00009B                     ?_vfpfcnvrt:
   569                           	opt callstack 0
   570  00009B                     vfpfcnvrt@fp:
   571                           	opt callstack 0
   572                           
   573                           ; 2 bytes @ 0x3B
   574  00009B                     	ds	2
   575  00009D                     vfpfcnvrt@fmt:
   576                           	opt callstack 0
   577                           
   578                           ; 2 bytes @ 0x3D
   579  00009D                     	ds	2
   580  00009F                     vfpfcnvrt@ap:
   581                           	opt callstack 0
   582                           
   583                           ; 2 bytes @ 0x3F
   584  00009F                     	ds	2
   585  0000A1                     ??_vfpfcnvrt:
   586                           
   587                           ; 1 bytes @ 0x41
   588  0000A1                     	ds	4
   589  0000A5                     vfpfcnvrt@llu:
   590                           	opt callstack 0
   591                           
   592                           ; 8 bytes @ 0x45
   593  0000A5                     	ds	8
   594  0000AD                     ?_vfprintf:
   595                           	opt callstack 0
   596  0000AD                     vfprintf@fp:
   597                           	opt callstack 0
   598                           
   599                           ; 2 bytes @ 0x4D
   600  0000AD                     	ds	2
   601  0000AF                     vfprintf@fmt:
   602                           	opt callstack 0
   603                           
   604                           ; 2 bytes @ 0x4F
   605  0000AF                     	ds	2
   606  0000B1                     vfprintf@ap:
   607                           	opt callstack 0
   608                           
   609                           ; 2 bytes @ 0x51
   610  0000B1                     	ds	2
   611  0000B3                     vfprintf@cfmt:
   612                           	opt callstack 0
   613                           
   614                           ; 2 bytes @ 0x53
   615  0000B3                     	ds	2
   616  0000B5                     ?_sprintf:
   617                           	opt callstack 0
   618  0000B5                     sprintf@s:
   619                           	opt callstack 0
   620                           
   621                           ; 2 bytes @ 0x55
   622  0000B5                     	ds	2
   623  0000B7                     sprintf@fmt:
   624                           	opt callstack 0
   625                           
   626                           ; 2 bytes @ 0x57
   627  0000B7                     	ds	4
   628  0000BB                     
   629                           ; 1 bytes @ 0x5B
   630  0000BB                     	ds	2
   631  0000BD                     sprintf@ap:
   632                           	opt callstack 0
   633                           
   634                           ; 2 bytes @ 0x5D
   635  0000BD                     	ds	2
   636  0000BF                     sprintf@f:
   637                           	opt callstack 0
   638                           
   639                           ; 6 bytes @ 0x5F
   640  0000BF                     	ds	6
   641  0000C5                     ??_lcdprint:
   642                           
   643                           ; 1 bytes @ 0x65
   644  0000C5                     	ds	1
   645  0000C6                     lcdprint@d1:
   646                           	opt callstack 0
   647                           
   648                           ; 1 bytes @ 0x66
   649  0000C6                     	ds	1
   650  0000C7                     lcdprint@d2:
   651                           	opt callstack 0
   652                           
   653                           ; 1 bytes @ 0x67
   654  0000C7                     	ds	1
   655  0000C8                     lcdprint@d3:
   656                           	opt callstack 0
   657                           
   658                           ; 1 bytes @ 0x68
   659  0000C8                     	ds	1
   660  0000C9                     lcdprint@i:
   661                           	opt callstack 0
   662                           
   663                           ; 2 bytes @ 0x69
   664  0000C9                     	ds	2
   665  0000CB                     lcdprint@dd:
   666                           	opt callstack 0
   667                           
   668                           ; 1 bytes @ 0x6B
   669  0000CB                     	ds	1
   670  0000CC                     lcdprint@array:
   671                           	opt callstack 0
   672                           
   673                           ; 2 bytes @ 0x6C
   674  0000CC                     	ds	2
   675  0000CE                     lcdprint@temp2:
   676                           	opt callstack 0
   677                           
   678                           ; 1 bytes @ 0x6E
   679  0000CE                     	ds	1
   680  0000CF                     lcdprint@d:
   681                           	opt callstack 0
   682                           
   683                           ; 1 bytes @ 0x6F
   684  0000CF                     	ds	1
   685  0000D0                     lcdprint@temp1:
   686                           	opt callstack 0
   687                           
   688                           ; 1 bytes @ 0x70
   689  0000D0                     	ds	1
   690  0000D1                     ??_IRpath1:
   691                           
   692                           ; 1 bytes @ 0x71
   693  0000D1                     	ds	2
   694  0000D3                     IRpath1@distlr:
   695                           	opt callstack 0
   696                           
   697                           ; 2 bytes @ 0x73
   698  0000D3                     	ds	2
   699  0000D5                     IRpath1@distcr:
   700                           	opt callstack 0
   701                           
   702                           ; 2 bytes @ 0x75
   703  0000D5                     	ds	2
   704  0000D7                     IRpath1@i:
   705                           	opt callstack 0
   706                           
   707                           ; 2 bytes @ 0x77
   708  0000D7                     	ds	2
   709  0000D9                     IRpath1@i_726:
   710                           	opt callstack 0
   711                           
   712                           ; 2 bytes @ 0x79
   713  0000D9                     	ds	2
   714  0000DB                     IRpath1@check:
   715                           	opt callstack 0
   716                           
   717                           ; 2 bytes @ 0x7B
   718  0000DB                     	ds	2
   719  0000DD                     IRpath1@turncheck:
   720                           	opt callstack 0
   721                           
   722                           ; 2 bytes @ 0x7D
   723  0000DD                     	ds	2
   724  0000DF                     IRpath1@dist3:
   725                           	opt callstack 0
   726                           
   727                           ; 2 bytes @ 0x7F
   728  0000DF                     	ds	2
   729  0000E1                     IRpath1@dist1:
   730                           	opt callstack 0
   731                           
   732                           ; 2 bytes @ 0x81
   733  0000E1                     	ds	2
   734  0000E3                     IRpath1@dist2:
   735                           	opt callstack 0
   736                           
   737                           ; 2 bytes @ 0x83
   738  0000E3                     	ds	2
   739  0000E5                     ??_main:
   740                           
   741                           ; 1 bytes @ 0x85
   742  0000E5                     	ds	2
   743                           
   744                           	psect	cstackCOMRAM
   745  000001                     __pcstackCOMRAM:
   746                           	opt callstack 0
   747  000001                     ?___xxtofl:
   748                           	opt callstack 0
   749  000001                     i2forward@gostop:
   750                           	opt callstack 0
   751  000001                     ___xxtofl@val:
   752                           	opt callstack 0
   753                           
   754                           ; 4 bytes @ 0x0
   755  000001                     	ds	2
   756  000003                     
   757                           ; 1 bytes @ 0x2
   758  000003                     	ds	2
   759  000005                     ??___xxtofl:
   760                           
   761                           ; 1 bytes @ 0x4
   762  000005                     	ds	4
   763  000009                     ___xxtofl@sign:
   764                           	opt callstack 0
   765                           
   766                           ; 1 bytes @ 0x8
   767  000009                     	ds	1
   768  00000A                     ___xxtofl@exp:
   769                           	opt callstack 0
   770                           
   771                           ; 1 bytes @ 0x9
   772  00000A                     	ds	1
   773  00000B                     ___xxtofl@arg:
   774                           	opt callstack 0
   775                           
   776                           ; 4 bytes @ 0xA
   777  00000B                     	ds	4
   778  00000F                     ?___fldiv:
   779                           	opt callstack 0
   780  00000F                     ___fldiv@b:
   781                           	opt callstack 0
   782                           
   783                           ; 4 bytes @ 0xE
   784  00000F                     	ds	4
   785  000013                     ___fldiv@a:
   786                           	opt callstack 0
   787                           
   788                           ; 4 bytes @ 0x12
   789  000013                     	ds	4
   790  000017                     ??___fldiv:
   791                           
   792                           ; 1 bytes @ 0x16
   793  000017                     	ds	4
   794  00001B                     ___fldiv@rem:
   795                           	opt callstack 0
   796                           
   797                           ; 4 bytes @ 0x1A
   798  00001B                     	ds	4
   799  00001F                     ___fldiv@sign:
   800                           	opt callstack 0
   801                           
   802                           ; 1 bytes @ 0x1E
   803  00001F                     	ds	1
   804  000020                     ___fldiv@new_exp:
   805                           	opt callstack 0
   806                           
   807                           ; 2 bytes @ 0x1F
   808  000020                     	ds	2
   809  000022                     ___fldiv@grs:
   810                           	opt callstack 0
   811                           
   812                           ; 4 bytes @ 0x21
   813  000022                     	ds	4
   814  000026                     ___fldiv@bexp:
   815                           	opt callstack 0
   816                           
   817                           ; 1 bytes @ 0x25
   818  000026                     	ds	1
   819  000027                     ___fldiv@aexp:
   820                           	opt callstack 0
   821                           
   822                           ; 1 bytes @ 0x26
   823  000027                     	ds	1
   824  000028                     ?___fladd:
   825                           	opt callstack 0
   826  000028                     ___fladd@b:
   827                           	opt callstack 0
   828                           
   829                           ; 4 bytes @ 0x27
   830  000028                     	ds	4
   831  00002C                     ___fladd@a:
   832                           	opt callstack 0
   833                           
   834                           ; 4 bytes @ 0x2B
   835  00002C                     	ds	4
   836  000030                     ??___fladd:
   837                           
   838                           ; 1 bytes @ 0x2F
   839  000030                     	ds	4
   840  000034                     ___fladd@signs:
   841                           	opt callstack 0
   842                           
   843                           ; 1 bytes @ 0x33
   844  000034                     	ds	1
   845  000035                     ___fladd@aexp:
   846                           	opt callstack 0
   847                           
   848                           ; 1 bytes @ 0x34
   849  000035                     	ds	1
   850  000036                     ___fladd@bexp:
   851                           	opt callstack 0
   852                           
   853                           ; 1 bytes @ 0x35
   854  000036                     	ds	1
   855  000037                     ___fladd@grs:
   856                           	opt callstack 0
   857                           
   858                           ; 1 bytes @ 0x36
   859  000037                     	ds	1
   860  000038                     ?___fltol:
   861                           	opt callstack 0
   862  000038                     ___fltol@f1:
   863                           	opt callstack 0
   864                           
   865                           ; 4 bytes @ 0x37
   866  000038                     	ds	4
   867  00003C                     ??___fltol:
   868                           
   869                           ; 1 bytes @ 0x3B
   870  00003C                     	ds	4
   871  000040                     ___fltol@sign1:
   872                           	opt callstack 0
   873                           
   874                           ; 1 bytes @ 0x3F
   875  000040                     	ds	1
   876  000041                     ___fltol@exp1:
   877                           	opt callstack 0
   878                           
   879                           ; 1 bytes @ 0x40
   880  000041                     	ds	1
   881  000042                     ??_us_irs:
   882                           
   883                           ; 1 bytes @ 0x41
   884  000042                     	ds	4
   885  000046                     us_irs@time_taken:
   886                           	opt callstack 0
   887                           
   888                           ; 2 bytes @ 0x45
   889  000046                     	ds	2
   890  000048                     
   891                           ; 1 bytes @ 0x47
   892 ;;
   893 ;;Main: autosize = 0, tempsize = 2, incstack = 0, save=0
   894 ;;
   895 ;; *************** function _main *****************
   896 ;; Defined at:
   897 ;;		line 618 in file "senior_main.c"
   898 ;; Parameters:    Size  Location     Type
   899 ;;		None
   900 ;; Auto vars:     Size  Location     Type
   901 ;;  i               2   36[BANK1 ] int 
   902 ;;  i               2   34[BANK1 ] int 
   903 ;;  j               2   46[BANK1 ] int 
   904 ;;  i               2   42[BANK1 ] int 
   905 ;;  spf            30    0[BANK1 ] int [15]
   906 ;;  to3             2   38[BANK1 ] int 
   907 ;;  distc           2   30[BANK1 ] int 
   908 ;;  i               2   40[BANK1 ] int 
   909 ;;  distr           2   50[BANK1 ] int 
   910 ;;  distl           2   48[BANK1 ] int 
   911 ;;  distcc          2   44[BANK1 ] int 
   912 ;;  time            2    0        int 
   913 ;; Return value:  Size  Location     Type
   914 ;;                  1    wreg      void 
   915 ;; Registers used:
   916 ;;		wreg, fsr1l, fsr1h, fsr2l, fsr2h, status,2, status,0, tblptrl, tblptrh, tblptru, prodl, prodh, cstack
   917 ;; Tracked objects:
   918 ;;		On entry : 0/0
   919 ;;		On exit  : 0/0
   920 ;;		Unchanged: 0/0
   921 ;; Data sizes:     COMRAM   BANK0   BANK1   BANK2   BANK3   BANK4   BANK5   BANK6   BANK7
   922 ;;      Params:         0       0       0       0       0       0       0       0       0
   923 ;;      Locals:         0       0      52       0       0       0       0       0       0
   924 ;;      Temps:          0       2       0       0       0       0       0       0       0
   925 ;;      Totals:         0       2      52       0       0       0       0       0       0
   926 ;;Total ram usage:       54 bytes
   927 ;; Hardware stack levels required when called:   13
   928 ;; This function calls:
   929 ;;		_IRpath1
   930 ;;		_adcNum0
   931 ;;		_adc_init
   932 ;;		_backward
   933 ;;		_ccp_init
   934 ;;		_forward
   935 ;;		_i2c_init
   936 ;;		_lcd_init
   937 ;;		_lcdprint
   938 ;;		_lturn
   939 ;;		_pwm_init
   940 ;;		_reversel
   941 ;;		_reverser
   942 ;;		_rtc_init
   943 ;;		_rturn
   944 ;;		_set_minutes
   945 ;;		_set_seconds
   946 ;;		_t1_init
   947 ;;		_ultra_dist
   948 ;; This function is called by:
   949 ;;		Startup code after reset
   950 ;; This function uses a non-reentrant model
   951 ;;
   952                           
   953                           	psect	text0
   954  00080A                     __ptext0:
   955                           	opt callstack 0
   956  00080A                     _main:
   957                           	opt callstack 18
   958  00080A                     
   959                           ;senior_main.c: 620:     TRISBbits.TRISB3 = 0;
   960  00080A  EC51  F01A         	call	_adc_init	;wreg free
   961  00080E                     
   962                           ;senior_main.c: 621:     ANSELB = 0x0;
   963  00080E  EC41  F01A         	call	_lcd_init	;wreg free
   964  000812                     
   965                           ;senior_main.c: 622: 
   966  000812  ECF2  F019         	call	_i2c_init	;wreg free
   967                           
   968                           ;senior_main.c: 623: 
   969  000816  ECC6  F016         	call	_rtc_init	;wreg free
   970  00081A                     
   971                           ;senior_main.c: 624:     for(int i=0; i<30; i++){
   972  00081A  EC90  F019         	call	_t1_init	;wreg free
   973  00081E                     
   974                           ;senior_main.c: 625:         maze[i]=0;
   975  00081E  EC37  F019         	call	_pwm_init	;wreg free
   976  000822                     
   977                           ;senior_main.c: 626:     }
   978  000822  EC32  F018         	call	_ccp_init	;wreg free
   979  000826                     
   980                           ;senior_main.c: 629:     int time = 0;
   981  000826  908B               	bcf	139,0,c	;volatile
   982  000828                     
   983                           ;senior_main.c: 630:     set_minutes(time);
   984  000828  9489               	bcf	137,2,c	;volatile
   985  00082A                     
   986                           ;senior_main.c: 631: 
   987  00082A  9089               	bcf	137,0,c	;volatile
   988  00082C                     
   989                           ;senior_main.c: 632:     set_seconds(time);
   990  00082C  9289               	bcf	137,1,c	;volatile
   991  00082E                     
   992                           ;senior_main.c: 635:     int distr;
   993  00082E  9287               	bcf	135,1,c	;volatile
   994  000830                     
   995                           ;senior_main.c: 636:     int distcc;
   996  000830  8888               	bsf	136,4,c	;volatile
   997  000832                     
   998                           ;senior_main.c: 637: 
   999  000832  8A88               	bsf	136,5,c	;volatile
  1000  000834                     
  1001                           ;senior_main.c: 638: 
  1002  000834  8288               	bsf	136,1,c	;volatile
  1003  000836                     
  1004                           ;senior_main.c: 639:     while(1){
  1005  000836  8088               	bsf	136,0,c	;volatile
  1006  000838                     
  1007                           ;senior_main.c: 642: 
  1008  000838  9887               	bcf	135,4,c	;volatile
  1009  00083A                     
  1010                           ;senior_main.c: 643:         if(value0<716){
  1011  00083A  9C89               	bcf	137,6,c	;volatile
  1012  00083C                     
  1013                           ;senior_main.c: 644:             PORTAbits.RA1 = 0;
  1014  00083C  9A89               	bcf	137,5,c	;volatile
  1015  00083E                     
  1016                           ;senior_main.c: 647: 
  1017  00083E  9A8A               	bcf	138,5,c	;volatile
  1018  000840                     
  1019                           ;senior_main.c: 648:             IOCBNbits.IOCBN4 = 0;
  1020  000840  9C8A               	bcf	138,6,c	;volatile
  1021  000842                     
  1022                           ;senior_main.c: 649:             IOCBNbits.IOCBN1 = 0;
  1023  000842  8488               	bsf	136,2,c	;volatile
  1024  000844                     
  1025                           ;senior_main.c: 650:             IOCBNbits.IOCBN0 = 0;
  1026  000844  9688               	bcf	136,3,c	;volatile
  1027  000846                     
  1028                           ;senior_main.c: 651:             IOCBNbits.IOCBN5 = 0;
  1029  000846  0E00               	movlw	0
  1030  000848  010F               	movlb	15	; () banked
  1031  00084A  6F14               	movwf	20,b	;volatile
  1032  00084C                     
  1033                           ; BSR set to: 15
  1034                           ;senior_main.c: 654:             IOCBNbits.IOCBN1 = 1;
  1035  00084C  0E00               	movlw	0
  1036  00084E  0101               	movlb	1	; () banked
  1037  000850  6F8B               	movwf	(main@i+1)& (0+255),b
  1038  000852  0E00               	movlw	0
  1039  000854  6F8A               	movwf	main@i& (0+255),b
  1040  000856                     l5063:
  1041                           
  1042                           ; BSR set to: 1
  1043                           ;senior_main.c: 655:             IOCBNbits.IOCBN0 = 1;
  1044  000856  90D8               	bcf	status,0,c
  1045  000858  358A               	rlcf	main@i& (0+255),w,b
  1046  00085A  6ED9               	movwf	fsr2l,c
  1047  00085C  358B               	rlcf	(main@i+1)& (0+255),w,b
  1048  00085E  6EDA               	movwf	fsr2h,c
  1049  000860  0E00               	movlw	low _maze
  1050  000862  26D9               	addwf	fsr2l,f,c
  1051  000864  0E01               	movlw	high _maze
  1052  000866  22DA               	addwfc	fsr2h,f,c
  1053  000868  0E00               	movlw	0
  1054  00086A  6EDE               	movwf	postinc2,c
  1055  00086C  0E00               	movlw	0
  1056  00086E  6EDD               	movwf	postdec2,c
  1057  000870                     
  1058                           ; BSR set to: 1
  1059                           ;senior_main.c: 656:             IOCBNbits.IOCBN5 = 1;
  1060  000870  4B8A               	infsnz	main@i& (0+255),f,b
  1061  000872  2B8B               	incf	(main@i+1)& (0+255),f,b
  1062  000874                     
  1063                           ; BSR set to: 1
  1064  000874  BF8B               	btfsc	(main@i+1)& (0+255),7,b
  1065  000876  EF46  F004         	goto	u5121
  1066  00087A  518B               	movf	(main@i+1)& (0+255),w,b
  1067  00087C  E109               	bnz	u5120
  1068  00087E  0E1E               	movlw	30
  1069  000880  5D8A               	subwf	main@i& (0+255),w,b
  1070  000882  A0D8               	btfss	status,0,c
  1071  000884  EF46  F004         	goto	u5121
  1072  000888  EF48  F004         	goto	u5120
  1073  00088C                     u5121:
  1074  00088C  EF2B  F004         	goto	l5063
  1075  000890                     u5120:
  1076  000890                     
  1077                           ; BSR set to: 1
  1078                           ;senior_main.c: 660:                 PORTDbits.RD5 = 0;
  1079  000890  0E00               	movlw	0
  1080  000892  EC7B  F017         	call	_set_minutes
  1081  000896                     
  1082                           ;senior_main.c: 662:                 forward(go);
  1083  000896  0E00               	movlw	0
  1084  000898  EC10  F017         	call	_set_seconds
  1085  00089C                     l5075:
  1086                           
  1087                           ;senior_main.c: 671:                 IOCBNbits.IOCBN5 = 0;
  1088  00089C  EC14  F019         	call	_adcNum0	;wreg free
  1089  0008A0  C060  F13C         	movff	?_adcNum0,_value0
  1090  0008A4  C061  F13D         	movff	?_adcNum0+1,_value0+1
  1091  0008A8  C062  F13E         	movff	?_adcNum0+2,_value0+2
  1092  0008AC  C063  F13F         	movff	?_adcNum0+3,_value0+3
  1093  0008B0                     
  1094                           ;senior_main.c: 673:                 PORTBbits.RB3 = 1;
  1095  0008B0  0101               	movlb	1	; () banked
  1096  0008B2  513F               	movf	(_value0+3)& (0+255),w,b
  1097  0008B4  113E               	iorwf	(_value0+2)& (0+255),w,b
  1098  0008B6  E109               	bnz	u5131
  1099  0008B8  0ECC               	movlw	204
  1100  0008BA  5D3C               	subwf	_value0& (0+255),w,b
  1101  0008BC  0E02               	movlw	2
  1102  0008BE  593D               	subwfb	(_value0+1)& (0+255),w,b
  1103  0008C0  B0D8               	btfsc	status,0,c
  1104  0008C2  EF65  F004         	goto	u5131
  1105  0008C6  EF67  F004         	goto	u5130
  1106  0008CA                     u5131:
  1107  0008CA  EF63  F006         	goto	l5249
  1108  0008CE                     u5130:
  1109  0008CE                     
  1110                           ; BSR set to: 1
  1111                           ;senior_main.c: 674: 
  1112  0008CE  928C               	bcf	140,1,c	;volatile
  1113  0008D0                     
  1114                           ; BSR set to: 1
  1115                           ;senior_main.c: 676:                 for(int i=0; i<200; i++){
  1116  0008D0  EC80  F00D         	call	_lcdprint	;wreg free
  1117  0008D4                     
  1118                           ;senior_main.c: 678:                     LATDbits.LATD5=1;
  1119  0008D4  010F               	movlb	15	; () banked
  1120  0008D6  990E               	bcf	14,4,b	;volatile
  1121  0008D8                     
  1122                           ; BSR set to: 15
  1123                           ;senior_main.c: 679:                     _delay((unsigned long)((0.25)*(8000000/4000.0))
      +                          );
  1124  0008D8  930E               	bcf	14,1,b	;volatile
  1125  0008DA                     
  1126                           ; BSR set to: 15
  1127                           ;senior_main.c: 680:                     LATDbits.LATD5=0;
  1128  0008DA  910E               	bcf	14,0,b	;volatile
  1129  0008DC                     
  1130                           ; BSR set to: 15
  1131                           ;senior_main.c: 681:                     _delay((unsigned long)((0.25)*(8000000/4000.0))
      +                          );
  1132  0008DC  9B0E               	bcf	14,5,b	;volatile
  1133  0008DE                     
  1134                           ; BSR set to: 15
  1135                           ;senior_main.c: 682:                 }
  1136  0008DE  ECAC  F019         	call	_ultra_dist	;wreg free
  1137  0008E2  C060  F180         	movff	?_ultra_dist,main@distc
  1138  0008E6  C061  F181         	movff	?_ultra_dist+1,main@distc+1
  1139  0008EA                     
  1140                           ;senior_main.c: 683:                 PORTDbits.RD5 = 0;
  1141  0008EA  010F               	movlb	15	; () banked
  1142  0008EC  890E               	bsf	14,4,b	;volatile
  1143  0008EE                     
  1144                           ; BSR set to: 15
  1145                           ;senior_main.c: 684: 
  1146  0008EE  830E               	bsf	14,1,b	;volatile
  1147  0008F0                     
  1148                           ; BSR set to: 15
  1149                           ;senior_main.c: 685: 
  1150  0008F0  810E               	bsf	14,0,b	;volatile
  1151  0008F2                     
  1152                           ; BSR set to: 15
  1153                           ;senior_main.c: 686: 
  1154  0008F2  8B0E               	bsf	14,5,b	;volatile
  1155  0008F4                     
  1156                           ; BSR set to: 15
  1157                           ;senior_main.c: 688:                 PWM3DCL = 0xC0;
  1158  0008F4  0101               	movlb	1	; () banked
  1159  0008F6  BF81               	btfsc	(main@distc+1)& (0+255),7,b
  1160  0008F8  EF87  F004         	goto	u5141
  1161  0008FC  5181               	movf	(main@distc+1)& (0+255),w,b
  1162  0008FE  E109               	bnz	u5140
  1163  000900  0E1A               	movlw	26
  1164  000902  5D80               	subwf	main@distc& (0+255),w,b
  1165  000904  A0D8               	btfss	status,0,c
  1166  000906  EF87  F004         	goto	u5141
  1167  00090A  EF89  F004         	goto	u5140
  1168  00090E                     u5141:
  1169  00090E  EFA4  F004         	goto	l5111
  1170  000912                     u5140:
  1171  000912                     
  1172                           ; BSR set to: 1
  1173                           ;senior_main.c: 689:                 T2TMR = 0x00;
  1174  000912  968D               	bcf	141,3,c	;volatile
  1175                           
  1176                           ;senior_main.c: 690:                 PWM3CONbits.PWM3EN = 1;
  1177  000914  9A8F               	bcf	143,5,c	;volatile
  1178  000916                     
  1179                           ; BSR set to: 1
  1180  000916  0E00               	movlw	0
  1181  000918  0100               	movlb	0	; () banked
  1182  00091A  6F61               	movwf	(forward@gostop+1)& (0+255),b
  1183  00091C  0E01               	movlw	1
  1184  00091E  6F60               	movwf	forward@gostop& (0+255),b
  1185  000920  ECDB  F019         	call	_forward	;wreg free
  1186  000924                     
  1187                           ;senior_main.c: 693:                 _delay((unsigned long)((100)*(8000000/4000.0)));
  1188  000924  90D8               	bcf	status,0,c
  1189  000926  0101               	movlb	1	; () banked
  1190  000928  3540               	rlcf	_index& (0+255),w,b
  1191  00092A  6ED9               	movwf	fsr2l,c
  1192  00092C  3541               	rlcf	(_index+1)& (0+255),w,b
  1193  00092E  6EDA               	movwf	fsr2h,c
  1194  000930  0E00               	movlw	low _maze
  1195  000932  26D9               	addwf	fsr2l,f,c
  1196  000934  0E01               	movlw	high _maze
  1197  000936  22DA               	addwfc	fsr2h,f,c
  1198  000938  0E01               	movlw	1
  1199  00093A  6EDE               	movwf	postinc2,c
  1200  00093C  0E00               	movlw	0
  1201  00093E  6EDD               	movwf	postdec2,c
  1202  000940                     l5109:
  1203                           
  1204                           ; BSR set to: 1
  1205                           ;senior_main.c: 694:                 PWM3CONbits.PWM3EN = 0;
  1206  000940  4B40               	infsnz	_index& (0+255),f,b
  1207  000942  2B41               	incf	(_index+1)& (0+255),f,b
  1208                           
  1209                           ;senior_main.c: 695:                 lcdprint();
  1210  000944  EF5C  F006         	goto	l5241
  1211  000948                     l5111:
  1212                           
  1213                           ; BSR set to: 1
  1214  000948  0E00               	movlw	0
  1215  00094A  0100               	movlb	0	; () banked
  1216  00094C  6F61               	movwf	(forward@gostop+1)& (0+255),b
  1217  00094E  0E00               	movlw	0
  1218  000950  6F60               	movwf	forward@gostop& (0+255),b
  1219  000952  ECDB  F019         	call	_forward	;wreg free
  1220  000956                     
  1221                           ;senior_main.c: 698: 
  1222  000956  010F               	movlb	15	; () banked
  1223  000958  990E               	bcf	14,4,b	;volatile
  1224  00095A                     
  1225                           ; BSR set to: 15
  1226                           ;senior_main.c: 699:                 PWM3DCH = 0x04;
  1227  00095A  930E               	bcf	14,1,b	;volatile
  1228  00095C                     
  1229                           ; BSR set to: 15
  1230                           ;senior_main.c: 700:                 PWM3DCL = 0x10;
  1231  00095C  910E               	bcf	14,0,b	;volatile
  1232  00095E                     
  1233                           ; BSR set to: 15
  1234                           ;senior_main.c: 701:                 T2TMR = 0x00;
  1235  00095E  9B0E               	bcf	14,5,b	;volatile
  1236  000960                     
  1237                           ; BSR set to: 15
  1238                           ;senior_main.c: 703:                 _delay((unsigned long)((500)*(8000000/4000.0)));
  1239  000960  868D               	bsf	141,3,c	;volatile
  1240  000962                     
  1241                           ; BSR set to: 15
  1242                           ;senior_main.c: 705:                 _delay((unsigned long)((100)*(8000000/4000.0)));
  1243  000962  8A8F               	bsf	143,5,c	;volatile
  1244  000964                     
  1245                           ; BSR set to: 15
  1246                           ;senior_main.c: 706:                 PWM3CONbits.PWM3EN = 0;
  1247  000964  0E00               	movlw	0
  1248  000966  0101               	movlb	1	; () banked
  1249  000968  6F85               	movwf	(main@i_786+1)& (0+255),b
  1250  00096A  0E00               	movlw	0
  1251  00096C  6F84               	movwf	main@i_786& (0+255),b
  1252  00096E                     l309:
  1253                           
  1254                           ; BSR set to: 1
  1255                           ;senior_main.c: 708: 
  1256  00096E  8A85               	bsf	133,5,c	;volatile
  1257  000970                     
  1258                           ; BSR set to: 1
  1259                           ;senior_main.c: 709: 
  1260  000970  0EA6               	movlw	166
  1261  000972                     u5457:
  1262  000972  2EE8               	decfsz	wreg,f,c
  1263  000974  D7FE               	bra	u5457
  1264  000976  D000               	nop2	
  1265  000978                     
  1266                           ;senior_main.c: 710:                 PWM3DCH = 0x0B;
  1267  000978  9A85               	bcf	133,5,c	;volatile
  1268                           
  1269                           ;senior_main.c: 711:                 PWM3DCL = 0xC0;
  1270  00097A  0EA6               	movlw	166
  1271  00097C                     u5467:
  1272  00097C  2EE8               	decfsz	wreg,f,c
  1273  00097E  D7FE               	bra	u5467
  1274  000980  D000               	nop2	
  1275  000982                     
  1276                           ;senior_main.c: 712:                 T2TMR = 0x00;
  1277  000982  0101               	movlb	1	; () banked
  1278  000984  4B84               	infsnz	main@i_786& (0+255),f,b
  1279  000986  2B85               	incf	(main@i_786+1)& (0+255),f,b
  1280  000988  BF85               	btfsc	(main@i_786+1)& (0+255),7,b
  1281  00098A  EFD0  F004         	goto	u5151
  1282  00098E  5185               	movf	(main@i_786+1)& (0+255),w,b
  1283  000990  E109               	bnz	u5150
  1284  000992  0EC8               	movlw	200
  1285  000994  5D84               	subwf	main@i_786& (0+255),w,b
  1286  000996  A0D8               	btfss	status,0,c
  1287  000998  EFD0  F004         	goto	u5151
  1288  00099C  EFD2  F004         	goto	u5150
  1289  0009A0                     u5151:
  1290  0009A0  EFB7  F004         	goto	l309
  1291  0009A4                     u5150:
  1292  0009A4                     
  1293                           ; BSR set to: 1
  1294                           ;senior_main.c: 713:                 PWM3CONbits.PWM3EN = 1;
  1295  0009A4  9A8F               	bcf	143,5,c	;volatile
  1296  0009A6                     
  1297                           ; BSR set to: 1
  1298                           ;senior_main.c: 717:                 PWM3CONbits.PWM3EN = 0;
  1299  0009A6  0E12               	movlw	18
  1300  0009A8  6EA3               	movwf	163,c	;volatile
  1301                           
  1302                           ;senior_main.c: 718:                 lcdprint();
  1303  0009AA  0EC0               	movlw	192
  1304  0009AC  6EA2               	movwf	162,c	;volatile
  1305                           
  1306                           ;senior_main.c: 719: 
  1307  0009AE  0E00               	movlw	0
  1308  0009B0  6EBA               	movwf	186,c	;volatile
  1309  0009B2                     
  1310                           ; BSR set to: 1
  1311                           ;senior_main.c: 720:                 PORTDbits.RD5 = 1;
  1312  0009B2  8EA4               	bsf	164,7,c	;volatile
  1313  0009B4                     
  1314                           ; BSR set to: 1
  1315                           ;senior_main.c: 721:                 for(int i=0; i<200; i++){
  1316  0009B4  0E06               	movlw	6
  1317  0009B6  0100               	movlb	0	; () banked
  1318  0009B8  6FE6               	movwf	(??_main+1)& (0+255),b
  1319  0009BA  0E13               	movlw	19
  1320  0009BC  6FE5               	movwf	??_main& (0+255),b
  1321  0009BE  0EAD               	movlw	173
  1322  0009C0                     u5477:
  1323  0009C0  2EE8               	decfsz	wreg,f,c
  1324  0009C2  D7FE               	bra	u5477
  1325  0009C4  2FE5               	decfsz	??_main& (0+255),f,b
  1326  0009C6  D7FC               	bra	u5477
  1327  0009C8  2FE6               	decfsz	(??_main+1)& (0+255),f,b
  1328  0009CA  D7FA               	bra	u5477
  1329  0009CC  D000               	nop2	
  1330  0009CE                     
  1331                           ;senior_main.c: 722: 
  1332  0009CE  ECAC  F019         	call	_ultra_dist	;wreg free
  1333  0009D2  C060  F192         	movff	?_ultra_dist,main@distl
  1334  0009D6  C061  F193         	movff	?_ultra_dist+1,main@distl+1
  1335  0009DA                     
  1336                           ;senior_main.c: 723:                     LATDbits.LATD5=1;
  1337  0009DA  0E02               	movlw	2
  1338  0009DC  0100               	movlb	0	; () banked
  1339  0009DE  6FE6               	movwf	(??_main+1)& (0+255),b
  1340  0009E0  0E04               	movlw	4
  1341  0009E2  6FE5               	movwf	??_main& (0+255),b
  1342  0009E4  0EBA               	movlw	186
  1343  0009E6                     u5487:
  1344  0009E6  2EE8               	decfsz	wreg,f,c
  1345  0009E8  D7FE               	bra	u5487
  1346  0009EA  2FE5               	decfsz	??_main& (0+255),f,b
  1347  0009EC  D7FC               	bra	u5487
  1348  0009EE  2FE6               	decfsz	(??_main+1)& (0+255),f,b
  1349  0009F0  D7FA               	bra	u5487
  1350  0009F2  F000               	nop	
  1351  0009F4                     
  1352                           ;senior_main.c: 724:                     _delay((unsigned long)((0.25)*(8000000/4000.0))
      +                          );
  1353  0009F4  9EA4               	bcf	164,7,c	;volatile
  1354  0009F6                     
  1355                           ;senior_main.c: 725:                     LATDbits.LATD5=0;
  1356  0009F6  EC80  F00D         	call	_lcdprint	;wreg free
  1357  0009FA                     
  1358                           ;senior_main.c: 729: 
  1359  0009FA  0E04               	movlw	4
  1360  0009FC  6EA3               	movwf	163,c	;volatile
  1361  0009FE                     
  1362                           ;senior_main.c: 730:                 if(distcc <=15){
  1363  0009FE  0E10               	movlw	16
  1364  000A00  6EA2               	movwf	162,c	;volatile
  1365  000A02                     
  1366                           ;senior_main.c: 731:                     backward();
  1367  000A02  0E00               	movlw	0
  1368  000A04  6EBA               	movwf	186,c	;volatile
  1369  000A06                     
  1370                           ;senior_main.c: 732:                 }
  1371  000A06  8EA4               	bsf	164,7,c	;volatile
  1372  000A08                     
  1373                           ;senior_main.c: 733:                 if(distr<30 && distl<30 && distcc<30){
  1374  000A08  0E06               	movlw	6
  1375  000A0A  0100               	movlb	0	; () banked
  1376  000A0C  6FE6               	movwf	(??_main+1)& (0+255),b
  1377  000A0E  0E13               	movlw	19
  1378  000A10  6FE5               	movwf	??_main& (0+255),b
  1379  000A12  0EAD               	movlw	173
  1380  000A14                     u5497:
  1381  000A14  2EE8               	decfsz	wreg,f,c
  1382  000A16  D7FE               	bra	u5497
  1383  000A18  2FE5               	decfsz	??_main& (0+255),f,b
  1384  000A1A  D7FC               	bra	u5497
  1385  000A1C  2FE6               	decfsz	(??_main+1)& (0+255),f,b
  1386  000A1E  D7FA               	bra	u5497
  1387  000A20  D000               	nop2	
  1388  000A22                     
  1389                           ;senior_main.c: 734:                     if(distl>distr){
  1390  000A22  ECAC  F019         	call	_ultra_dist	;wreg free
  1391  000A26  C060  F194         	movff	?_ultra_dist,main@distr
  1392  000A2A  C061  F195         	movff	?_ultra_dist+1,main@distr+1
  1393  000A2E                     
  1394                           ;senior_main.c: 735:                         reverser();
  1395  000A2E  0E02               	movlw	2
  1396  000A30  0100               	movlb	0	; () banked
  1397  000A32  6FE6               	movwf	(??_main+1)& (0+255),b
  1398  000A34  0E04               	movlw	4
  1399  000A36  6FE5               	movwf	??_main& (0+255),b
  1400  000A38  0EBA               	movlw	186
  1401  000A3A                     u5507:
  1402  000A3A  2EE8               	decfsz	wreg,f,c
  1403  000A3C  D7FE               	bra	u5507
  1404  000A3E  2FE5               	decfsz	??_main& (0+255),f,b
  1405  000A40  D7FC               	bra	u5507
  1406  000A42  2FE6               	decfsz	(??_main+1)& (0+255),f,b
  1407  000A44  D7FA               	bra	u5507
  1408  000A46  F000               	nop	
  1409  000A48                     
  1410                           ;senior_main.c: 736:                     }
  1411  000A48  9EA4               	bcf	164,7,c	;volatile
  1412                           
  1413                           ;senior_main.c: 737:                     if(distr>distl){
  1414  000A4A  EC80  F00D         	call	_lcdprint	;wreg free
  1415  000A4E                     
  1416                           ;senior_main.c: 740:                     maze[index]=4;
  1417  000A4E  0E0B               	movlw	11
  1418  000A50  6EA3               	movwf	163,c	;volatile
  1419  000A52                     
  1420                           ;senior_main.c: 741:                     index++;
  1421  000A52  0EC0               	movlw	192
  1422  000A54  6EA2               	movwf	162,c	;volatile
  1423  000A56                     
  1424                           ;senior_main.c: 742:                 }
  1425  000A56  0E00               	movlw	0
  1426  000A58  6EBA               	movwf	186,c	;volatile
  1427  000A5A                     
  1428                           ;senior_main.c: 743:                 else if(distl>30 && distl>=distcc){
  1429  000A5A  8EA4               	bsf	164,7,c	;volatile
  1430  000A5C                     
  1431                           ;senior_main.c: 744:                     lturn();
  1432  000A5C  0E09               	movlw	9
  1433  000A5E  0100               	movlb	0	; () banked
  1434  000A60  6FE6               	movwf	(??_main+1)& (0+255),b
  1435  000A62  0E1E               	movlw	30
  1436  000A64  6FE5               	movwf	??_main& (0+255),b
  1437  000A66  0EE4               	movlw	228
  1438  000A68                     u5517:
  1439  000A68  2EE8               	decfsz	wreg,f,c
  1440  000A6A  D7FE               	bra	u5517
  1441  000A6C  2FE5               	decfsz	??_main& (0+255),f,b
  1442  000A6E  D7FC               	bra	u5517
  1443  000A70  2FE6               	decfsz	(??_main+1)& (0+255),f,b
  1444  000A72  D7FA               	bra	u5517
  1445  000A74  F000               	nop	
  1446  000A76                     
  1447                           ;senior_main.c: 745:                     maze[index]=2;
  1448  000A76  ECAC  F019         	call	_ultra_dist	;wreg free
  1449  000A7A  C060  F18E         	movff	?_ultra_dist,main@distcc
  1450  000A7E  C061  F18F         	movff	?_ultra_dist+1,main@distcc+1
  1451  000A82                     
  1452                           ;senior_main.c: 746:                     index++;
  1453  000A82  0E02               	movlw	2
  1454  000A84  0100               	movlb	0	; () banked
  1455  000A86  6FE6               	movwf	(??_main+1)& (0+255),b
  1456  000A88  0E04               	movlw	4
  1457  000A8A  6FE5               	movwf	??_main& (0+255),b
  1458  000A8C  0EBA               	movlw	186
  1459  000A8E                     u5527:
  1460  000A8E  2EE8               	decfsz	wreg,f,c
  1461  000A90  D7FE               	bra	u5527
  1462  000A92  2FE5               	decfsz	??_main& (0+255),f,b
  1463  000A94  D7FC               	bra	u5527
  1464  000A96  2FE6               	decfsz	(??_main+1)& (0+255),f,b
  1465  000A98  D7FA               	bra	u5527
  1466  000A9A  F000               	nop	
  1467  000A9C                     
  1468                           ;senior_main.c: 747:                 }
  1469  000A9C  9EA4               	bcf	164,7,c	;volatile
  1470  000A9E                     
  1471                           ;senior_main.c: 748:                 else if(distr>30 && distr>distcc){
  1472  000A9E  EC80  F00D         	call	_lcdprint	;wreg free
  1473  000AA2                     
  1474                           ;senior_main.c: 750:                     maze[index]=3;
  1475  000AA2  8A8F               	bsf	143,5,c	;volatile
  1476  000AA4                     
  1477                           ;senior_main.c: 751:                     index++;
  1478  000AA4  0E00               	movlw	0
  1479  000AA6  0101               	movlb	1	; () banked
  1480  000AA8  6F87               	movwf	(main@i_787+1)& (0+255),b
  1481  000AAA  0E00               	movlw	0
  1482  000AAC  6F86               	movwf	main@i_787& (0+255),b
  1483  000AAE                     
  1484                           ; BSR set to: 1
  1485  000AAE  BF87               	btfsc	(main@i_787+1)& (0+255),7,b
  1486  000AB0  EF63  F005         	goto	u5161
  1487  000AB4  5187               	movf	(main@i_787+1)& (0+255),w,b
  1488  000AB6  E109               	bnz	u5160
  1489  000AB8  0EC8               	movlw	200
  1490  000ABA  5D86               	subwf	main@i_787& (0+255),w,b
  1491  000ABC  A0D8               	btfss	status,0,c
  1492  000ABE  EF63  F005         	goto	u5161
  1493  000AC2  EF65  F005         	goto	u5160
  1494  000AC6                     u5161:
  1495  000AC6  EF67  F005         	goto	l311
  1496  000ACA                     u5160:
  1497  000ACA  EF82  F005         	goto	l312
  1498  000ACE                     l311:
  1499                           
  1500                           ; BSR set to: 1
  1501                           ;senior_main.c: 753:             }
  1502  000ACE  8A85               	bsf	133,5,c	;volatile
  1503  000AD0                     
  1504                           ; BSR set to: 1
  1505                           ;senior_main.c: 754:             IOCBNbits.IOCBN4 = 1;
  1506  000AD0  0EA6               	movlw	166
  1507  000AD2                     u5537:
  1508  000AD2  2EE8               	decfsz	wreg,f,c
  1509  000AD4  D7FE               	bra	u5537
  1510  000AD6  D000               	nop2	
  1511  000AD8                     
  1512                           ;senior_main.c: 755:             IOCBNbits.IOCBN1 = 1;
  1513  000AD8  9A85               	bcf	133,5,c	;volatile
  1514                           
  1515                           ;senior_main.c: 756:             IOCBNbits.IOCBN0 = 1;
  1516  000ADA  0EA6               	movlw	166
  1517  000ADC                     u5547:
  1518  000ADC  2EE8               	decfsz	wreg,f,c
  1519  000ADE  D7FE               	bra	u5547
  1520  000AE0  D000               	nop2	
  1521  000AE2                     
  1522                           ;senior_main.c: 757:             IOCBNbits.IOCBN5 = 1;
  1523  000AE2  0101               	movlb	1	; () banked
  1524  000AE4  4B86               	infsnz	main@i_787& (0+255),f,b
  1525  000AE6  2B87               	incf	(main@i_787+1)& (0+255),f,b
  1526  000AE8  BF87               	btfsc	(main@i_787+1)& (0+255),7,b
  1527  000AEA  EF80  F005         	goto	u5171
  1528  000AEE  5187               	movf	(main@i_787+1)& (0+255),w,b
  1529  000AF0  E109               	bnz	u5170
  1530  000AF2  0EC8               	movlw	200
  1531  000AF4  5D86               	subwf	main@i_787& (0+255),w,b
  1532  000AF6  A0D8               	btfss	status,0,c
  1533  000AF8  EF80  F005         	goto	u5171
  1534  000AFC  EF82  F005         	goto	u5170
  1535  000B00                     u5171:
  1536  000B00  EF67  F005         	goto	l311
  1537  000B04                     u5170:
  1538  000B04                     l312:
  1539                           
  1540                           ; BSR set to: 1
  1541                           ;senior_main.c: 758:         }
  1542  000B04  9A8F               	bcf	143,5,c	;volatile
  1543  000B06                     
  1544                           ; BSR set to: 1
  1545                           ;senior_main.c: 760:             forward(stop);
  1546  000B06  BF8F               	btfsc	(main@distcc+1)& (0+255),7,b
  1547  000B08  EF91  F005         	goto	u5180
  1548  000B0C  518F               	movf	(main@distcc+1)& (0+255),w,b
  1549  000B0E  E107               	bnz	u5181
  1550  000B10  0E10               	movlw	16
  1551  000B12  5D8E               	subwf	main@distcc& (0+255),w,b
  1552  000B14  B0D8               	btfsc	status,0,c
  1553  000B16  EF8F  F005         	goto	u5181
  1554  000B1A  EF91  F005         	goto	u5180
  1555  000B1E                     u5181:
  1556  000B1E  EF93  F005         	goto	l5203
  1557  000B22                     u5180:
  1558  000B22                     
  1559                           ; BSR set to: 1
  1560                           ;senior_main.c: 761:             PORTAbits.RA1 = 1;
  1561  000B22  EC55  F019         	call	_backward	;wreg free
  1562  000B26                     l5203:
  1563                           
  1564                           ;senior_main.c: 763:             int spf[15];
  1565  000B26  0101               	movlb	1	; () banked
  1566  000B28  BF95               	btfsc	(main@distr+1)& (0+255),7,b
  1567  000B2A  EFA2  F005         	goto	u5190
  1568  000B2E  5195               	movf	(main@distr+1)& (0+255),w,b
  1569  000B30  E107               	bnz	u5191
  1570  000B32  0E1E               	movlw	30
  1571  000B34  5D94               	subwf	main@distr& (0+255),w,b
  1572  000B36  B0D8               	btfsc	status,0,c
  1573  000B38  EFA0  F005         	goto	u5191
  1574  000B3C  EFA2  F005         	goto	u5190
  1575  000B40                     u5191:
  1576  000B40  EFF7  F005         	goto	l5221
  1577  000B44                     u5190:
  1578  000B44                     
  1579                           ; BSR set to: 1
  1580  000B44  BF93               	btfsc	(main@distl+1)& (0+255),7,b
  1581  000B46  EFB0  F005         	goto	u5200
  1582  000B4A  5193               	movf	(main@distl+1)& (0+255),w,b
  1583  000B4C  E107               	bnz	u5201
  1584  000B4E  0E1E               	movlw	30
  1585  000B50  5D92               	subwf	main@distl& (0+255),w,b
  1586  000B52  B0D8               	btfsc	status,0,c
  1587  000B54  EFAE  F005         	goto	u5201
  1588  000B58  EFB0  F005         	goto	u5200
  1589  000B5C                     u5201:
  1590  000B5C  EFF7  F005         	goto	l5221
  1591  000B60                     u5200:
  1592  000B60                     
  1593                           ; BSR set to: 1
  1594  000B60  BF8F               	btfsc	(main@distcc+1)& (0+255),7,b
  1595  000B62  EFBE  F005         	goto	u5210
  1596  000B66  518F               	movf	(main@distcc+1)& (0+255),w,b
  1597  000B68  E107               	bnz	u5211
  1598  000B6A  0E1E               	movlw	30
  1599  000B6C  5D8E               	subwf	main@distcc& (0+255),w,b
  1600  000B6E  B0D8               	btfsc	status,0,c
  1601  000B70  EFBC  F005         	goto	u5211
  1602  000B74  EFBE  F005         	goto	u5210
  1603  000B78                     u5211:
  1604  000B78  EFF7  F005         	goto	l5221
  1605  000B7C                     u5210:
  1606  000B7C                     
  1607                           ; BSR set to: 1
  1608                           ;senior_main.c: 764:             index=0;
  1609  000B7C  5192               	movf	main@distl& (0+255),w,b
  1610  000B7E  5D94               	subwf	main@distr& (0+255),w,b
  1611  000B80  5195               	movf	(main@distr+1)& (0+255),w,b
  1612  000B82  0A80               	xorlw	128
  1613  000B84  0100               	movlb	0	; () banked
  1614  000B86  6FE5               	movwf	??_main& (0+255),b
  1615  000B88  0101               	movlb	1	; () banked
  1616  000B8A  5193               	movf	(main@distl+1)& (0+255),w,b
  1617  000B8C  0A80               	xorlw	128
  1618  000B8E  0100               	movlb	0	; () banked
  1619  000B90  59E5               	subwfb	??_main& (0+255),w,b
  1620  000B92  B0D8               	btfsc	status,0,c
  1621  000B94  EFCE  F005         	goto	u5221
  1622  000B98  EFD0  F005         	goto	u5220
  1623  000B9C                     u5221:
  1624  000B9C  EFD2  F005         	goto	l5213
  1625  000BA0                     u5220:
  1626  000BA0                     
  1627                           ; BSR set to: 0
  1628                           ;senior_main.c: 765: 
  1629  000BA0  EC7E  F018         	call	_reverser	;wreg free
  1630  000BA4                     l5213:
  1631                           
  1632                           ;senior_main.c: 767:                 spf[i]=0;
  1633  000BA4  0101               	movlb	1	; () banked
  1634  000BA6  5194               	movf	main@distr& (0+255),w,b
  1635  000BA8  5D92               	subwf	main@distl& (0+255),w,b
  1636  000BAA  5193               	movf	(main@distl+1)& (0+255),w,b
  1637  000BAC  0A80               	xorlw	128
  1638  000BAE  0100               	movlb	0	; () banked
  1639  000BB0  6FE5               	movwf	??_main& (0+255),b
  1640  000BB2  0101               	movlb	1	; () banked
  1641  000BB4  5195               	movf	(main@distr+1)& (0+255),w,b
  1642  000BB6  0A80               	xorlw	128
  1643  000BB8  0100               	movlb	0	; () banked
  1644  000BBA  59E5               	subwfb	??_main& (0+255),w,b
  1645  000BBC  B0D8               	btfsc	status,0,c
  1646  000BBE  EFE3  F005         	goto	u5231
  1647  000BC2  EFE5  F005         	goto	u5230
  1648  000BC6                     u5231:
  1649  000BC6  EFE7  F005         	goto	l5217
  1650  000BCA                     u5230:
  1651  000BCA                     
  1652                           ; BSR set to: 0
  1653                           ;senior_main.c: 768:             }
  1654  000BCA  ECA4  F018         	call	_reversel	;wreg free
  1655  000BCE                     l5217:
  1656                           
  1657                           ;senior_main.c: 770: 
  1658  000BCE  90D8               	bcf	status,0,c
  1659  000BD0  0101               	movlb	1	; () banked
  1660  000BD2  3540               	rlcf	_index& (0+255),w,b
  1661  000BD4  6ED9               	movwf	fsr2l,c
  1662  000BD6  3541               	rlcf	(_index+1)& (0+255),w,b
  1663  000BD8  6EDA               	movwf	fsr2h,c
  1664  000BDA  0E00               	movlw	low _maze
  1665  000BDC  26D9               	addwf	fsr2l,f,c
  1666  000BDE  0E01               	movlw	high _maze
  1667  000BE0  22DA               	addwfc	fsr2h,f,c
  1668  000BE2  0E04               	movlw	4
  1669  000BE4  6EDE               	movwf	postinc2,c
  1670  000BE6  0E00               	movlw	0
  1671  000BE8  6EDD               	movwf	postdec2,c
  1672  000BEA  EFA0  F004         	goto	l5109
  1673  000BEE                     l5221:
  1674                           
  1675                           ; BSR set to: 1
  1676  000BEE  BF93               	btfsc	(main@distl+1)& (0+255),7,b
  1677  000BF0  EF03  F006         	goto	u5241
  1678  000BF4  5193               	movf	(main@distl+1)& (0+255),w,b
  1679  000BF6  E109               	bnz	u5240
  1680  000BF8  0E1F               	movlw	31
  1681  000BFA  5D92               	subwf	main@distl& (0+255),w,b
  1682  000BFC  A0D8               	btfss	status,0,c
  1683  000BFE  EF03  F006         	goto	u5241
  1684  000C02  EF05  F006         	goto	u5240
  1685  000C06                     u5241:
  1686  000C06  EF29  F006         	goto	l5231
  1687  000C0A                     u5240:
  1688  000C0A                     
  1689                           ; BSR set to: 1
  1690  000C0A  518E               	movf	main@distcc& (0+255),w,b
  1691  000C0C  5D92               	subwf	main@distl& (0+255),w,b
  1692  000C0E  5193               	movf	(main@distl+1)& (0+255),w,b
  1693  000C10  0A80               	xorlw	128
  1694  000C12  0100               	movlb	0	; () banked
  1695  000C14  6FE5               	movwf	??_main& (0+255),b
  1696  000C16  0101               	movlb	1	; () banked
  1697  000C18  518F               	movf	(main@distcc+1)& (0+255),w,b
  1698  000C1A  0A80               	xorlw	128
  1699  000C1C  0100               	movlb	0	; () banked
  1700  000C1E  59E5               	subwfb	??_main& (0+255),w,b
  1701  000C20  A0D8               	btfss	status,0,c
  1702  000C22  EF15  F006         	goto	u5251
  1703  000C26  EF17  F006         	goto	u5250
  1704  000C2A                     u5251:
  1705  000C2A  EF29  F006         	goto	l5231
  1706  000C2E                     u5250:
  1707  000C2E                     
  1708                           ; BSR set to: 0
  1709                           ;senior_main.c: 774:                         spf[index]=2;
  1710  000C2E  ECCA  F018         	call	_lturn	;wreg free
  1711  000C32                     
  1712                           ;senior_main.c: 775:                         index++;
  1713  000C32  90D8               	bcf	status,0,c
  1714  000C34  0101               	movlb	1	; () banked
  1715  000C36  3540               	rlcf	_index& (0+255),w,b
  1716  000C38  6ED9               	movwf	fsr2l,c
  1717  000C3A  3541               	rlcf	(_index+1)& (0+255),w,b
  1718  000C3C  6EDA               	movwf	fsr2h,c
  1719  000C3E  0E00               	movlw	low _maze
  1720  000C40  26D9               	addwf	fsr2l,f,c
  1721  000C42  0E01               	movlw	high _maze
  1722  000C44  22DA               	addwfc	fsr2h,f,c
  1723  000C46  0E02               	movlw	2
  1724  000C48  6EDE               	movwf	postinc2,c
  1725  000C4A  0E00               	movlw	0
  1726  000C4C  6EDD               	movwf	postdec2,c
  1727  000C4E  EFA0  F004         	goto	l5109
  1728  000C52                     l5231:
  1729  000C52  0101               	movlb	1	; () banked
  1730  000C54  BF95               	btfsc	(main@distr+1)& (0+255),7,b
  1731  000C56  EF36  F006         	goto	u5261
  1732  000C5A  5195               	movf	(main@distr+1)& (0+255),w,b
  1733  000C5C  E109               	bnz	u5260
  1734  000C5E  0E1F               	movlw	31
  1735  000C60  5D94               	subwf	main@distr& (0+255),w,b
  1736  000C62  A0D8               	btfss	status,0,c
  1737  000C64  EF36  F006         	goto	u5261
  1738  000C68  EF38  F006         	goto	u5260
  1739  000C6C                     u5261:
  1740  000C6C  EF5C  F006         	goto	l317
  1741  000C70                     u5260:
  1742  000C70                     
  1743                           ; BSR set to: 1
  1744  000C70  5194               	movf	main@distr& (0+255),w,b
  1745  000C72  5D8E               	subwf	main@distcc& (0+255),w,b
  1746  000C74  518F               	movf	(main@distcc+1)& (0+255),w,b
  1747  000C76  0A80               	xorlw	128
  1748  000C78  0100               	movlb	0	; () banked
  1749  000C7A  6FE5               	movwf	??_main& (0+255),b
  1750  000C7C  0101               	movlb	1	; () banked
  1751  000C7E  5195               	movf	(main@distr+1)& (0+255),w,b
  1752  000C80  0A80               	xorlw	128
  1753  000C82  0100               	movlb	0	; () banked
  1754  000C84  59E5               	subwfb	??_main& (0+255),w,b
  1755  000C86  B0D8               	btfsc	status,0,c
  1756  000C88  EF48  F006         	goto	u5271
  1757  000C8C  EF4A  F006         	goto	u5270
  1758  000C90                     u5271:
  1759  000C90  EF5C  F006         	goto	l317
  1760  000C94                     u5270:
  1761  000C94                     
  1762                           ; BSR set to: 0
  1763                           ;senior_main.c: 779:                         spf[index]=3;
  1764  000C94  EC58  F018         	call	_rturn	;wreg free
  1765  000C98                     
  1766                           ;senior_main.c: 780:                         index++;
  1767  000C98  90D8               	bcf	status,0,c
  1768  000C9A  0101               	movlb	1	; () banked
  1769  000C9C  3540               	rlcf	_index& (0+255),w,b
  1770  000C9E  6ED9               	movwf	fsr2l,c
  1771  000CA0  3541               	rlcf	(_index+1)& (0+255),w,b
  1772  000CA2  6EDA               	movwf	fsr2h,c
  1773  000CA4  0E00               	movlw	low _maze
  1774  000CA6  26D9               	addwf	fsr2l,f,c
  1775  000CA8  0E01               	movlw	high _maze
  1776  000CAA  22DA               	addwfc	fsr2h,f,c
  1777  000CAC  0E03               	movlw	3
  1778  000CAE  6EDE               	movwf	postinc2,c
  1779  000CB0  0E00               	movlw	0
  1780  000CB2  6EDD               	movwf	postdec2,c
  1781  000CB4  EFA0  F004         	goto	l5109
  1782  000CB8                     l317:
  1783  000CB8                     l5241:
  1784                           
  1785                           ;senior_main.c: 784:             }
  1786  000CB8  010F               	movlb	15	; () banked
  1787  000CBA  890E               	bsf	14,4,b	;volatile
  1788  000CBC                     
  1789                           ; BSR set to: 15
  1790                           ;senior_main.c: 785: 
  1791  000CBC  830E               	bsf	14,1,b	;volatile
  1792  000CBE                     
  1793                           ; BSR set to: 15
  1794                           ;senior_main.c: 786:             while(1){
  1795  000CBE  810E               	bsf	14,0,b	;volatile
  1796  000CC0                     
  1797                           ; BSR set to: 15
  1798                           ;senior_main.c: 787:                 IRpath1();
  1799  000CC0  8B0E               	bsf	14,5,b	;volatile
  1800                           
  1801                           ;senior_main.c: 788: 
  1802  000CC2  EF4E  F004         	goto	l5075
  1803  000CC6                     l5249:
  1804                           
  1805                           ; BSR set to: 1
  1806  000CC6  0E00               	movlw	0
  1807  000CC8  0100               	movlb	0	; () banked
  1808  000CCA  6F61               	movwf	(forward@gostop+1)& (0+255),b
  1809  000CCC  0E00               	movlw	0
  1810  000CCE  6F60               	movwf	forward@gostop& (0+255),b
  1811  000CD0  ECDB  F019         	call	_forward	;wreg free
  1812  000CD4                     
  1813                           ;senior_main.c: 791: 
  1814  000CD4  828C               	bsf	140,1,c	;volatile
  1815  000CD6                     
  1816                           ;senior_main.c: 793: ;senior_main.c: 794:             }
  1817  000CD6  0E00               	movlw	0
  1818  000CD8  0101               	movlb	1	; () banked
  1819  000CDA  6F41               	movwf	(_index+1)& (0+255),b
  1820  000CDC  0E00               	movlw	0
  1821  000CDE  6F40               	movwf	_index& (0+255),b
  1822  000CE0                     
  1823                           ; BSR set to: 1
  1824                           ;senior_main.c: 796:     }
  1825  000CE0  0E00               	movlw	0
  1826  000CE2  6F8D               	movwf	(main@i_789+1)& (0+255),b
  1827  000CE4  0E00               	movlw	0
  1828  000CE6  6F8C               	movwf	main@i_789& (0+255),b
  1829  000CE8                     l5257:
  1830                           
  1831                           ; BSR set to: 1
  1832  000CE8  BF8D               	btfsc	(main@i_789+1)& (0+255),7,b
  1833  000CEA  EF80  F006         	goto	u5281
  1834  000CEE  518D               	movf	(main@i_789+1)& (0+255),w,b
  1835  000CF0  E109               	bnz	u5280
  1836  000CF2  0E0F               	movlw	15
  1837  000CF4  5D8C               	subwf	main@i_789& (0+255),w,b
  1838  000CF6  A0D8               	btfss	status,0,c
  1839  000CF8  EF80  F006         	goto	u5281
  1840  000CFC  EF82  F006         	goto	u5280
  1841  000D00                     u5281:
  1842  000D00  EF84  F006         	goto	l5261
  1843  000D04                     u5280:
  1844  000D04  EF95  F006         	goto	l5267
  1845  000D08                     l5261:
  1846                           
  1847                           ; BSR set to: 1
  1848                           ;senior_main.c: 797:     return;
  1849  000D08  90D8               	bcf	status,0,c
  1850  000D0A  358C               	rlcf	main@i_789& (0+255),w,b
  1851  000D0C  6ED9               	movwf	fsr2l,c
  1852  000D0E  358D               	rlcf	(main@i_789+1)& (0+255),w,b
  1853  000D10  6EDA               	movwf	fsr2h,c
  1854  000D12  0E62               	movlw	low main@spf
  1855  000D14  26D9               	addwf	fsr2l,f,c
  1856  000D16  0E01               	movlw	high main@spf
  1857  000D18  22DA               	addwfc	fsr2h,f,c
  1858  000D1A  0E00               	movlw	0
  1859  000D1C  6EDE               	movwf	postinc2,c
  1860  000D1E  0E00               	movlw	0
  1861  000D20  6EDD               	movwf	postdec2,c
  1862  000D22                     
  1863                           ; BSR set to: 1
  1864                           ;senior_main.c: 798: }
  1865  000D22  4B8C               	infsnz	main@i_789& (0+255),f,b
  1866  000D24  2B8D               	incf	(main@i_789+1)& (0+255),f,b
  1867  000D26  EF74  F006         	goto	l5257
  1868  000D2A                     l5267:
  1869                           
  1870                           ; BSR set to: 1
  1871  000D2A  0E00               	movlw	0
  1872  000D2C  6F89               	movwf	(main@to3+1)& (0+255),b
  1873  000D2E  0E00               	movlw	0
  1874  000D30  6F88               	movwf	main@to3& (0+255),b
  1875  000D32  0E00               	movlw	0
  1876  000D34  6F91               	movwf	(main@j+1)& (0+255),b
  1877  000D36  0E1D               	movlw	29
  1878  000D38  6F90               	movwf	main@j& (0+255),b
  1879  000D3A                     l5269:
  1880                           
  1881                           ; BSR set to: 1
  1882  000D3A  BF91               	btfsc	(main@j+1)& (0+255),7,b
  1883  000D3C  EFAA  F006         	goto	u5290
  1884  000D40  5191               	movf	(main@j+1)& (0+255),w,b
  1885  000D42  E106               	bnz	u5291
  1886  000D44  0590               	decf	main@j& (0+255),w,b
  1887  000D46  B0D8               	btfsc	status,0,c
  1888  000D48  EFA8  F006         	goto	u5291
  1889  000D4C  EFAA  F006         	goto	u5290
  1890  000D50                     u5291:
  1891  000D50  EFAC  F006         	goto	l5273
  1892  000D54                     u5290:
  1893  000D54  EF10  F007         	goto	l5297
  1894  000D58                     l5273:
  1895                           
  1896                           ; BSR set to: 1
  1897  000D58  90D8               	bcf	status,0,c
  1898  000D5A  3590               	rlcf	main@j& (0+255),w,b
  1899  000D5C  6ED9               	movwf	fsr2l,c
  1900  000D5E  3591               	rlcf	(main@j+1)& (0+255),w,b
  1901  000D60  6EDA               	movwf	fsr2h,c
  1902  000D62  0E00               	movlw	low _maze
  1903  000D64  26D9               	addwf	fsr2l,f,c
  1904  000D66  0E01               	movlw	high _maze
  1905  000D68  22DA               	addwfc	fsr2h,f,c
  1906  000D6A  0E02               	movlw	2
  1907  000D6C  18DE               	xorwf	postinc2,w,c
  1908  000D6E  10DE               	iorwf	postinc2,w,c
  1909  000D70  A4D8               	btfss	status,2,c
  1910  000D72  EFBD  F006         	goto	u5301
  1911  000D76  EFBF  F006         	goto	u5300
  1912  000D7A                     u5301:
  1913  000D7A  EF0B  F007         	goto	l5293
  1914  000D7E                     u5300:
  1915  000D7E                     
  1916                           ; BSR set to: 1
  1917  000D7E  90D8               	bcf	status,0,c
  1918  000D80  3590               	rlcf	main@j& (0+255),w,b
  1919  000D82  6ED9               	movwf	fsr2l,c
  1920  000D84  3591               	rlcf	(main@j+1)& (0+255),w,b
  1921  000D86  6EDA               	movwf	fsr2h,c
  1922  000D88  0E02               	movlw	low (_maze+2)
  1923  000D8A  26D9               	addwf	fsr2l,f,c
  1924  000D8C  0E01               	movlw	high (_maze+2)
  1925  000D8E  22DA               	addwfc	fsr2h,f,c
  1926  000D90  04DE               	decf	postinc2,w,c
  1927  000D92  10DE               	iorwf	postinc2,w,c
  1928  000D94  A4D8               	btfss	status,2,c
  1929  000D96  EFCF  F006         	goto	u5311
  1930  000D9A  EFD1  F006         	goto	u5310
  1931  000D9E                     u5311:
  1932  000D9E  EF0B  F007         	goto	l5293
  1933  000DA2                     u5310:
  1934  000DA2                     
  1935                           ; BSR set to: 1
  1936  000DA2  5188               	movf	main@to3& (0+255),w,b
  1937  000DA4  1189               	iorwf	(main@to3+1)& (0+255),w,b
  1938  000DA6  A4D8               	btfss	status,2,c
  1939  000DA8  EFD8  F006         	goto	u5321
  1940  000DAC  EFDA  F006         	goto	u5320
  1941  000DB0                     u5321:
  1942  000DB0  EFEF  F006         	goto	l5285
  1943  000DB4                     u5320:
  1944  000DB4                     
  1945                           ; BSR set to: 1
  1946  000DB4  90D8               	bcf	status,0,c
  1947  000DB6  3540               	rlcf	_index& (0+255),w,b
  1948  000DB8  6ED9               	movwf	fsr2l,c
  1949  000DBA  3541               	rlcf	(_index+1)& (0+255),w,b
  1950  000DBC  6EDA               	movwf	fsr2h,c
  1951  000DBE  0E62               	movlw	low main@spf
  1952  000DC0  26D9               	addwf	fsr2l,f,c
  1953  000DC2  0E01               	movlw	high main@spf
  1954  000DC4  22DA               	addwfc	fsr2h,f,c
  1955  000DC6  0E02               	movlw	2
  1956  000DC8  6EDE               	movwf	postinc2,c
  1957  000DCA  0E00               	movlw	0
  1958  000DCC  6EDD               	movwf	postdec2,c
  1959  000DCE                     
  1960                           ; BSR set to: 1
  1961  000DCE  4B40               	infsnz	_index& (0+255),f,b
  1962  000DD0  2B41               	incf	(_index+1)& (0+255),f,b
  1963  000DD2                     
  1964                           ; BSR set to: 1
  1965  000DD2  0E00               	movlw	0
  1966  000DD4  6F89               	movwf	(main@to3+1)& (0+255),b
  1967  000DD6  0E01               	movlw	1
  1968  000DD8  6F88               	movwf	main@to3& (0+255),b
  1969  000DDA  EF0B  F007         	goto	l5293
  1970  000DDE                     l5285:
  1971                           
  1972                           ; BSR set to: 1
  1973  000DDE  0588               	decf	main@to3& (0+255),w,b
  1974  000DE0  1189               	iorwf	(main@to3+1)& (0+255),w,b
  1975  000DE2  A4D8               	btfss	status,2,c
  1976  000DE4  EFF6  F006         	goto	u5331
  1977  000DE8  EFF8  F006         	goto	u5330
  1978  000DEC                     u5331:
  1979  000DEC  EF0B  F007         	goto	l5293
  1980  000DF0                     u5330:
  1981  000DF0                     
  1982                           ; BSR set to: 1
  1983  000DF0  90D8               	bcf	status,0,c
  1984  000DF2  3540               	rlcf	_index& (0+255),w,b
  1985  000DF4  6ED9               	movwf	fsr2l,c
  1986  000DF6  3541               	rlcf	(_index+1)& (0+255),w,b
  1987  000DF8  6EDA               	movwf	fsr2h,c
  1988  000DFA  0E62               	movlw	low main@spf
  1989  000DFC  26D9               	addwf	fsr2l,f,c
  1990  000DFE  0E01               	movlw	high main@spf
  1991  000E00  22DA               	addwfc	fsr2h,f,c
  1992  000E02  0E03               	movlw	3
  1993  000E04  6EDE               	movwf	postinc2,c
  1994  000E06  0E00               	movlw	0
  1995  000E08  6EDD               	movwf	postdec2,c
  1996  000E0A                     
  1997                           ; BSR set to: 1
  1998  000E0A  4B40               	infsnz	_index& (0+255),f,b
  1999  000E0C  2B41               	incf	(_index+1)& (0+255),f,b
  2000  000E0E                     
  2001                           ; BSR set to: 1
  2002  000E0E  0E00               	movlw	0
  2003  000E10  6F89               	movwf	(main@to3+1)& (0+255),b
  2004  000E12  0E00               	movlw	0
  2005  000E14  6F88               	movwf	main@to3& (0+255),b
  2006  000E16                     l5293:
  2007                           
  2008                           ; BSR set to: 1
  2009  000E16  0790               	decf	main@j& (0+255),f,b
  2010  000E18  A0D8               	btfss	status,0,c
  2011  000E1A  0791               	decf	(main@j+1)& (0+255),f,b
  2012  000E1C  EF9D  F006         	goto	l5269
  2013  000E20                     l5297:
  2014  000E20  EC76  F009         	call	_IRpath1	;wreg free
  2015  000E24  EF10  F007         	goto	l5297
  2016  000E28  EFB7  F000         	goto	start
  2017  000E2C                     __end_of_main:
  2018                           	opt callstack 0
  2019                           
  2020 ;; *************** function _t1_init *****************
  2021 ;; Defined at:
  2022 ;;		line 41 in file "senior_main.c"
  2023 ;; Parameters:    Size  Location     Type
  2024 ;;		None
  2025 ;; Auto vars:     Size  Location     Type
  2026 ;;		None
  2027 ;; Return value:  Size  Location     Type
  2028 ;;                  1    wreg      void 
  2029 ;; Registers used:
  2030 ;;		wreg, status,2
  2031 ;; Tracked objects:
  2032 ;;		On entry : 0/0
  2033 ;;		On exit  : 0/0
  2034 ;;		Unchanged: 0/0
  2035 ;; Data sizes:     COMRAM   BANK0   BANK1   BANK2   BANK3   BANK4   BANK5   BANK6   BANK7
  2036 ;;      Params:         0       0       0       0       0       0       0       0       0
  2037 ;;      Locals:         0       0       0       0       0       0       0       0       0
  2038 ;;      Temps:          0       0       0       0       0       0       0       0       0
  2039 ;;      Totals:         0       0       0       0       0       0       0       0       0
  2040 ;;Total ram usage:        0 bytes
  2041 ;; Hardware stack levels used:    1
  2042 ;; Hardware stack levels required when called:    3
  2043 ;; This function calls:
  2044 ;;		Nothing
  2045 ;; This function is called by:
  2046 ;;		_main
  2047 ;; This function uses a non-reentrant model
  2048 ;;
  2049                           
  2050                           	psect	text1
  2051  003320                     __ptext1:
  2052                           	opt callstack 0
  2053  003320                     _t1_init:
  2054                           	opt callstack 27
  2055  003320                     
  2056                           ;senior_main.c: 43: 
  2057  003320  0E70               	movlw	112
  2058  003322  010E               	movlb	14	; () banked
  2059  003324  6FD3               	movwf	211,b	;volatile
  2060                           
  2061                           ;senior_main.c: 44:     return distance;
  2062  003326  0E00               	movlw	0
  2063  003328  6ECD               	movwf	205,c	;volatile
  2064  00332A  0E00               	movlw	0
  2065  00332C  6ECC               	movwf	204,c	;volatile
  2066                           
  2067                           ;senior_main.c: 45: }
  2068  00332E  0E20               	movlw	32
  2069  003330  6ECE               	movwf	206,c	;volatile
  2070                           
  2071                           ;senior_main.c: 46: 
  2072  003332  50D1               	movf	209,w,c	;volatile
  2073  003334  0BF0               	andlw	-16
  2074  003336  0902               	iorlw	2
  2075  003338  6ED1               	movwf	209,c	;volatile
  2076  00333A                     
  2077                           ; BSR set to: 14
  2078                           ;senior_main.c: 47: 
  2079  00333A  91C9               	bcf	201,0,b	;volatile
  2080  00333C                     
  2081                           ; BSR set to: 14
  2082                           ;senior_main.c: 50: void us_irs(void){
  2083  00333C  8EF2               	bsf	242,7,c	;volatile
  2084  00333E                     
  2085                           ; BSR set to: 14
  2086                           ;senior_main.c: 51:     while (!RB2);
  2087  00333E  9AF2               	bcf	242,5,c	;volatile
  2088  003340                     
  2089                           ; BSR set to: 14
  2090                           ;senior_main.c: 52:     TMR1ON = 1;
  2091  003340  8CF2               	bsf	242,6,c	;volatile
  2092  003342                     
  2093                           ; BSR set to: 14
  2094                           ;senior_main.c: 53:     while (RB2);
  2095  003342  89BD               	bsf	189,4,b	;volatile
  2096  003344                     
  2097                           ; BSR set to: 14
  2098                           ;senior_main.c: 54:     TMR1ON = 0;
  2099  003344  010F               	movlb	15	; () banked
  2100  003346  850F               	bsf	15,2,b	;volatile
  2101                           
  2102                           ;senior_main.c: 55: 
  2103  003348  0E33               	movlw	51
  2104  00334A  6F0E               	movwf	14,b	;volatile
  2105                           
  2106                           ;senior_main.c: 56: 
  2107  00334C  0E00               	movlw	0
  2108  00334E  6F0D               	movwf	13,b	;volatile
  2109                           
  2110                           ;senior_main.c: 59: 
  2111  003350  0E00               	movlw	0
  2112  003352  010E               	movlb	14	; () banked
  2113  003354  6FDC               	movwf	220,b	;volatile
  2114  003356                     
  2115                           ; BSR set to: 14
  2116  003356  0012               	return		;funcret
  2117  003358                     __end_of_t1_init:
  2118                           	opt callstack 0
  2119                           
  2120 ;; *************** function _set_seconds *****************
  2121 ;; Defined at:
  2122 ;;		line 47 in file "timer.c"
  2123 ;; Parameters:    Size  Location     Type
  2124 ;;  sec             1    wreg     unsigned char 
  2125 ;; Auto vars:     Size  Location     Type
  2126 ;;  sec             1   17[BANK0 ] unsigned char 
  2127 ;;  curr_sec        1   16[BANK0 ] unsigned char 
  2128 ;; Return value:  Size  Location     Type
  2129 ;;                  1    wreg      void 
  2130 ;; Registers used:
  2131 ;;		wreg, status,2, status,0, prodl, prodh, cstack
  2132 ;; Tracked objects:
  2133 ;;		On entry : 0/0
  2134 ;;		On exit  : 0/0
  2135 ;;		Unchanged: 0/0
  2136 ;; Data sizes:     COMRAM   BANK0   BANK1   BANK2   BANK3   BANK4   BANK5   BANK6   BANK7
  2137 ;;      Params:         0       0       0       0       0       0       0       0       0
  2138 ;;      Locals:         0       2       0       0       0       0       0       0       0
  2139 ;;      Temps:          0       2       0       0       0       0       0       0       0
  2140 ;;      Totals:         0       4       0       0       0       0       0       0       0
  2141 ;;Total ram usage:        4 bytes
  2142 ;; Hardware stack levels used:    1
  2143 ;; Hardware stack levels required when called:    4
  2144 ;; This function calls:
  2145 ;;		___awdiv
  2146 ;;		___awmod
  2147 ;;		_i2c_read
  2148 ;;		_i2c_write
  2149 ;; This function is called by:
  2150 ;;		_main
  2151 ;; This function uses a non-reentrant model
  2152 ;;
  2153                           
  2154                           	psect	text2
  2155  002E20                     __ptext2:
  2156                           	opt callstack 0
  2157  002E20                     _set_seconds:
  2158                           	opt callstack 26
  2159                           
  2160                           ; BSR set to: 14
  2161                           ;incstack = 0
  2162                           ;set_seconds@sec stored from wreg
  2163  002E20  0100               	movlb	0	; () banked
  2164  002E22  6F71               	movwf	set_seconds@sec& (0+255),b
  2165  002E24                     
  2166                           ;timer.c: 49:  if (sec<60) {
  2167  002E24  0E3C               	movlw	60
  2168  002E26  0100               	movlb	0	; () banked
  2169  002E28  6171               	cpfslt	set_seconds@sec& (0+255),b
  2170  002E2A  EF19  F017         	goto	u4701
  2171  002E2E  EF1B  F017         	goto	u4700
  2172  002E32                     u4701:
  2173  002E32  EF49  F017         	goto	l487
  2174  002E36                     u4700:
  2175  002E36                     
  2176                           ; BSR set to: 0
  2177                           ;timer.c: 51:   sec=((sec/10)<<4)+(sec%10);
  2178  002E36  C071  F068         	movff	set_seconds@sec,___awmod@dividend
  2179  002E3A  6B69               	clrf	(___awmod@dividend+1)& (0+255),b
  2180  002E3C  0E00               	movlw	0
  2181  002E3E  6F6B               	movwf	(___awmod@divisor+1)& (0+255),b
  2182  002E40  0E0A               	movlw	10
  2183  002E42  6F6A               	movwf	___awmod@divisor& (0+255),b
  2184  002E44  EC6D  F016         	call	___awmod	;wreg free
  2185  002E48  C068  F06E         	movff	?___awmod,??_set_seconds
  2186  002E4C  C069  F06F         	movff	?___awmod+1,??_set_seconds+1
  2187  002E50  C071  F060         	movff	set_seconds@sec,___awdiv@dividend
  2188  002E54  0100               	movlb	0	; () banked
  2189  002E56  6B61               	clrf	(___awdiv@dividend+1)& (0+255),b
  2190  002E58  0E00               	movlw	0
  2191  002E5A  6F63               	movwf	(___awdiv@divisor+1)& (0+255),b
  2192  002E5C  0E0A               	movlw	10
  2193  002E5E  6F62               	movwf	___awdiv@divisor& (0+255),b
  2194  002E60  EC0A  F016         	call	___awdiv	;wreg free
  2195  002E64  0100               	movlb	0	; () banked
  2196  002E66  5160               	movf	?___awdiv& (0+255),w,b
  2197  002E68  0D10               	mullw	16
  2198  002E6A  50F3               	movf	243,w,c
  2199  002E6C  256E               	addwf	??_set_seconds& (0+255),w,b
  2200  002E6E  6F71               	movwf	set_seconds@sec& (0+255),b
  2201  002E70                     
  2202                           ; BSR set to: 0
  2203                           ;timer.c: 54:   unsigned char curr_sec = i2c_read(104, 0x00);
  2204  002E70  0E00               	movlw	0
  2205  002E72  6F60               	movwf	i2c_read@registers& (0+255),b
  2206  002E74  0E68               	movlw	104
  2207  002E76  EC6A  F011         	call	_i2c_read
  2208  002E7A  0100               	movlb	0	; () banked
  2209  002E7C  6F70               	movwf	set_seconds@curr_sec& (0+255),b
  2210  002E7E                     
  2211                           ; BSR set to: 0
  2212                           ;timer.c: 57:   curr_sec &= 0x80;
  2213  002E7E  0E80               	movlw	128
  2214  002E80  1770               	andwf	set_seconds@curr_sec& (0+255),f,b
  2215  002E82                     
  2216                           ; BSR set to: 0
  2217                           ;timer.c: 60:   i2c_write(104, 0x00, curr_sec | sec);
  2218  002E82  0E00               	movlw	0
  2219  002E84  6F60               	movwf	i2c_write@registers& (0+255),b
  2220  002E86  5170               	movf	set_seconds@curr_sec& (0+255),w,b
  2221  002E88  1171               	iorwf	set_seconds@sec& (0+255),w,b
  2222  002E8A  6F61               	movwf	i2c_write@data& (0+255),b
  2223  002E8C  0E68               	movlw	104
  2224  002E8E  ECA6  F015         	call	_i2c_write
  2225  002E92                     l487:
  2226  002E92  0012               	return		;funcret
  2227  002E94                     __end_of_set_seconds:
  2228                           	opt callstack 0
  2229                           
  2230 ;; *************** function _set_minutes *****************
  2231 ;; Defined at:
  2232 ;;		line 77 in file "timer.c"
  2233 ;; Parameters:    Size  Location     Type
  2234 ;;  min             1    wreg     unsigned char 
  2235 ;; Auto vars:     Size  Location     Type
  2236 ;;  min             1   16[BANK0 ] unsigned char 
  2237 ;; Return value:  Size  Location     Type
  2238 ;;                  1    wreg      void 
  2239 ;; Registers used:
  2240 ;;		wreg, status,2, status,0, prodl, prodh, cstack
  2241 ;; Tracked objects:
  2242 ;;		On entry : 0/0
  2243 ;;		On exit  : 0/0
  2244 ;;		Unchanged: 0/0
  2245 ;; Data sizes:     COMRAM   BANK0   BANK1   BANK2   BANK3   BANK4   BANK5   BANK6   BANK7
  2246 ;;      Params:         0       0       0       0       0       0       0       0       0
  2247 ;;      Locals:         0       1       0       0       0       0       0       0       0
  2248 ;;      Temps:          0       2       0       0       0       0       0       0       0
  2249 ;;      Totals:         0       3       0       0       0       0       0       0       0
  2250 ;;Total ram usage:        3 bytes
  2251 ;; Hardware stack levels used:    1
  2252 ;; Hardware stack levels required when called:    4
  2253 ;; This function calls:
  2254 ;;		___awdiv
  2255 ;;		___awmod
  2256 ;;		_i2c_write
  2257 ;; This function is called by:
  2258 ;;		_main
  2259 ;; This function uses a non-reentrant model
  2260 ;;
  2261                           
  2262                           	psect	text3
  2263  002EF6                     __ptext3:
  2264                           	opt callstack 0
  2265  002EF6                     _set_minutes:
  2266                           	opt callstack 26
  2267                           
  2268                           ;incstack = 0
  2269                           ;set_minutes@min stored from wreg
  2270  002EF6  0100               	movlb	0	; () banked
  2271  002EF8  6F70               	movwf	set_minutes@min& (0+255),b
  2272  002EFA                     
  2273                           ;timer.c: 79:  if (min<60) {
  2274  002EFA  0E3C               	movlw	60
  2275  002EFC  0100               	movlb	0	; () banked
  2276  002EFE  6170               	cpfslt	set_minutes@min& (0+255),b
  2277  002F00  EF84  F017         	goto	u4691
  2278  002F04  EF86  F017         	goto	u4690
  2279  002F08                     u4691:
  2280  002F08  EFAA  F017         	goto	l494
  2281  002F0C                     u4690:
  2282  002F0C                     
  2283                           ; BSR set to: 0
  2284                           ;timer.c: 81:      min = ((min/10)<<4)+(min%10);
  2285  002F0C  C070  F068         	movff	set_minutes@min,___awmod@dividend
  2286  002F10  6B69               	clrf	(___awmod@dividend+1)& (0+255),b
  2287  002F12  0E00               	movlw	0
  2288  002F14  6F6B               	movwf	(___awmod@divisor+1)& (0+255),b
  2289  002F16  0E0A               	movlw	10
  2290  002F18  6F6A               	movwf	___awmod@divisor& (0+255),b
  2291  002F1A  EC6D  F016         	call	___awmod	;wreg free
  2292  002F1E  C068  F06E         	movff	?___awmod,??_set_minutes
  2293  002F22  C069  F06F         	movff	?___awmod+1,??_set_minutes+1
  2294  002F26  C070  F060         	movff	set_minutes@min,___awdiv@dividend
  2295  002F2A  0100               	movlb	0	; () banked
  2296  002F2C  6B61               	clrf	(___awdiv@dividend+1)& (0+255),b
  2297  002F2E  0E00               	movlw	0
  2298  002F30  6F63               	movwf	(___awdiv@divisor+1)& (0+255),b
  2299  002F32  0E0A               	movlw	10
  2300  002F34  6F62               	movwf	___awdiv@divisor& (0+255),b
  2301  002F36  EC0A  F016         	call	___awdiv	;wreg free
  2302  002F3A  0100               	movlb	0	; () banked
  2303  002F3C  5160               	movf	?___awdiv& (0+255),w,b
  2304  002F3E  0D10               	mullw	16
  2305  002F40  50F3               	movf	243,w,c
  2306  002F42  256E               	addwf	??_set_minutes& (0+255),w,b
  2307  002F44  6F70               	movwf	set_minutes@min& (0+255),b
  2308  002F46                     
  2309                           ; BSR set to: 0
  2310                           ;timer.c: 84:   i2c_write(104, 0x01, min);
  2311  002F46  0E01               	movlw	1
  2312  002F48  6F60               	movwf	i2c_write@registers& (0+255),b
  2313  002F4A  C070  F061         	movff	set_minutes@min,i2c_write@data
  2314  002F4E  0E68               	movlw	104
  2315  002F50  ECA6  F015         	call	_i2c_write
  2316  002F54                     l494:
  2317  002F54  0012               	return		;funcret
  2318  002F56                     __end_of_set_minutes:
  2319                           	opt callstack 0
  2320                           
  2321 ;; *************** function _rtc_init *****************
  2322 ;; Defined at:
  2323 ;;		line 12 in file "timer.c"
  2324 ;; Parameters:    Size  Location     Type
  2325 ;;		None
  2326 ;; Auto vars:     Size  Location     Type
  2327 ;;  i               2    8[BANK0 ] unsigned int 
  2328 ;;  hour            1   11[BANK0 ] unsigned char 
  2329 ;;  sec             1   10[BANK0 ] unsigned char 
  2330 ;; Return value:  Size  Location     Type
  2331 ;;                  1    wreg      void 
  2332 ;; Registers used:
  2333 ;;		wreg, status,2, status,0, cstack
  2334 ;; Tracked objects:
  2335 ;;		On entry : 0/0
  2336 ;;		On exit  : 0/0
  2337 ;;		Unchanged: 0/0
  2338 ;; Data sizes:     COMRAM   BANK0   BANK1   BANK2   BANK3   BANK4   BANK5   BANK6   BANK7
  2339 ;;      Params:         0       0       0       0       0       0       0       0       0
  2340 ;;      Locals:         0       4       0       0       0       0       0       0       0
  2341 ;;      Temps:          0       1       0       0       0       0       0       0       0
  2342 ;;      Totals:         0       5       0       0       0       0       0       0       0
  2343 ;;Total ram usage:        5 bytes
  2344 ;; Hardware stack levels used:    1
  2345 ;; Hardware stack levels required when called:    4
  2346 ;; This function calls:
  2347 ;;		_i2c_read
  2348 ;;		_i2c_write
  2349 ;; This function is called by:
  2350 ;;		_main
  2351 ;; This function uses a non-reentrant model
  2352 ;;
  2353                           
  2354                           	psect	text4
  2355  002D8C                     __ptext4:
  2356                           	opt callstack 0
  2357  002D8C                     _rtc_init:
  2358                           	opt callstack 26
  2359  002D8C                     
  2360                           ;timer.c: 14:  unsigned char sec = i2c_read(104, 0x00);
  2361  002D8C  0E00               	movlw	0
  2362  002D8E  0100               	movlb	0	; () banked
  2363  002D90  6F60               	movwf	i2c_read@registers& (0+255),b
  2364  002D92  0E68               	movlw	104
  2365  002D94  EC6A  F011         	call	_i2c_read
  2366  002D98  0100               	movlb	0	; () banked
  2367  002D9A  6F6A               	movwf	rtc_init@sec& (0+255),b
  2368  002D9C                     
  2369                           ; BSR set to: 0
  2370                           ;timer.c: 17:  if ((sec&0x80)!= 0) {
  2371  002D9C  AF6A               	btfss	rtc_init@sec& (0+255),7,b
  2372  002D9E  EFD3  F016         	goto	u4661
  2373  002DA2  EFD5  F016         	goto	u4660
  2374  002DA6                     u4661:
  2375  002DA6  EFF9  F016         	goto	l4733
  2376  002DAA                     u4660:
  2377  002DAA                     
  2378                           ; BSR set to: 0
  2379                           ;timer.c: 18:   i2c_write(104, 0x00, sec & 0x7f);
  2380  002DAA  0E00               	movlw	0
  2381  002DAC  6F60               	movwf	i2c_write@registers& (0+255),b
  2382  002DAE  516A               	movf	rtc_init@sec& (0+255),w,b
  2383  002DB0  0B7F               	andlw	127
  2384  002DB2  6F61               	movwf	i2c_write@data& (0+255),b
  2385  002DB4  0E68               	movlw	104
  2386  002DB6  ECA6  F015         	call	_i2c_write
  2387  002DBA                     
  2388                           ;timer.c: 20:   for (unsigned int i = 0; i < 500; i++) {
  2389  002DBA  0E00               	movlw	0
  2390  002DBC  0100               	movlb	0	; () banked
  2391  002DBE  6F69               	movwf	(rtc_init@i+1)& (0+255),b
  2392  002DC0  0E00               	movlw	0
  2393  002DC2  6F68               	movwf	rtc_init@i& (0+255),b
  2394  002DC4                     l4729:
  2395                           
  2396                           ; BSR set to: 0
  2397                           ;timer.c: 21:    _delay((unsigned long)((1)*(8000000/4000.0)));
  2398  002DC4  0E03               	movlw	3
  2399  002DC6  0100               	movlb	0	; () banked
  2400  002DC8  6F67               	movwf	??_rtc_init& (0+255),b
  2401  002DCA  0E97               	movlw	151
  2402  002DCC                     u5557:
  2403  002DCC  2EE8               	decfsz	wreg,f,c
  2404  002DCE  D7FE               	bra	u5557
  2405  002DD0  2F67               	decfsz	??_rtc_init& (0+255),f,b
  2406  002DD2  D7FC               	bra	u5557
  2407  002DD4  D000               	nop2	
  2408  002DD6                     
  2409                           ;timer.c: 22:   }
  2410  002DD6  0100               	movlb	0	; () banked
  2411  002DD8  4B68               	infsnz	rtc_init@i& (0+255),f,b
  2412  002DDA  2B69               	incf	(rtc_init@i+1)& (0+255),f,b
  2413  002DDC  0EF4               	movlw	244
  2414  002DDE  5D68               	subwf	rtc_init@i& (0+255),w,b
  2415  002DE0  0E01               	movlw	1
  2416  002DE2  5969               	subwfb	(rtc_init@i+1)& (0+255),w,b
  2417  002DE4  A0D8               	btfss	status,0,c
  2418  002DE6  EFF7  F016         	goto	u4671
  2419  002DEA  EFF9  F016         	goto	u4670
  2420  002DEE                     u4671:
  2421  002DEE  EFE2  F016         	goto	l4729
  2422  002DF2                     u4670:
  2423  002DF2                     l4733:
  2424                           
  2425                           ; BSR set to: 0
  2426                           ;timer.c: 26:  unsigned char hour = i2c_read(104, 0x02);
  2427  002DF2  0E02               	movlw	2
  2428  002DF4  6F60               	movwf	i2c_read@registers& (0+255),b
  2429  002DF6  0E68               	movlw	104
  2430  002DF8  EC6A  F011         	call	_i2c_read
  2431  002DFC  0100               	movlb	0	; () banked
  2432  002DFE  6F6B               	movwf	rtc_init@hour& (0+255),b
  2433  002E00                     
  2434                           ; BSR set to: 0
  2435                           ;timer.c: 29:  if ((hour & 0x40) != 0) {
  2436  002E00  AD6B               	btfss	rtc_init@hour& (0+255),6,b
  2437  002E02  EF05  F017         	goto	u4681
  2438  002E06  EF07  F017         	goto	u4680
  2439  002E0A                     u4681:
  2440  002E0A  EF0F  F017         	goto	l480
  2441  002E0E                     u4680:
  2442  002E0E                     
  2443                           ; BSR set to: 0
  2444                           ;timer.c: 30:   i2c_write(104, 0x02, hour & 0xbf);
  2445  002E0E  0E02               	movlw	2
  2446  002E10  6F60               	movwf	i2c_write@registers& (0+255),b
  2447  002E12  516B               	movf	rtc_init@hour& (0+255),w,b
  2448  002E14  0BBF               	andlw	191
  2449  002E16  6F61               	movwf	i2c_write@data& (0+255),b
  2450  002E18  0E68               	movlw	104
  2451  002E1A  ECA6  F015         	call	_i2c_write
  2452  002E1E                     l480:
  2453  002E1E  0012               	return		;funcret
  2454  002E20                     __end_of_rtc_init:
  2455                           	opt callstack 0
  2456                           
  2457 ;; *************** function _i2c_write *****************
  2458 ;; Defined at:
  2459 ;;		line 103 in file "i2c.c"
  2460 ;; Parameters:    Size  Location     Type
  2461 ;;  address         1    wreg     unsigned char 
  2462 ;;  registers       1    0[BANK0 ] unsigned char 
  2463 ;;  data            1    1[BANK0 ] unsigned char 
  2464 ;; Auto vars:     Size  Location     Type
  2465 ;;  address         1    2[BANK0 ] unsigned char 
  2466 ;; Return value:  Size  Location     Type
  2467 ;;                  1    wreg      void 
  2468 ;; Registers used:
  2469 ;;		wreg, status,2, status,0
  2470 ;; Tracked objects:
  2471 ;;		On entry : 0/0
  2472 ;;		On exit  : 0/0
  2473 ;;		Unchanged: 0/0
  2474 ;; Data sizes:     COMRAM   BANK0   BANK1   BANK2   BANK3   BANK4   BANK5   BANK6   BANK7
  2475 ;;      Params:         0       2       0       0       0       0       0       0       0
  2476 ;;      Locals:         0       1       0       0       0       0       0       0       0
  2477 ;;      Temps:          0       0       0       0       0       0       0       0       0
  2478 ;;      Totals:         0       3       0       0       0       0       0       0       0
  2479 ;;Total ram usage:        3 bytes
  2480 ;; Hardware stack levels used:    1
  2481 ;; Hardware stack levels required when called:    3
  2482 ;; This function calls:
  2483 ;;		Nothing
  2484 ;; This function is called by:
  2485 ;;		_rtc_init
  2486 ;;		_set_seconds
  2487 ;;		_set_minutes
  2488 ;;		_set_hours
  2489 ;;		_set_dayname
  2490 ;;		_set_months
  2491 ;;		_set_days
  2492 ;;		_set_years
  2493 ;;		_set_Aseconds
  2494 ;;		_set_Aminutes
  2495 ;;		_set_Ahours
  2496 ;; This function uses a non-reentrant model
  2497 ;;
  2498                           
  2499                           	psect	text5
  2500  002B4C                     __ptext5:
  2501                           	opt callstack 0
  2502  002B4C                     _i2c_write:
  2503                           	opt callstack 26
  2504                           
  2505                           ;incstack = 0
  2506                           ;i2c_write@address stored from wreg
  2507  002B4C  0100               	movlb	0	; () banked
  2508  002B4E  6F62               	movwf	i2c_write@address& (0+255),b
  2509  002B50                     
  2510                           ;i2c.c: 104:  SSP1CON2bits.SEN = 1;
  2511  002B50  8096               	bsf	150,0,c	;volatile
  2512  002B52                     l425:
  2513  002B52  B096               	btfsc	150,0,c	;volatile
  2514  002B54  EFAE  F015         	goto	u3421
  2515  002B58  EFB0  F015         	goto	u3420
  2516  002B5C                     u3421:
  2517  002B5C  EFA9  F015         	goto	l425
  2518  002B60                     u3420:
  2519  002B60                     
  2520                           ;i2c.c: 107:  SSP1BUF = (address << 1) & 0xfe;
  2521  002B60  0100               	movlb	0	; () banked
  2522  002B62  5162               	movf	i2c_write@address& (0+255),w,b
  2523  002B64  2562               	addwf	i2c_write@address& (0+255),w,b
  2524  002B66  0BFE               	andlw	254
  2525  002B68  6E91               	movwf	145,c	;volatile
  2526  002B6A                     l428:
  2527  002B6A  B494               	btfsc	148,2,c	;volatile
  2528  002B6C  EFBA  F015         	goto	u3431
  2529  002B70  EFBC  F015         	goto	u3430
  2530  002B74                     u3431:
  2531  002B74  EFB5  F015         	goto	l428
  2532  002B78                     u3430:
  2533  002B78                     
  2534                           ;i2c.c: 112:  if (SSP1CON2bits.ACKSTAT == 1) {
  2535  002B78  AC96               	btfss	150,6,c	;volatile
  2536  002B7A  EFC1  F015         	goto	u3441
  2537  002B7E  EFC3  F015         	goto	u3440
  2538  002B82                     u3441:
  2539  002B82  EFCD  F015         	goto	l431
  2540  002B86                     u3440:
  2541  002B86                     
  2542                           ;i2c.c: 113:   SSP1CON2bits.PEN = 1;
  2543  002B86  8496               	bsf	150,2,c	;volatile
  2544  002B88                     l432:
  2545  002B88  B496               	btfsc	150,2,c	;volatile
  2546  002B8A  EFC9  F015         	goto	u3451
  2547  002B8E  EFCB  F015         	goto	u3450
  2548  002B92                     u3451:
  2549  002B92  EFC4  F015         	goto	l432
  2550  002B96                     u3450:
  2551  002B96  EF09  F016         	goto	l435
  2552  002B9A                     l431:
  2553                           
  2554                           ;i2c.c: 118:  SSP1BUF = registers;
  2555  002B9A  C060  FF91         	movff	i2c_write@registers,3985	;volatile
  2556  002B9E                     l436:
  2557  002B9E  B494               	btfsc	148,2,c	;volatile
  2558  002BA0  EFD4  F015         	goto	u3461
  2559  002BA4  EFD6  F015         	goto	u3460
  2560  002BA8                     u3461:
  2561  002BA8  EFCF  F015         	goto	l436
  2562  002BAC                     u3460:
  2563  002BAC                     
  2564                           ;i2c.c: 123:  if (SSP1CON2bits.ACKSTAT == 1) {
  2565  002BAC  AC96               	btfss	150,6,c	;volatile
  2566  002BAE  EFDB  F015         	goto	u3471
  2567  002BB2  EFDD  F015         	goto	u3470
  2568  002BB6                     u3471:
  2569  002BB6  EFE7  F015         	goto	l439
  2570  002BBA                     u3470:
  2571  002BBA                     
  2572                           ;i2c.c: 124:   SSP1CON2bits.PEN = 1;
  2573  002BBA  8496               	bsf	150,2,c	;volatile
  2574  002BBC                     l440:
  2575  002BBC  B496               	btfsc	150,2,c	;volatile
  2576  002BBE  EFE3  F015         	goto	u3481
  2577  002BC2  EFE5  F015         	goto	u3480
  2578  002BC6                     u3481:
  2579  002BC6  EFDE  F015         	goto	l440
  2580  002BCA                     u3480:
  2581  002BCA  EF09  F016         	goto	l435
  2582  002BCE                     l439:
  2583                           
  2584                           ;i2c.c: 129:  SSP1BUF = data;
  2585  002BCE  C061  FF91         	movff	i2c_write@data,3985	;volatile
  2586  002BD2                     l443:
  2587  002BD2  B494               	btfsc	148,2,c	;volatile
  2588  002BD4  EFEE  F015         	goto	u3491
  2589  002BD8  EFF0  F015         	goto	u3490
  2590  002BDC                     u3491:
  2591  002BDC  EFE9  F015         	goto	l443
  2592  002BE0                     u3490:
  2593  002BE0                     
  2594                           ;i2c.c: 133:  if (SSP1CON2bits.ACKSTAT == 1) {
  2595  002BE0  AC96               	btfss	150,6,c	;volatile
  2596  002BE2  EFF5  F015         	goto	u3501
  2597  002BE6  EFF7  F015         	goto	u3500
  2598  002BEA                     u3501:
  2599  002BEA  EF01  F016         	goto	l446
  2600  002BEE                     u3500:
  2601  002BEE                     
  2602                           ;i2c.c: 134:   SSP1CON2bits.PEN = 1;
  2603  002BEE  8496               	bsf	150,2,c	;volatile
  2604  002BF0                     l447:
  2605  002BF0  B496               	btfsc	150,2,c	;volatile
  2606  002BF2  EFFD  F015         	goto	u3511
  2607  002BF6  EFFF  F015         	goto	u3510
  2608  002BFA                     u3511:
  2609  002BFA  EFF8  F015         	goto	l447
  2610  002BFE                     u3510:
  2611  002BFE  EF09  F016         	goto	l435
  2612  002C02                     l446:
  2613                           
  2614                           ;i2c.c: 139:     SSP1CON2bits.PEN = 1;
  2615  002C02  8496               	bsf	150,2,c	;volatile
  2616  002C04                     l450:
  2617  002C04  B496               	btfsc	150,2,c	;volatile
  2618  002C06  EF07  F016         	goto	u3521
  2619  002C0A  EF09  F016         	goto	u3520
  2620  002C0E                     u3521:
  2621  002C0E  EF02  F016         	goto	l450
  2622  002C12                     u3520:
  2623  002C12                     l435:
  2624  002C12  0012               	return		;funcret
  2625  002C14                     __end_of_i2c_write:
  2626                           	opt callstack 0
  2627                           
  2628 ;; *************** function _pwm_init *****************
  2629 ;; Defined at:
  2630 ;;		line 184 in file "senior_main.c"
  2631 ;; Parameters:    Size  Location     Type
  2632 ;;		None
  2633 ;; Auto vars:     Size  Location     Type
  2634 ;;		None
  2635 ;; Return value:  Size  Location     Type
  2636 ;;                  1    wreg      void 
  2637 ;; Registers used:
  2638 ;;		wreg, status,2
  2639 ;; Tracked objects:
  2640 ;;		On entry : 0/0
  2641 ;;		On exit  : 0/0
  2642 ;;		Unchanged: 0/0
  2643 ;; Data sizes:     COMRAM   BANK0   BANK1   BANK2   BANK3   BANK4   BANK5   BANK6   BANK7
  2644 ;;      Params:         0       0       0       0       0       0       0       0       0
  2645 ;;      Locals:         0       0       0       0       0       0       0       0       0
  2646 ;;      Temps:          0       0       0       0       0       0       0       0       0
  2647 ;;      Totals:         0       0       0       0       0       0       0       0       0
  2648 ;;Total ram usage:        0 bytes
  2649 ;; Hardware stack levels used:    1
  2650 ;; Hardware stack levels required when called:    3
  2651 ;; This function calls:
  2652 ;;		Nothing
  2653 ;; This function is called by:
  2654 ;;		_main
  2655 ;; This function uses a non-reentrant model
  2656 ;;
  2657                           
  2658                           	psect	text6
  2659  00326E                     __ptext6:
  2660                           	opt callstack 0
  2661  00326E                     _pwm_init:
  2662                           	opt callstack 27
  2663  00326E                     
  2664                           ;senior_main.c: 185:     T2CON = 0xF0;
  2665  00326E  0E07               	movlw	7
  2666  003270  010E               	movlb	14	; () banked
  2667  003272  6FE6               	movwf	230,b	;volatile
  2668                           
  2669                           ;senior_main.c: 188: 
  2670  003274  0E00               	movlw	0
  2671  003276  6FD5               	movwf	213,b	;volatile
  2672                           
  2673                           ;senior_main.c: 190: 
  2674  003278  0E00               	movlw	0
  2675  00327A  6FD7               	movwf	215,b	;volatile
  2676                           
  2677                           ;senior_main.c: 192:     RC6PPS = 0x05;
  2678  00327C  0E00               	movlw	0
  2679  00327E  6FD8               	movwf	216,b	;volatile
  2680                           
  2681                           ;senior_main.c: 195: 
  2682  003280  50AD               	movf	173,w,c	;volatile
  2683  003282  0BCF               	andlw	-49
  2684  003284  0910               	iorlw	16
  2685  003286  6EAD               	movwf	173,c	;volatile
  2686                           
  2687                           ;senior_main.c: 198: 
  2688  003288  0E00               	movlw	0
  2689  00328A  6FDD               	movwf	221,b	;volatile
  2690                           
  2691                           ;senior_main.c: 200:  CCPTMRSbits.C1TSEL = 2;
  2692  00328C  0E00               	movlw	0
  2693  00328E  6FDF               	movwf	223,b	;volatile
  2694                           
  2695                           ;senior_main.c: 205:     T4HLT = 0x00;
  2696  003290  0E01               	movlw	1
  2697  003292  6EBE               	movwf	190,c	;volatile
  2698                           
  2699                           ;senior_main.c: 207:     T4RST = 0x00;
  2700  003294  0EA0               	movlw	160
  2701  003296  6EBD               	movwf	189,c	;volatile
  2702                           
  2703                           ;senior_main.c: 209:     T4PR = 0x9B;
  2704  003298  0E00               	movlw	0
  2705  00329A  6EBF               	movwf	191,c	;volatile
  2706                           
  2707                           ;senior_main.c: 211:     T4TMR = 0x00;
  2708  00329C  0E9B               	movlw	155
  2709  00329E  6EBB               	movwf	187,c	;volatile
  2710                           
  2711                           ;senior_main.c: 213:     T4CON = 0xF0;
  2712  0032A0  0E00               	movlw	0
  2713  0032A2  6EBA               	movwf	186,c	;volatile
  2714                           
  2715                           ;senior_main.c: 215: 
  2716  0032A4  0EF0               	movlw	240
  2717  0032A6  6EBC               	movwf	188,c	;volatile
  2718  0032A8                     
  2719                           ; BSR set to: 14
  2720  0032A8  0012               	return		;funcret
  2721  0032AA                     __end_of_pwm_init:
  2722                           	opt callstack 0
  2723                           
  2724 ;; *************** function _lcd_init *****************
  2725 ;; Defined at:
  2726 ;;		line 61 in file "lcd.c"
  2727 ;; Parameters:    Size  Location     Type
  2728 ;;		None
  2729 ;; Auto vars:     Size  Location     Type
  2730 ;;		None
  2731 ;; Return value:  Size  Location     Type
  2732 ;;                  1    wreg      void 
  2733 ;; Registers used:
  2734 ;;		wreg, status,2, status,0, cstack
  2735 ;; Tracked objects:
  2736 ;;		On entry : 0/0
  2737 ;;		On exit  : 0/0
  2738 ;;		Unchanged: 0/0
  2739 ;; Data sizes:     COMRAM   BANK0   BANK1   BANK2   BANK3   BANK4   BANK5   BANK6   BANK7
  2740 ;;      Params:         0       0       0       0       0       0       0       0       0
  2741 ;;      Locals:         0       0       0       0       0       0       0       0       0
  2742 ;;      Temps:          0       0       0       0       0       0       0       0       0
  2743 ;;      Totals:         0       0       0       0       0       0       0       0       0
  2744 ;;Total ram usage:        0 bytes
  2745 ;; Hardware stack levels used:    1
  2746 ;; Hardware stack levels required when called:    4
  2747 ;; This function calls:
  2748 ;;		_lcd_command
  2749 ;; This function is called by:
  2750 ;;		_main
  2751 ;; This function uses a non-reentrant model
  2752 ;;
  2753                           
  2754                           	psect	text7
  2755  003482                     __ptext7:
  2756                           	opt callstack 0
  2757  003482                     _lcd_init:
  2758                           	opt callstack 26
  2759  003482                     
  2760                           ;lcd.c: 62:  lcd_command(0x33);
  2761  003482  0E33               	movlw	51
  2762  003484  EC0B  F014         	call	_lcd_command
  2763                           
  2764                           ;lcd.c: 63:  lcd_command(0x32);
  2765  003488  0E32               	movlw	50
  2766  00348A  EC0B  F014         	call	_lcd_command
  2767                           
  2768                           ;lcd.c: 64:  lcd_command(0x2C);
  2769  00348E  0E2C               	movlw	44
  2770  003490  EC0B  F014         	call	_lcd_command
  2771                           
  2772                           ;lcd.c: 65:  lcd_command(0x0C);
  2773  003494  0E0C               	movlw	12
  2774  003496  EC0B  F014         	call	_lcd_command
  2775                           
  2776                           ;lcd.c: 66:  lcd_command(0x01);
  2777  00349A  0E01               	movlw	1
  2778  00349C  EC0B  F014         	call	_lcd_command
  2779  0034A0  0012               	return		;funcret
  2780  0034A2                     __end_of_lcd_init:
  2781                           	opt callstack 0
  2782                           
  2783 ;; *************** function _i2c_init *****************
  2784 ;; Defined at:
  2785 ;;		line 10 in file "i2c.c"
  2786 ;; Parameters:    Size  Location     Type
  2787 ;;		None
  2788 ;; Auto vars:     Size  Location     Type
  2789 ;;		None
  2790 ;; Return value:  Size  Location     Type
  2791 ;;                  1    wreg      void 
  2792 ;; Registers used:
  2793 ;;		wreg, status,2
  2794 ;; Tracked objects:
  2795 ;;		On entry : 0/0
  2796 ;;		On exit  : 0/0
  2797 ;;		Unchanged: 0/0
  2798 ;; Data sizes:     COMRAM   BANK0   BANK1   BANK2   BANK3   BANK4   BANK5   BANK6   BANK7
  2799 ;;      Params:         0       0       0       0       0       0       0       0       0
  2800 ;;      Locals:         0       0       0       0       0       0       0       0       0
  2801 ;;      Temps:          0       0       0       0       0       0       0       0       0
  2802 ;;      Totals:         0       0       0       0       0       0       0       0       0
  2803 ;;Total ram usage:        0 bytes
  2804 ;; Hardware stack levels used:    1
  2805 ;; Hardware stack levels required when called:    3
  2806 ;; This function calls:
  2807 ;;		Nothing
  2808 ;; This function is called by:
  2809 ;;		_main
  2810 ;; This function uses a non-reentrant model
  2811 ;;
  2812                           
  2813                           	psect	text8
  2814  0033E4                     __ptext8:
  2815                           	opt callstack 0
  2816  0033E4                     _i2c_init:
  2817                           	opt callstack 27
  2818  0033E4                     
  2819                           ;i2c.c: 12:     TRISCbits.TRISC3 = 1;
  2820  0033E4  8689               	bsf	137,3,c	;volatile
  2821                           
  2822                           ;i2c.c: 13:     TRISCbits.TRISC4 = 1;
  2823  0033E6  8889               	bsf	137,4,c	;volatile
  2824  0033E8                     
  2825                           ;i2c.c: 17:     SSP1CLKPPS = 0x13;
  2826  0033E8  0E13               	movlw	19
  2827  0033EA  010E               	movlb	14	; () banked
  2828  0033EC  6FB2               	movwf	178,b	;volatile
  2829                           
  2830                           ;i2c.c: 18:     SSP1DATPPS = 0x14;
  2831  0033EE  0E14               	movlw	20
  2832  0033F0  6FB3               	movwf	179,b	;volatile
  2833                           
  2834                           ;i2c.c: 20:     RC4PPS = 0x10;
  2835  0033F2  0E10               	movlw	16
  2836  0033F4  6FF6               	movwf	246,b	;volatile
  2837                           
  2838                           ;i2c.c: 21:     RC3PPS = 0x0F;
  2839  0033F6  0E0F               	movlw	15
  2840  0033F8  6FF5               	movwf	245,b	;volatile
  2841                           
  2842                           ;i2c.c: 24:     SSP1ADD = 12;
  2843  0033FA  0E0C               	movlw	12
  2844  0033FC  6E92               	movwf	146,c	;volatile
  2845                           
  2846                           ;i2c.c: 26:     SSP1CON1bits.SSPM = 8;
  2847  0033FE  5095               	movf	149,w,c	;volatile
  2848  003400  0BF0               	andlw	-16
  2849  003402  0908               	iorlw	8
  2850  003404  6E95               	movwf	149,c	;volatile
  2851  003406                     
  2852                           ; BSR set to: 14
  2853                           ;i2c.c: 28:     SSP1CON1bits.WCOL = 0;
  2854  003406  9E95               	bcf	149,7,c	;volatile
  2855  003408                     
  2856                           ; BSR set to: 14
  2857                           ;i2c.c: 29:     SSP1CON1bits.SSPOV = 0;
  2858  003408  9C95               	bcf	149,6,c	;volatile
  2859  00340A                     
  2860                           ; BSR set to: 14
  2861                           ;i2c.c: 30:     SSP1CON1bits.SSPEN = 1;
  2862  00340A  8A95               	bsf	149,5,c	;volatile
  2863  00340C                     
  2864                           ; BSR set to: 14
  2865  00340C  0012               	return		;funcret
  2866  00340E                     __end_of_i2c_init:
  2867                           	opt callstack 0
  2868                           
  2869 ;; *************** function _ccp_init *****************
  2870 ;; Defined at:
  2871 ;;		line 221 in file "senior_main.c"
  2872 ;; Parameters:    Size  Location     Type
  2873 ;;		None
  2874 ;; Auto vars:     Size  Location     Type
  2875 ;;		None
  2876 ;; Return value:  Size  Location     Type
  2877 ;;                  1    wreg      void 
  2878 ;; Registers used:
  2879 ;;		wreg, status,2
  2880 ;; Tracked objects:
  2881 ;;		On entry : 0/0
  2882 ;;		On exit  : 0/0
  2883 ;;		Unchanged: 0/0
  2884 ;; Data sizes:     COMRAM   BANK0   BANK1   BANK2   BANK3   BANK4   BANK5   BANK6   BANK7
  2885 ;;      Params:         0       0       0       0       0       0       0       0       0
  2886 ;;      Locals:         0       0       0       0       0       0       0       0       0
  2887 ;;      Temps:          0       0       0       0       0       0       0       0       0
  2888 ;;      Totals:         0       0       0       0       0       0       0       0       0
  2889 ;;Total ram usage:        0 bytes
  2890 ;; Hardware stack levels used:    1
  2891 ;; Hardware stack levels required when called:    3
  2892 ;; This function calls:
  2893 ;;		Nothing
  2894 ;; This function is called by:
  2895 ;;		_main
  2896 ;; This function uses a non-reentrant model
  2897 ;;
  2898                           
  2899                           	psect	text9
  2900  003064                     __ptext9:
  2901                           	opt callstack 0
  2902  003064                     _ccp_init:
  2903                           	opt callstack 27
  2904  003064                     
  2905                           ;senior_main.c: 222:     CCP2CONbits.EN = 1;
  2906  003064  0E05               	movlw	5
  2907  003066  010E               	movlb	14	; () banked
  2908  003068  6FF8               	movwf	248,b	;volatile
  2909                           
  2910                           ;senior_main.c: 223: 
  2911  00306A  0E06               	movlw	6
  2912  00306C  6FF7               	movwf	247,b	;volatile
  2913                           
  2914                           ;senior_main.c: 227: }
  2915  00306E  0E8C               	movlw	140
  2916  003070  6EAB               	movwf	171,c	;volatile
  2917                           
  2918                           ;senior_main.c: 230: 
  2919  003072  50AD               	movf	173,w,c	;volatile
  2920  003074  0BFC               	andlw	-4
  2921  003076  0902               	iorlw	2
  2922  003078  6EAD               	movwf	173,c	;volatile
  2923                           
  2924                           ;senior_main.c: 233:     lcd_command(0x02);
  2925  00307A  0E01               	movlw	1
  2926  00307C  6EB8               	movwf	184,c	;volatile
  2927                           
  2928                           ;senior_main.c: 235:     char array[2];
  2929  00307E  0E00               	movlw	0
  2930  003080  6EB7               	movwf	183,c	;volatile
  2931                           
  2932                           ;senior_main.c: 237:     char temp2 = array[1];
  2933  003082  0E00               	movlw	0
  2934  003084  6EB9               	movwf	185,c	;volatile
  2935                           
  2936                           ;senior_main.c: 239: 
  2937  003086  0E9B               	movlw	155
  2938  003088  6EB5               	movwf	181,c	;volatile
  2939                           
  2940                           ;senior_main.c: 241: 
  2941  00308A  0E00               	movlw	0
  2942  00308C  6EB4               	movwf	180,c	;volatile
  2943                           
  2944                           ;senior_main.c: 243: 
  2945  00308E  0EF0               	movlw	240
  2946  003090  6EB6               	movwf	182,c	;volatile
  2947                           
  2948                           ;senior_main.c: 246:     temp2 = array[1];
  2949  003092  0E00               	movlw	0
  2950  003094  6EAA               	movwf	170,c	;volatile
  2951                           
  2952                           ;senior_main.c: 247:     if((temp1 != 0) && (temp2 != 0)){
  2953  003096  0E50               	movlw	80
  2954  003098  6EA9               	movwf	169,c	;volatile
  2955                           
  2956                           ;senior_main.c: 250:     }
  2957  00309A  50A7               	movf	167,w,c	;volatile
  2958  00309C  0BF0               	andlw	-16
  2959  00309E  090C               	iorlw	12
  2960  0030A0  6EA7               	movwf	167,c	;volatile
  2961  0030A2                     
  2962                           ; BSR set to: 14
  2963                           ;senior_main.c: 251:     else if((temp1 != 0) && (temp2 == 0)){
  2964  0030A2  98A7               	bcf	167,4,c	;volatile
  2965  0030A4                     
  2966                           ; BSR set to: 14
  2967                           ;senior_main.c: 252:         lcd_char('0');
  2968  0030A4  8EA7               	bsf	167,7,c	;volatile
  2969                           
  2970                           ;senior_main.c: 255:     else{
  2971  0030A6  0E00               	movlw	0
  2972  0030A8  6EA6               	movwf	166,c	;volatile
  2973                           
  2974                           ;senior_main.c: 256:         lcd_char('0');
  2975  0030AA  0E50               	movlw	80
  2976  0030AC  6EA5               	movwf	165,c	;volatile
  2977  0030AE                     
  2978                           ; BSR set to: 14
  2979  0030AE  0012               	return		;funcret
  2980  0030B0                     __end_of_ccp_init:
  2981                           	opt callstack 0
  2982                           
  2983 ;; *************** function _adc_init *****************
  2984 ;; Defined at:
  2985 ;;		line 9 in file "adc.c"
  2986 ;; Parameters:    Size  Location     Type
  2987 ;;		None
  2988 ;; Auto vars:     Size  Location     Type
  2989 ;;		None
  2990 ;; Return value:  Size  Location     Type
  2991 ;;                  1    wreg      void 
  2992 ;; Registers used:
  2993 ;;		wreg, status,2
  2994 ;; Tracked objects:
  2995 ;;		On entry : 0/0
  2996 ;;		On exit  : 0/0
  2997 ;;		Unchanged: 0/0
  2998 ;; Data sizes:     COMRAM   BANK0   BANK1   BANK2   BANK3   BANK4   BANK5   BANK6   BANK7
  2999 ;;      Params:         0       0       0       0       0       0       0       0       0
  3000 ;;      Locals:         0       0       0       0       0       0       0       0       0
  3001 ;;      Temps:          0       0       0       0       0       0       0       0       0
  3002 ;;      Totals:         0       0       0       0       0       0       0       0       0
  3003 ;;Total ram usage:        0 bytes
  3004 ;; Hardware stack levels used:    1
  3005 ;; Hardware stack levels required when called:    3
  3006 ;; This function calls:
  3007 ;;		Nothing
  3008 ;; This function is called by:
  3009 ;;		_main
  3010 ;; This function uses a non-reentrant model
  3011 ;;
  3012                           
  3013                           	psect	text10
  3014  0034A2                     __ptext10:
  3015                           	opt callstack 0
  3016  0034A2                     _adc_init:
  3017                           	opt callstack 27
  3018  0034A2                     
  3019                           ;adc.c: 10:     TRISAbits.TRISA0 = 1;
  3020  0034A2  8087               	bsf	135,0,c	;volatile
  3021  0034A4                     
  3022                           ;adc.c: 13:     ANSELC = 0x0;
  3023  0034A4  0E00               	movlw	0
  3024  0034A6  010F               	movlb	15	; () banked
  3025  0034A8  6F1C               	movwf	28,b	;volatile
  3026  0034AA                     
  3027                           ; BSR set to: 15
  3028  0034AA  0012               	return		;funcret
  3029  0034AC                     __end_of_adc_init:
  3030                           	opt callstack 0
  3031                           
  3032 ;; *************** function _adcNum0 *****************
  3033 ;; Defined at:
  3034 ;;		line 19 in file "adc.c"
  3035 ;; Parameters:    Size  Location     Type
  3036 ;;		None
  3037 ;; Auto vars:     Size  Location     Type
  3038 ;;		None
  3039 ;; Return value:  Size  Location     Type
  3040 ;;                  4    0[BANK0 ] unsigned long 
  3041 ;; Registers used:
  3042 ;;		wreg, status,2, status,0
  3043 ;; Tracked objects:
  3044 ;;		On entry : 0/0
  3045 ;;		On exit  : 0/0
  3046 ;;		Unchanged: 0/0
  3047 ;; Data sizes:     COMRAM   BANK0   BANK1   BANK2   BANK3   BANK4   BANK5   BANK6   BANK7
  3048 ;;      Params:         0       4       0       0       0       0       0       0       0
  3049 ;;      Locals:         0       0       0       0       0       0       0       0       0
  3050 ;;      Temps:          0       3       0       0       0       0       0       0       0
  3051 ;;      Totals:         0       7       0       0       0       0       0       0       0
  3052 ;;Total ram usage:        7 bytes
  3053 ;; Hardware stack levels used:    1
  3054 ;; Hardware stack levels required when called:    3
  3055 ;; This function calls:
  3056 ;;		Nothing
  3057 ;; This function is called by:
  3058 ;;		_main
  3059 ;; This function uses a non-reentrant model
  3060 ;;
  3061                           
  3062                           	psect	text11
  3063  003228                     __ptext11:
  3064                           	opt callstack 0
  3065  003228                     _adcNum0:
  3066                           	opt callstack 27
  3067  003228                     
  3068                           ;adc.c: 20:     ADCON0 = 0x00;
  3069  003228  0E00               	movlw	0
  3070  00322A  010F               	movlb	15	; () banked
  3071  00322C  6F5B               	movwf	91,b	;volatile
  3072                           
  3073                           ;adc.c: 21:     ADPCH = 0;
  3074  00322E  0E00               	movlw	0
  3075  003230  6F5A               	movwf	90,b	;volatile
  3076  003232                     
  3077                           ; BSR set to: 15
  3078                           ;adc.c: 22:     ADCON0bits.ADON = 1;
  3079  003232  8F5B               	bsf	91,7,b	;volatile
  3080  003234                     
  3081                           ; BSR set to: 15
  3082                           ;adc.c: 23:     ADCON0bits.GO = 1;
  3083  003234  815B               	bsf	91,0,b	;volatile
  3084  003236                     l353:
  3085                           
  3086                           ; BSR set to: 15
  3087  003236  B15B               	btfsc	91,0,b	;volatile
  3088  003238  EF20  F019         	goto	u4711
  3089  00323C  EF22  F019         	goto	u4710
  3090  003240                     u4711:
  3091  003240  EF1B  F019         	goto	l353
  3092  003244                     u4710:
  3093  003244                     
  3094                           ; BSR set to: 15
  3095                           ;adc.c: 27:     ADCON0bits.ADON = 0;
  3096  003244  9F5B               	bcf	91,7,b	;volatile
  3097  003246                     
  3098                           ; BSR set to: 15
  3099                           ;adc.c: 30:     return (ADRES >> 6);
  3100  003246  CF5E F064          	movff	3934,??_adcNum0	;volatile
  3101  00324A  CF5F F065          	movff	3935,??_adcNum0+1	;volatile
  3102  00324E  0E06               	movlw	6
  3103  003250  0100               	movlb	0	; () banked
  3104  003252  6F66               	movwf	(??_adcNum0+2)& (0+255),b
  3105  003254                     u4725:
  3106  003254  90D8               	bcf	status,0,c
  3107  003256  3365               	rrcf	(??_adcNum0+1)& (0+255),f,b
  3108  003258  3364               	rrcf	??_adcNum0& (0+255),f,b
  3109  00325A  2F66               	decfsz	(??_adcNum0+2)& (0+255),f,b
  3110  00325C  EF2A  F019         	goto	u4725
  3111  003260  C064  F060         	movff	??_adcNum0,?_adcNum0
  3112  003264  C065  F061         	movff	??_adcNum0+1,?_adcNum0+1
  3113  003268  6B62               	clrf	(?_adcNum0+2)& (0+255),b
  3114  00326A  6B63               	clrf	(?_adcNum0+3)& (0+255),b
  3115  00326C                     
  3116                           ; BSR set to: 0
  3117  00326C  0012               	return		;funcret
  3118  00326E                     __end_of_adcNum0:
  3119                           	opt callstack 0
  3120                           
  3121 ;; *************** function _IRpath1 *****************
  3122 ;; Defined at:
  3123 ;;		line 334 in file "senior_main.c"
  3124 ;; Parameters:    Size  Location     Type
  3125 ;;		None
  3126 ;; Auto vars:     Size  Location     Type
  3127 ;;  i               2  121[BANK0 ] int 
  3128 ;;  i               2  119[BANK0 ] int 
  3129 ;;  dist2           2  131[BANK0 ] int 
  3130 ;;  dist1           2  129[BANK0 ] int 
  3131 ;;  dist3           2  127[BANK0 ] int 
  3132 ;;  distcr          2  117[BANK0 ] int 
  3133 ;;  distlr          2  115[BANK0 ] int 
  3134 ;;  turncheck       2  125[BANK0 ] int 
  3135 ;;  check           2  123[BANK0 ] int 
  3136 ;; Return value:  Size  Location     Type
  3137 ;;                  1    wreg      void 
  3138 ;; Registers used:
  3139 ;;		wreg, fsr1l, fsr1h, fsr2l, fsr2h, status,2, status,0, tblptrl, tblptrh, tblptru, prodl, prodh, cstack
  3140 ;; Tracked objects:
  3141 ;;		On entry : 0/0
  3142 ;;		On exit  : 0/0
  3143 ;;		Unchanged: 0/0
  3144 ;; Data sizes:     COMRAM   BANK0   BANK1   BANK2   BANK3   BANK4   BANK5   BANK6   BANK7
  3145 ;;      Params:         0       0       0       0       0       0       0       0       0
  3146 ;;      Locals:         0      18       0       0       0       0       0       0       0
  3147 ;;      Temps:          0       2       0       0       0       0       0       0       0
  3148 ;;      Totals:         0      20       0       0       0       0       0       0       0
  3149 ;;Total ram usage:       20 bytes
  3150 ;; Hardware stack levels used:    1
  3151 ;; Hardware stack levels required when called:   12
  3152 ;; This function calls:
  3153 ;;		_backward
  3154 ;;		_forward
  3155 ;;		_lcdprint
  3156 ;;		_lturn
  3157 ;;		_reversel
  3158 ;;		_reverser
  3159 ;;		_rturn
  3160 ;;		_ultra_dist
  3161 ;; This function is called by:
  3162 ;;		_main
  3163 ;; This function uses a non-reentrant model
  3164 ;;
  3165                           
  3166                           	psect	text12
  3167  0012EC                     __ptext12:
  3168                           	opt callstack 0
  3169  0012EC                     _IRpath1:
  3170                           	opt callstack 18
  3171  0012EC                     
  3172                           ;senior_main.c: 335:         if(turncheck == 0){
  3173  0012EC  0E00               	movlw	0
  3174  0012EE  0100               	movlb	0	; () banked
  3175  0012F0  6FDC               	movwf	(IRpath1@check+1)& (0+255),b
  3176  0012F2  0E01               	movlw	1
  3177  0012F4  6FDB               	movwf	IRpath1@check& (0+255),b
  3178                           
  3179                           ;senior_main.c: 336: 
  3180  0012F6  0E00               	movlw	0
  3181  0012F8  6FDE               	movwf	(IRpath1@turncheck+1)& (0+255),b
  3182  0012FA  0E01               	movlw	1
  3183  0012FC  6FDD               	movwf	IRpath1@turncheck& (0+255),b
  3184                           
  3185                           ;senior_main.c: 337:             PWM3DCH = 0x0B;
  3186  0012FE  EFDF  F009         	goto	l4545
  3187  001302                     l4515:
  3188                           
  3189                           ; BSR set to: 0
  3190                           ;senior_main.c: 340:             PWM3CONbits.PWM3EN = 1;
  3191  001302  51DD               	movf	IRpath1@turncheck& (0+255),w,b
  3192  001304  11DE               	iorwf	(IRpath1@turncheck+1)& (0+255),w,b
  3193  001306  B4D8               	btfsc	status,2,c
  3194  001308  EF88  F009         	goto	u4481
  3195  00130C  EF8A  F009         	goto	u4480
  3196  001310                     u4481:
  3197  001310  EFA6  F009         	goto	l4529
  3198  001314                     u4480:
  3199  001314                     
  3200                           ; BSR set to: 0
  3201                           ;senior_main.c: 341:             _delay((unsigned long)((800)*(8000000/4000.0)));
  3202  001314  0E12               	movlw	18
  3203  001316  6EA3               	movwf	163,c	;volatile
  3204                           
  3205                           ;senior_main.c: 342:             PWM3CONbits.PWM3EN = 0;
  3206  001318  0EC0               	movlw	192
  3207  00131A  6EA2               	movwf	162,c	;volatile
  3208                           
  3209                           ;senior_main.c: 343:             turncheck=1;
  3210  00131C  0E00               	movlw	0
  3211  00131E  6EBA               	movwf	186,c	;volatile
  3212  001320                     
  3213                           ; BSR set to: 0
  3214                           ;senior_main.c: 344:             lcdprint();
  3215  001320  8EA4               	bsf	164,7,c	;volatile
  3216  001322                     
  3217                           ; BSR set to: 0
  3218                           ;senior_main.c: 345:         }
  3219  001322  0E09               	movlw	9
  3220  001324  0100               	movlb	0	; () banked
  3221  001326  6FD2               	movwf	(??_IRpath1+1)& (0+255),b
  3222  001328  0E1E               	movlw	30
  3223  00132A  6FD1               	movwf	??_IRpath1& (0+255),b
  3224  00132C  0EE4               	movlw	228
  3225  00132E                     u5567:
  3226  00132E  2EE8               	decfsz	wreg,f,c
  3227  001330  D7FE               	bra	u5567
  3228  001332  2FD1               	decfsz	??_IRpath1& (0+255),f,b
  3229  001334  D7FC               	bra	u5567
  3230  001336  2FD2               	decfsz	(??_IRpath1+1)& (0+255),f,b
  3231  001338  D7FA               	bra	u5567
  3232  00133A  F000               	nop	
  3233  00133C                     
  3234                           ;senior_main.c: 346:         int distcr = ultra_dist();
  3235  00133C  9EA4               	bcf	164,7,c	;volatile
  3236  00133E                     
  3237                           ;senior_main.c: 347: 
  3238  00133E  0E00               	movlw	0
  3239  001340  0100               	movlb	0	; () banked
  3240  001342  6FDE               	movwf	(IRpath1@turncheck+1)& (0+255),b
  3241  001344  0E00               	movlw	0
  3242  001346  6FDD               	movwf	IRpath1@turncheck& (0+255),b
  3243  001348                     
  3244                           ; BSR set to: 0
  3245                           ;senior_main.c: 348:         if(distcr > 25){
  3246  001348  EC80  F00D         	call	_lcdprint	;wreg free
  3247  00134C                     l4529:
  3248                           
  3249                           ;senior_main.c: 350:         }
  3250  00134C  ECAC  F019         	call	_ultra_dist	;wreg free
  3251  001350  C060  F0D3         	movff	?_ultra_dist,IRpath1@distlr
  3252  001354  C061  F0D4         	movff	?_ultra_dist+1,IRpath1@distlr+1
  3253  001358                     
  3254                           ;senior_main.c: 352:             forward(stop);
  3255  001358  0100               	movlb	0	; () banked
  3256  00135A  BFD4               	btfsc	(IRpath1@distlr+1)& (0+255),7,b
  3257  00135C  EFBB  F009         	goto	u4490
  3258  001360  51D4               	movf	(IRpath1@distlr+1)& (0+255),w,b
  3259  001362  E107               	bnz	u4491
  3260  001364  0E3C               	movlw	60
  3261  001366  5DD3               	subwf	IRpath1@distlr& (0+255),w,b
  3262  001368  B0D8               	btfsc	status,0,c
  3263  00136A  EFB9  F009         	goto	u4491
  3264  00136E  EFBB  F009         	goto	u4490
  3265  001372                     u4491:
  3266  001372  EFC3  F009         	goto	l4535
  3267  001376                     u4490:
  3268  001376                     
  3269                           ; BSR set to: 0
  3270  001376  0E00               	movlw	0
  3271  001378  6F61               	movwf	(forward@gostop+1)& (0+255),b
  3272  00137A  0E01               	movlw	1
  3273  00137C  6F60               	movwf	forward@gostop& (0+255),b
  3274  00137E  ECDB  F019         	call	_forward	;wreg free
  3275                           
  3276                           ;senior_main.c: 354:             IOCBNbits.IOCBN4 = 0;
  3277  001382  EFDF  F009         	goto	l4545
  3278  001386                     l4535:
  3279                           
  3280                           ; BSR set to: 0
  3281                           ;senior_main.c: 356:             IOCBNbits.IOCBN0 = 0;
  3282  001386  0E03               	movlw	3
  3283  001388  0100               	movlb	0	; () banked
  3284  00138A  6FD2               	movwf	(??_IRpath1+1)& (0+255),b
  3285  00138C  0E08               	movlw	8
  3286  00138E  6FD1               	movwf	??_IRpath1& (0+255),b
  3287  001390  0E77               	movlw	119
  3288  001392                     u5577:
  3289  001392  2EE8               	decfsz	wreg,f,c
  3290  001394  D7FE               	bra	u5577
  3291  001396  2FD1               	decfsz	??_IRpath1& (0+255),f,b
  3292  001398  D7FC               	bra	u5577
  3293  00139A  2FD2               	decfsz	(??_IRpath1+1)& (0+255),f,b
  3294  00139C  D7FA               	bra	u5577
  3295  00139E  0E00               	movlw	0
  3296  0013A0  0100               	movlb	0	; () banked
  3297  0013A2  6F61               	movwf	(forward@gostop+1)& (0+255),b
  3298  0013A4  0E00               	movlw	0
  3299  0013A6  6F60               	movwf	forward@gostop& (0+255),b
  3300  0013A8  ECDB  F019         	call	_forward	;wreg free
  3301  0013AC                     
  3302                           ;senior_main.c: 358: 
  3303  0013AC  EC80  F00D         	call	_lcdprint	;wreg free
  3304  0013B0                     
  3305                           ;senior_main.c: 359:             PORTBbits.RB3 = 1;
  3306  0013B0  ECCA  F018         	call	_lturn	;wreg free
  3307  0013B4                     
  3308                           ;senior_main.c: 360: 
  3309  0013B4  0E00               	movlw	0
  3310  0013B6  0100               	movlb	0	; () banked
  3311  0013B8  6FDC               	movwf	(IRpath1@check+1)& (0+255),b
  3312  0013BA  0E00               	movlw	0
  3313  0013BC  6FDB               	movwf	IRpath1@check& (0+255),b
  3314  0013BE                     l4545:
  3315                           
  3316                           ;senior_main.c: 337:             PWM3DCH = 0x0B;
  3317  0013BE  0100               	movlb	0	; () banked
  3318  0013C0  51DB               	movf	IRpath1@check& (0+255),w,b
  3319  0013C2  11DC               	iorwf	(IRpath1@check+1)& (0+255),w,b
  3320  0013C4  A4D8               	btfss	status,2,c
  3321  0013C6  EFE7  F009         	goto	u4501
  3322  0013CA  EFE9  F009         	goto	u4500
  3323  0013CE                     u4501:
  3324  0013CE  EF81  F009         	goto	l4515
  3325  0013D2                     u4500:
  3326  0013D2  EFA8  F00B         	goto	l4699
  3327  0013D6                     l4547:
  3328                           
  3329                           ; BSR set to: 0
  3330                           ;senior_main.c: 365:                 _delay((unsigned long)((0.25)*(8000000/4000.0)));
  3331  0013D6  51DD               	movf	IRpath1@turncheck& (0+255),w,b
  3332  0013D8  11DE               	iorwf	(IRpath1@turncheck+1)& (0+255),w,b
  3333  0013DA  A4D8               	btfss	status,2,c
  3334  0013DC  EFF2  F009         	goto	u4511
  3335  0013E0  EFF4  F009         	goto	u4510
  3336  0013E4                     u4511:
  3337  0013E4  EF10  F00A         	goto	l4561
  3338  0013E8                     u4510:
  3339  0013E8                     
  3340                           ; BSR set to: 0
  3341                           ;senior_main.c: 367:                 _delay((unsigned long)((0.25)*(8000000/4000.0)));
  3342  0013E8  0E0B               	movlw	11
  3343  0013EA  6EA3               	movwf	163,c	;volatile
  3344                           
  3345                           ;senior_main.c: 368:             }
  3346  0013EC  0EC0               	movlw	192
  3347  0013EE  6EA2               	movwf	162,c	;volatile
  3348                           
  3349                           ;senior_main.c: 369:             PORTDbits.RD5 = 0;
  3350  0013F0  0E00               	movlw	0
  3351  0013F2  6EBA               	movwf	186,c	;volatile
  3352  0013F4                     
  3353                           ; BSR set to: 0
  3354                           ;senior_main.c: 370: 
  3355  0013F4  8EA4               	bsf	164,7,c	;volatile
  3356  0013F6                     
  3357                           ; BSR set to: 0
  3358                           ;senior_main.c: 371: 
  3359  0013F6  0E09               	movlw	9
  3360  0013F8  0100               	movlb	0	; () banked
  3361  0013FA  6FD2               	movwf	(??_IRpath1+1)& (0+255),b
  3362  0013FC  0E1E               	movlw	30
  3363  0013FE  6FD1               	movwf	??_IRpath1& (0+255),b
  3364  001400  0EE4               	movlw	228
  3365  001402                     u5587:
  3366  001402  2EE8               	decfsz	wreg,f,c
  3367  001404  D7FE               	bra	u5587
  3368  001406  2FD1               	decfsz	??_IRpath1& (0+255),f,b
  3369  001408  D7FC               	bra	u5587
  3370  00140A  2FD2               	decfsz	(??_IRpath1+1)& (0+255),f,b
  3371  00140C  D7FA               	bra	u5587
  3372  00140E  F000               	nop	
  3373  001410                     
  3374                           ;senior_main.c: 372: 
  3375  001410  9EA4               	bcf	164,7,c	;volatile
  3376  001412                     
  3377                           ;senior_main.c: 373:             PWM3DCH = 0x12;
  3378  001412  0E00               	movlw	0
  3379  001414  0100               	movlb	0	; () banked
  3380  001416  6FDE               	movwf	(IRpath1@turncheck+1)& (0+255),b
  3381  001418  0E01               	movlw	1
  3382  00141A  6FDD               	movwf	IRpath1@turncheck& (0+255),b
  3383  00141C                     
  3384                           ; BSR set to: 0
  3385                           ;senior_main.c: 374:             PWM3DCL = 0xC0;
  3386  00141C  EC80  F00D         	call	_lcdprint	;wreg free
  3387  001420                     l4561:
  3388                           
  3389                           ;senior_main.c: 376:             PWM3CONbits.PWM3EN = 1;
  3390  001420  ECAC  F019         	call	_ultra_dist	;wreg free
  3391  001424  C060  F0D5         	movff	?_ultra_dist,IRpath1@distcr
  3392  001428  C061  F0D6         	movff	?_ultra_dist+1,IRpath1@distcr+1
  3393  00142C                     
  3394                           ;senior_main.c: 378:             int dist1 = ultra_dist();
  3395  00142C  0100               	movlb	0	; () banked
  3396  00142E  BFD6               	btfsc	(IRpath1@distcr+1)& (0+255),7,b
  3397  001430  EF23  F00A         	goto	u4521
  3398  001434  51D6               	movf	(IRpath1@distcr+1)& (0+255),w,b
  3399  001436  E109               	bnz	u4520
  3400  001438  0E1A               	movlw	26
  3401  00143A  5DD5               	subwf	IRpath1@distcr& (0+255),w,b
  3402  00143C  A0D8               	btfss	status,0,c
  3403  00143E  EF23  F00A         	goto	u4521
  3404  001442  EF25  F00A         	goto	u4520
  3405  001446                     u4521:
  3406  001446  EF2D  F00A         	goto	l4567
  3407  00144A                     u4520:
  3408  00144A                     
  3409                           ; BSR set to: 0
  3410  00144A  0E00               	movlw	0
  3411  00144C  6F61               	movwf	(forward@gostop+1)& (0+255),b
  3412  00144E  0E01               	movlw	1
  3413  001450  6F60               	movwf	forward@gostop& (0+255),b
  3414  001452  ECDB  F019         	call	_forward	;wreg free
  3415                           
  3416                           ;senior_main.c: 380:             PWM3CONbits.PWM3EN = 0;
  3417  001456  EFA8  F00B         	goto	l4699
  3418  00145A                     l4567:
  3419                           
  3420                           ; BSR set to: 0
  3421  00145A  0E00               	movlw	0
  3422  00145C  6F61               	movwf	(forward@gostop+1)& (0+255),b
  3423  00145E  0E00               	movlw	0
  3424  001460  6F60               	movwf	forward@gostop& (0+255),b
  3425  001462  ECDB  F019         	call	_forward	;wreg free
  3426  001466                     
  3427                           ;senior_main.c: 383: 
  3428  001466  EC80  F00D         	call	_lcdprint	;wreg free
  3429  00146A                     
  3430                           ;senior_main.c: 384: 
  3431  00146A  010F               	movlb	15	; () banked
  3432  00146C  990E               	bcf	14,4,b	;volatile
  3433  00146E                     
  3434                           ; BSR set to: 15
  3435                           ;senior_main.c: 385:             PWM3DCH = 0x04;
  3436  00146E  930E               	bcf	14,1,b	;volatile
  3437  001470                     
  3438                           ; BSR set to: 15
  3439                           ;senior_main.c: 386:             PWM3DCL = 0x10;
  3440  001470  910E               	bcf	14,0,b	;volatile
  3441  001472                     
  3442                           ; BSR set to: 15
  3443                           ;senior_main.c: 387:             T2TMR = 0x00;
  3444  001472  9B0E               	bcf	14,5,b	;volatile
  3445  001474                     
  3446                           ; BSR set to: 15
  3447                           ;senior_main.c: 389:             _delay((unsigned long)((500)*(8000000/4000.0)));
  3448  001474  868D               	bsf	141,3,c	;volatile
  3449  001476                     
  3450                           ; BSR set to: 15
  3451                           ;senior_main.c: 391:             _delay((unsigned long)((100)*(8000000/4000.0)));
  3452  001476  8A8F               	bsf	143,5,c	;volatile
  3453  001478                     
  3454                           ; BSR set to: 15
  3455                           ;senior_main.c: 392:             PWM3CONbits.PWM3EN = 0;
  3456  001478  0E00               	movlw	0
  3457  00147A  0100               	movlb	0	; () banked
  3458  00147C  6FD8               	movwf	(IRpath1@i+1)& (0+255),b
  3459  00147E  0E00               	movlw	0
  3460  001480  6FD7               	movwf	IRpath1@i& (0+255),b
  3461  001482                     l258:
  3462                           
  3463                           ; BSR set to: 0
  3464                           ;senior_main.c: 394: 
  3465  001482  8A85               	bsf	133,5,c	;volatile
  3466  001484                     
  3467                           ; BSR set to: 0
  3468                           ;senior_main.c: 395: 
  3469  001484  0EA6               	movlw	166
  3470  001486                     u5597:
  3471  001486  2EE8               	decfsz	wreg,f,c
  3472  001488  D7FE               	bra	u5597
  3473  00148A  D000               	nop2	
  3474  00148C                     
  3475                           ;senior_main.c: 396:             PWM3DCH = 0x0B;
  3476  00148C  9A85               	bcf	133,5,c	;volatile
  3477                           
  3478                           ;senior_main.c: 397:             PWM3DCL = 0xC0;
  3479  00148E  0EA6               	movlw	166
  3480  001490                     u5607:
  3481  001490  2EE8               	decfsz	wreg,f,c
  3482  001492  D7FE               	bra	u5607
  3483  001494  D000               	nop2	
  3484  001496                     
  3485                           ;senior_main.c: 398:             T2TMR = 0x00;
  3486  001496  0100               	movlb	0	; () banked
  3487  001498  4BD7               	infsnz	IRpath1@i& (0+255),f,b
  3488  00149A  2BD8               	incf	(IRpath1@i+1)& (0+255),f,b
  3489  00149C  BFD8               	btfsc	(IRpath1@i+1)& (0+255),7,b
  3490  00149E  EF5A  F00A         	goto	u4531
  3491  0014A2  51D8               	movf	(IRpath1@i+1)& (0+255),w,b
  3492  0014A4  E109               	bnz	u4530
  3493  0014A6  0EC8               	movlw	200
  3494  0014A8  5DD7               	subwf	IRpath1@i& (0+255),w,b
  3495  0014AA  A0D8               	btfss	status,0,c
  3496  0014AC  EF5A  F00A         	goto	u4531
  3497  0014B0  EF5C  F00A         	goto	u4530
  3498  0014B4                     u4531:
  3499  0014B4  EF41  F00A         	goto	l258
  3500  0014B8                     u4530:
  3501  0014B8                     
  3502                           ; BSR set to: 0
  3503                           ;senior_main.c: 399:             PWM3CONbits.PWM3EN = 1;
  3504  0014B8  9A8F               	bcf	143,5,c	;volatile
  3505  0014BA                     
  3506                           ; BSR set to: 0
  3507                           ;senior_main.c: 403:             PWM3CONbits.PWM3EN = 0;
  3508  0014BA  0E12               	movlw	18
  3509  0014BC  6EA3               	movwf	163,c	;volatile
  3510                           
  3511                           ;senior_main.c: 404:             lcdprint();
  3512  0014BE  0EC0               	movlw	192
  3513  0014C0  6EA2               	movwf	162,c	;volatile
  3514                           
  3515                           ;senior_main.c: 405: 
  3516  0014C2  0E00               	movlw	0
  3517  0014C4  6EBA               	movwf	186,c	;volatile
  3518  0014C6                     
  3519                           ; BSR set to: 0
  3520                           ;senior_main.c: 406:             PORTDbits.RD5 = 1;
  3521  0014C6  8EA4               	bsf	164,7,c	;volatile
  3522  0014C8                     
  3523                           ; BSR set to: 0
  3524                           ;senior_main.c: 407:             for(int i=0; i<200; i++){
  3525  0014C8  0E06               	movlw	6
  3526  0014CA  0100               	movlb	0	; () banked
  3527  0014CC  6FD2               	movwf	(??_IRpath1+1)& (0+255),b
  3528  0014CE  0E13               	movlw	19
  3529  0014D0  6FD1               	movwf	??_IRpath1& (0+255),b
  3530  0014D2  0EAD               	movlw	173
  3531  0014D4                     u5617:
  3532  0014D4  2EE8               	decfsz	wreg,f,c
  3533  0014D6  D7FE               	bra	u5617
  3534  0014D8  2FD1               	decfsz	??_IRpath1& (0+255),f,b
  3535  0014DA  D7FC               	bra	u5617
  3536  0014DC  2FD2               	decfsz	(??_IRpath1+1)& (0+255),f,b
  3537  0014DE  D7FA               	bra	u5617
  3538  0014E0  D000               	nop2	
  3539  0014E2                     
  3540                           ;senior_main.c: 408: 
  3541  0014E2  ECAC  F019         	call	_ultra_dist	;wreg free
  3542  0014E6  C060  F0E1         	movff	?_ultra_dist,IRpath1@dist1
  3543  0014EA  C061  F0E2         	movff	?_ultra_dist+1,IRpath1@dist1+1
  3544  0014EE                     
  3545                           ;senior_main.c: 409:                 LATDbits.LATD5=1;
  3546  0014EE  0E02               	movlw	2
  3547  0014F0  0100               	movlb	0	; () banked
  3548  0014F2  6FD2               	movwf	(??_IRpath1+1)& (0+255),b
  3549  0014F4  0E04               	movlw	4
  3550  0014F6  6FD1               	movwf	??_IRpath1& (0+255),b
  3551  0014F8  0EBA               	movlw	186
  3552  0014FA                     u5627:
  3553  0014FA  2EE8               	decfsz	wreg,f,c
  3554  0014FC  D7FE               	bra	u5627
  3555  0014FE  2FD1               	decfsz	??_IRpath1& (0+255),f,b
  3556  001500  D7FC               	bra	u5627
  3557  001502  2FD2               	decfsz	(??_IRpath1+1)& (0+255),f,b
  3558  001504  D7FA               	bra	u5627
  3559  001506  F000               	nop	
  3560  001508                     
  3561                           ;senior_main.c: 410:                 _delay((unsigned long)((0.25)*(8000000/4000.0)));
  3562  001508  9EA4               	bcf	164,7,c	;volatile
  3563  00150A                     
  3564                           ;senior_main.c: 411:                 LATDbits.LATD5=0;
  3565  00150A  EC80  F00D         	call	_lcdprint	;wreg free
  3566  00150E                     
  3567                           ;senior_main.c: 415: 
  3568  00150E  0E04               	movlw	4
  3569  001510  6EA3               	movwf	163,c	;volatile
  3570  001512                     
  3571                           ;senior_main.c: 416:             if(dist3 <=15){
  3572  001512  0E10               	movlw	16
  3573  001514  6EA2               	movwf	162,c	;volatile
  3574  001516                     
  3575                           ;senior_main.c: 417:                 backward();
  3576  001516  0E00               	movlw	0
  3577  001518  6EBA               	movwf	186,c	;volatile
  3578  00151A                     
  3579                           ;senior_main.c: 418:             }
  3580  00151A  8EA4               	bsf	164,7,c	;volatile
  3581  00151C                     
  3582                           ;senior_main.c: 419:             if(dist2<30 && dist1<30 && dist3<30){
  3583  00151C  0E06               	movlw	6
  3584  00151E  0100               	movlb	0	; () banked
  3585  001520  6FD2               	movwf	(??_IRpath1+1)& (0+255),b
  3586  001522  0E13               	movlw	19
  3587  001524  6FD1               	movwf	??_IRpath1& (0+255),b
  3588  001526  0EAD               	movlw	173
  3589  001528                     u5637:
  3590  001528  2EE8               	decfsz	wreg,f,c
  3591  00152A  D7FE               	bra	u5637
  3592  00152C  2FD1               	decfsz	??_IRpath1& (0+255),f,b
  3593  00152E  D7FC               	bra	u5637
  3594  001530  2FD2               	decfsz	(??_IRpath1+1)& (0+255),f,b
  3595  001532  D7FA               	bra	u5637
  3596  001534  D000               	nop2	
  3597  001536                     
  3598                           ;senior_main.c: 420:                 if(dist1>dist2){
  3599  001536  ECAC  F019         	call	_ultra_dist	;wreg free
  3600  00153A  C060  F0E3         	movff	?_ultra_dist,IRpath1@dist2
  3601  00153E  C061  F0E4         	movff	?_ultra_dist+1,IRpath1@dist2+1
  3602  001542                     
  3603                           ;senior_main.c: 421:                     reverser();
  3604  001542  0E02               	movlw	2
  3605  001544  0100               	movlb	0	; () banked
  3606  001546  6FD2               	movwf	(??_IRpath1+1)& (0+255),b
  3607  001548  0E04               	movlw	4
  3608  00154A  6FD1               	movwf	??_IRpath1& (0+255),b
  3609  00154C  0EBA               	movlw	186
  3610  00154E                     u5647:
  3611  00154E  2EE8               	decfsz	wreg,f,c
  3612  001550  D7FE               	bra	u5647
  3613  001552  2FD1               	decfsz	??_IRpath1& (0+255),f,b
  3614  001554  D7FC               	bra	u5647
  3615  001556  2FD2               	decfsz	(??_IRpath1+1)& (0+255),f,b
  3616  001558  D7FA               	bra	u5647
  3617  00155A  F000               	nop	
  3618  00155C                     
  3619                           ;senior_main.c: 422:                 }
  3620  00155C  9EA4               	bcf	164,7,c	;volatile
  3621                           
  3622                           ;senior_main.c: 423:                 if(dist2>dist1){
  3623  00155E  EC80  F00D         	call	_lcdprint	;wreg free
  3624  001562                     
  3625                           ;senior_main.c: 426:             }
  3626  001562  0E0B               	movlw	11
  3627  001564  6EA3               	movwf	163,c	;volatile
  3628  001566                     
  3629                           ;senior_main.c: 427:             else if(dist1>30 && dist1>=dist3){
  3630  001566  0EC0               	movlw	192
  3631  001568  6EA2               	movwf	162,c	;volatile
  3632  00156A                     
  3633                           ;senior_main.c: 428:                 lturn();
  3634  00156A  0E00               	movlw	0
  3635  00156C  6EBA               	movwf	186,c	;volatile
  3636  00156E                     
  3637                           ;senior_main.c: 429:             }
  3638  00156E  8EA4               	bsf	164,7,c	;volatile
  3639  001570                     
  3640                           ;senior_main.c: 430:             else if(dist2>30 && dist2>dist3){
  3641  001570  0E09               	movlw	9
  3642  001572  0100               	movlb	0	; () banked
  3643  001574  6FD2               	movwf	(??_IRpath1+1)& (0+255),b
  3644  001576  0E1E               	movlw	30
  3645  001578  6FD1               	movwf	??_IRpath1& (0+255),b
  3646  00157A  0EE4               	movlw	228
  3647  00157C                     u5657:
  3648  00157C  2EE8               	decfsz	wreg,f,c
  3649  00157E  D7FE               	bra	u5657
  3650  001580  2FD1               	decfsz	??_IRpath1& (0+255),f,b
  3651  001582  D7FC               	bra	u5657
  3652  001584  2FD2               	decfsz	(??_IRpath1+1)& (0+255),f,b
  3653  001586  D7FA               	bra	u5657
  3654  001588  F000               	nop	
  3655  00158A                     
  3656                           ;senior_main.c: 431:                 rturn();
  3657  00158A  ECAC  F019         	call	_ultra_dist	;wreg free
  3658  00158E  C060  F0DF         	movff	?_ultra_dist,IRpath1@dist3
  3659  001592  C061  F0E0         	movff	?_ultra_dist+1,IRpath1@dist3+1
  3660  001596                     
  3661                           ;senior_main.c: 432:                 check = 1;
  3662  001596  0E02               	movlw	2
  3663  001598  0100               	movlb	0	; () banked
  3664  00159A  6FD2               	movwf	(??_IRpath1+1)& (0+255),b
  3665  00159C  0E04               	movlw	4
  3666  00159E  6FD1               	movwf	??_IRpath1& (0+255),b
  3667  0015A0  0EBA               	movlw	186
  3668  0015A2                     u5667:
  3669  0015A2  2EE8               	decfsz	wreg,f,c
  3670  0015A4  D7FE               	bra	u5667
  3671  0015A6  2FD1               	decfsz	??_IRpath1& (0+255),f,b
  3672  0015A8  D7FC               	bra	u5667
  3673  0015AA  2FD2               	decfsz	(??_IRpath1+1)& (0+255),f,b
  3674  0015AC  D7FA               	bra	u5667
  3675  0015AE  F000               	nop	
  3676  0015B0                     
  3677                           ;senior_main.c: 433:             }
  3678  0015B0  9EA4               	bcf	164,7,c	;volatile
  3679  0015B2                     
  3680                           ;senior_main.c: 434:         IOCBNbits.IOCBN4 = 1;
  3681  0015B2  EC80  F00D         	call	_lcdprint	;wreg free
  3682  0015B6                     
  3683                           ;senior_main.c: 436:         IOCBNbits.IOCBN0 = 1;
  3684  0015B6  8A8F               	bsf	143,5,c	;volatile
  3685  0015B8                     
  3686                           ;senior_main.c: 437:         IOCBNbits.IOCBN5 = 1;
  3687  0015B8  0E00               	movlw	0
  3688  0015BA  0100               	movlb	0	; () banked
  3689  0015BC  6FDA               	movwf	(IRpath1@i_726+1)& (0+255),b
  3690  0015BE  0E00               	movlw	0
  3691  0015C0  6FD9               	movwf	IRpath1@i_726& (0+255),b
  3692  0015C2                     l260:
  3693                           
  3694                           ; BSR set to: 0
  3695                           ;senior_main.c: 439:         }
  3696  0015C2  8A85               	bsf	133,5,c	;volatile
  3697  0015C4                     
  3698                           ; BSR set to: 0
  3699                           ;senior_main.c: 440:     }
  3700  0015C4  0EA6               	movlw	166
  3701  0015C6                     u5677:
  3702  0015C6  2EE8               	decfsz	wreg,f,c
  3703  0015C8  D7FE               	bra	u5677
  3704  0015CA  D000               	nop2	
  3705  0015CC                     
  3706                           ;senior_main.c: 441: }
  3707  0015CC  9A85               	bcf	133,5,c	;volatile
  3708                           
  3709                           ;senior_main.c: 442: 
  3710  0015CE  0EA6               	movlw	166
  3711  0015D0                     u5687:
  3712  0015D0  2EE8               	decfsz	wreg,f,c
  3713  0015D2  D7FE               	bra	u5687
  3714  0015D4  D000               	nop2	
  3715  0015D6                     
  3716                           ;senior_main.c: 443: 
  3717  0015D6  0100               	movlb	0	; () banked
  3718  0015D8  4BD9               	infsnz	IRpath1@i_726& (0+255),f,b
  3719  0015DA  2BDA               	incf	(IRpath1@i_726+1)& (0+255),f,b
  3720  0015DC  BFDA               	btfsc	(IRpath1@i_726+1)& (0+255),7,b
  3721  0015DE  EFFA  F00A         	goto	u4541
  3722  0015E2  51DA               	movf	(IRpath1@i_726+1)& (0+255),w,b
  3723  0015E4  E109               	bnz	u4540
  3724  0015E6  0EC8               	movlw	200
  3725  0015E8  5DD9               	subwf	IRpath1@i_726& (0+255),w,b
  3726  0015EA  A0D8               	btfss	status,0,c
  3727  0015EC  EFFA  F00A         	goto	u4541
  3728  0015F0  EFFC  F00A         	goto	u4540
  3729  0015F4                     u4541:
  3730  0015F4  EFE1  F00A         	goto	l260
  3731  0015F8                     u4540:
  3732  0015F8                     
  3733                           ; BSR set to: 0
  3734                           ;senior_main.c: 444: 
  3735  0015F8  9A8F               	bcf	143,5,c	;volatile
  3736  0015FA                     
  3737                           ; BSR set to: 0
  3738                           ;senior_main.c: 446: void IRpath2(int num){
  3739  0015FA  BFE0               	btfsc	(IRpath1@dist3+1)& (0+255),7,b
  3740  0015FC  EF0B  F00B         	goto	u4550
  3741  001600  51E0               	movf	(IRpath1@dist3+1)& (0+255),w,b
  3742  001602  E107               	bnz	u4551
  3743  001604  0E10               	movlw	16
  3744  001606  5DDF               	subwf	IRpath1@dist3& (0+255),w,b
  3745  001608  B0D8               	btfsc	status,0,c
  3746  00160A  EF09  F00B         	goto	u4551
  3747  00160E  EF0B  F00B         	goto	u4550
  3748  001612                     u4551:
  3749  001612  EF0D  F00B         	goto	l4661
  3750  001616                     u4550:
  3751  001616                     
  3752                           ; BSR set to: 0
  3753                           ;senior_main.c: 447:     if(num==2){
  3754  001616  EC55  F019         	call	_backward	;wreg free
  3755  00161A                     l4661:
  3756                           
  3757                           ;senior_main.c: 449:         PWM3DCL = 0xC0;
  3758  00161A  0100               	movlb	0	; () banked
  3759  00161C  BFE4               	btfsc	(IRpath1@dist2+1)& (0+255),7,b
  3760  00161E  EF1C  F00B         	goto	u4560
  3761  001622  51E4               	movf	(IRpath1@dist2+1)& (0+255),w,b
  3762  001624  E107               	bnz	u4561
  3763  001626  0E1E               	movlw	30
  3764  001628  5DE3               	subwf	IRpath1@dist2& (0+255),w,b
  3765  00162A  B0D8               	btfsc	status,0,c
  3766  00162C  EF1A  F00B         	goto	u4561
  3767  001630  EF1C  F00B         	goto	u4560
  3768  001634                     u4561:
  3769  001634  EF5D  F00B         	goto	l4675
  3770  001638                     u4560:
  3771  001638                     
  3772                           ; BSR set to: 0
  3773  001638  BFE2               	btfsc	(IRpath1@dist1+1)& (0+255),7,b
  3774  00163A  EF2A  F00B         	goto	u4570
  3775  00163E  51E2               	movf	(IRpath1@dist1+1)& (0+255),w,b
  3776  001640  E107               	bnz	u4571
  3777  001642  0E1E               	movlw	30
  3778  001644  5DE1               	subwf	IRpath1@dist1& (0+255),w,b
  3779  001646  B0D8               	btfsc	status,0,c
  3780  001648  EF28  F00B         	goto	u4571
  3781  00164C  EF2A  F00B         	goto	u4570
  3782  001650                     u4571:
  3783  001650  EF5D  F00B         	goto	l4675
  3784  001654                     u4570:
  3785  001654                     
  3786                           ; BSR set to: 0
  3787  001654  BFE0               	btfsc	(IRpath1@dist3+1)& (0+255),7,b
  3788  001656  EF38  F00B         	goto	u4580
  3789  00165A  51E0               	movf	(IRpath1@dist3+1)& (0+255),w,b
  3790  00165C  E107               	bnz	u4581
  3791  00165E  0E1E               	movlw	30
  3792  001660  5DDF               	subwf	IRpath1@dist3& (0+255),w,b
  3793  001662  B0D8               	btfsc	status,0,c
  3794  001664  EF36  F00B         	goto	u4581
  3795  001668  EF38  F00B         	goto	u4580
  3796  00166C                     u4581:
  3797  00166C  EF5D  F00B         	goto	l4675
  3798  001670                     u4580:
  3799  001670                     
  3800                           ; BSR set to: 0
  3801                           ;senior_main.c: 450:         T2TMR = 0x00;
  3802  001670  51E1               	movf	IRpath1@dist1& (0+255),w,b
  3803  001672  5DE3               	subwf	IRpath1@dist2& (0+255),w,b
  3804  001674  51E4               	movf	(IRpath1@dist2+1)& (0+255),w,b
  3805  001676  0A80               	xorlw	128
  3806  001678  6FD1               	movwf	??_IRpath1& (0+255),b
  3807  00167A  51E2               	movf	(IRpath1@dist1+1)& (0+255),w,b
  3808  00167C  0A80               	xorlw	128
  3809  00167E  59D1               	subwfb	??_IRpath1& (0+255),w,b
  3810  001680  B0D8               	btfsc	status,0,c
  3811  001682  EF45  F00B         	goto	u4591
  3812  001686  EF47  F00B         	goto	u4590
  3813  00168A                     u4591:
  3814  00168A  EF49  F00B         	goto	l4671
  3815  00168E                     u4590:
  3816  00168E                     
  3817                           ; BSR set to: 0
  3818                           ;senior_main.c: 451:         PWM3CONbits.PWM3EN = 1;
  3819  00168E  EC7E  F018         	call	_reverser	;wreg free
  3820  001692                     l4671:
  3821                           
  3822                           ;senior_main.c: 453:         PWM3CONbits.PWM3EN = 0;
  3823  001692  0100               	movlb	0	; () banked
  3824  001694  51E3               	movf	IRpath1@dist2& (0+255),w,b
  3825  001696  5DE1               	subwf	IRpath1@dist1& (0+255),w,b
  3826  001698  51E2               	movf	(IRpath1@dist1+1)& (0+255),w,b
  3827  00169A  0A80               	xorlw	128
  3828  00169C  6FD1               	movwf	??_IRpath1& (0+255),b
  3829  00169E  51E4               	movf	(IRpath1@dist2+1)& (0+255),w,b
  3830  0016A0  0A80               	xorlw	128
  3831  0016A2  59D1               	subwfb	??_IRpath1& (0+255),w,b
  3832  0016A4  B0D8               	btfsc	status,0,c
  3833  0016A6  EF57  F00B         	goto	u4601
  3834  0016AA  EF59  F00B         	goto	u4600
  3835  0016AE                     u4601:
  3836  0016AE  EFA2  F00B         	goto	l4689
  3837  0016B2                     u4600:
  3838  0016B2                     
  3839                           ; BSR set to: 0
  3840                           ;senior_main.c: 454:         lcdprint();
  3841  0016B2  ECA4  F018         	call	_reversel	;wreg free
  3842  0016B6  EFA2  F00B         	goto	l4689
  3843  0016BA                     l4675:
  3844                           
  3845                           ; BSR set to: 0
  3846  0016BA  BFE2               	btfsc	(IRpath1@dist1+1)& (0+255),7,b
  3847  0016BC  EF69  F00B         	goto	u4611
  3848  0016C0  51E2               	movf	(IRpath1@dist1+1)& (0+255),w,b
  3849  0016C2  E109               	bnz	u4610
  3850  0016C4  0E1F               	movlw	31
  3851  0016C6  5DE1               	subwf	IRpath1@dist1& (0+255),w,b
  3852  0016C8  A0D8               	btfss	status,0,c
  3853  0016CA  EF69  F00B         	goto	u4611
  3854  0016CE  EF6B  F00B         	goto	u4610
  3855  0016D2                     u4611:
  3856  0016D2  EF7E  F00B         	goto	l4681
  3857  0016D6                     u4610:
  3858  0016D6                     
  3859                           ; BSR set to: 0
  3860  0016D6  51DF               	movf	IRpath1@dist3& (0+255),w,b
  3861  0016D8  5DE1               	subwf	IRpath1@dist1& (0+255),w,b
  3862  0016DA  51E2               	movf	(IRpath1@dist1+1)& (0+255),w,b
  3863  0016DC  0A80               	xorlw	128
  3864  0016DE  6FD1               	movwf	??_IRpath1& (0+255),b
  3865  0016E0  51E0               	movf	(IRpath1@dist3+1)& (0+255),w,b
  3866  0016E2  0A80               	xorlw	128
  3867  0016E4  59D1               	subwfb	??_IRpath1& (0+255),w,b
  3868  0016E6  A0D8               	btfss	status,0,c
  3869  0016E8  EF78  F00B         	goto	u4621
  3870  0016EC  EF7A  F00B         	goto	u4620
  3871  0016F0                     u4621:
  3872  0016F0  EF7E  F00B         	goto	l4681
  3873  0016F4                     u4620:
  3874  0016F4                     
  3875                           ; BSR set to: 0
  3876                           ;senior_main.c: 458:     while(check==1){
  3877  0016F4  ECCA  F018         	call	_lturn	;wreg free
  3878                           
  3879                           ;senior_main.c: 459:         int distlr = ultra_dist();
  3880  0016F8  EFA2  F00B         	goto	l4689
  3881  0016FC                     l4681:
  3882                           
  3883                           ; BSR set to: 0
  3884  0016FC  BFE4               	btfsc	(IRpath1@dist2+1)& (0+255),7,b
  3885  0016FE  EF8A  F00B         	goto	u4631
  3886  001702  51E4               	movf	(IRpath1@dist2+1)& (0+255),w,b
  3887  001704  E109               	bnz	u4630
  3888  001706  0E1F               	movlw	31
  3889  001708  5DE3               	subwf	IRpath1@dist2& (0+255),w,b
  3890  00170A  A0D8               	btfss	status,0,c
  3891  00170C  EF8A  F00B         	goto	u4631
  3892  001710  EF8C  F00B         	goto	u4630
  3893  001714                     u4631:
  3894  001714  EFA2  F00B         	goto	l4689
  3895  001718                     u4630:
  3896  001718                     
  3897                           ; BSR set to: 0
  3898  001718  51E3               	movf	IRpath1@dist2& (0+255),w,b
  3899  00171A  5DDF               	subwf	IRpath1@dist3& (0+255),w,b
  3900  00171C  51E0               	movf	(IRpath1@dist3+1)& (0+255),w,b
  3901  00171E  0A80               	xorlw	128
  3902  001720  6FD1               	movwf	??_IRpath1& (0+255),b
  3903  001722  51E4               	movf	(IRpath1@dist2+1)& (0+255),w,b
  3904  001724  0A80               	xorlw	128
  3905  001726  59D1               	subwfb	??_IRpath1& (0+255),w,b
  3906  001728  B0D8               	btfsc	status,0,c
  3907  00172A  EF99  F00B         	goto	u4641
  3908  00172E  EF9B  F00B         	goto	u4640
  3909  001732                     u4641:
  3910  001732  EFA2  F00B         	goto	l4689
  3911  001736                     u4640:
  3912  001736                     
  3913                           ; BSR set to: 0
  3914                           ;senior_main.c: 461:         if(distlr < 60){
  3915  001736  EC58  F018         	call	_rturn	;wreg free
  3916  00173A                     
  3917                           ;senior_main.c: 462:             forward(go);
  3918  00173A  0E00               	movlw	0
  3919  00173C  0100               	movlb	0	; () banked
  3920  00173E  6FDC               	movwf	(IRpath1@check+1)& (0+255),b
  3921  001740  0E01               	movlw	1
  3922  001742  6FDB               	movwf	IRpath1@check& (0+255),b
  3923  001744                     l4689:
  3924                           
  3925                           ;senior_main.c: 464:         else{
  3926  001744  010F               	movlb	15	; () banked
  3927  001746  890E               	bsf	14,4,b	;volatile
  3928  001748                     
  3929                           ; BSR set to: 15
  3930                           ;senior_main.c: 465:             _delay((unsigned long)((200)*(8000000/4000.0)));
  3931  001748  830E               	bsf	14,1,b	;volatile
  3932  00174A                     
  3933                           ; BSR set to: 15
  3934                           ;senior_main.c: 466:             forward(stop);
  3935  00174A  810E               	bsf	14,0,b	;volatile
  3936  00174C                     
  3937                           ; BSR set to: 15
  3938                           ;senior_main.c: 467:             lcdprint();
  3939  00174C  8B0E               	bsf	14,5,b	;volatile
  3940  00174E                     
  3941                           ; BSR set to: 15
  3942                           ;senior_main.c: 468:             lturn();
  3943  00174E  968D               	bcf	141,3,c	;volatile
  3944  001750                     l4699:
  3945                           
  3946                           ;senior_main.c: 364:                 LATDbits.LATD5=1;
  3947  001750  0100               	movlb	0	; () banked
  3948  001752  51DB               	movf	IRpath1@check& (0+255),w,b
  3949  001754  11DC               	iorwf	(IRpath1@check+1)& (0+255),w,b
  3950  001756  B4D8               	btfsc	status,2,c
  3951  001758  EFB0  F00B         	goto	u4651
  3952  00175C  EFB2  F00B         	goto	u4650
  3953  001760                     u4651:
  3954  001760  EFEB  F009         	goto	l4547
  3955  001764                     u4650:
  3956  001764                     
  3957                           ; BSR set to: 0
  3958  001764  0012               	return		;funcret
  3959  001766                     __end_of_IRpath1:
  3960                           	opt callstack 0
  3961                           
  3962 ;; *************** function _ultra_dist *****************
  3963 ;; Defined at:
  3964 ;;		line 65 in file "senior_main.c"
  3965 ;; Parameters:    Size  Location     Type
  3966 ;;		None
  3967 ;; Auto vars:     Size  Location     Type
  3968 ;;		None
  3969 ;; Return value:  Size  Location     Type
  3970 ;;                  2    0[BANK0 ] int 
  3971 ;; Registers used:
  3972 ;;		wreg, status,2
  3973 ;; Tracked objects:
  3974 ;;		On entry : 0/0
  3975 ;;		On exit  : 0/0
  3976 ;;		Unchanged: 0/0
  3977 ;; Data sizes:     COMRAM   BANK0   BANK1   BANK2   BANK3   BANK4   BANK5   BANK6   BANK7
  3978 ;;      Params:         0       2       0       0       0       0       0       0       0
  3979 ;;      Locals:         0       0       0       0       0       0       0       0       0
  3980 ;;      Temps:          0       1       0       0       0       0       0       0       0
  3981 ;;      Totals:         0       3       0       0       0       0       0       0       0
  3982 ;;Total ram usage:        3 bytes
  3983 ;; Hardware stack levels used:    1
  3984 ;; Hardware stack levels required when called:    3
  3985 ;; This function calls:
  3986 ;;		Nothing
  3987 ;; This function is called by:
  3988 ;;		_IRpath1
  3989 ;;		_main
  3990 ;;		_IRpath2
  3991 ;; This function uses a non-reentrant model
  3992 ;;
  3993                           
  3994                           	psect	text13
  3995  003358                     __ptext13:
  3996                           	opt callstack 0
  3997  003358                     _ultra_dist:
  3998                           	opt callstack 27
  3999  003358                     
  4000                           ;senior_main.c: 67: }
  4001  003358  0E00               	movlw	0
  4002  00335A  6ECD               	movwf	205,c	;volatile
  4003  00335C  0E00               	movlw	0
  4004  00335E  6ECC               	movwf	204,c	;volatile
  4005  003360                     
  4006                           ;senior_main.c: 69: 
  4007  003360  8C8F               	bsf	3983,6,c	;volatile
  4008  003362                     
  4009                           ;senior_main.c: 70: 
  4010  003362  0E06               	movlw	6
  4011  003364                     u5697:
  4012  003364  2EE8               	decfsz	wreg,f,c
  4013  003366  D7FE               	bra	u5697
  4014  003368  D000               	nop2	
  4015  00336A                     
  4016                           ;senior_main.c: 71: 
  4017  00336A  9C8F               	bcf	3983,6,c	;volatile
  4018  00336C                     
  4019                           ;senior_main.c: 72: void IRL(){
  4020  00336C  0E06               	movlw	6
  4021  00336E  0100               	movlb	0	; () banked
  4022  003370  6F62               	movwf	??_ultra_dist& (0+255),b
  4023  003372  0E30               	movlw	48
  4024  003374                     u5707:
  4025  003374  2EE8               	decfsz	wreg,f,c
  4026  003376  D7FE               	bra	u5707
  4027  003378  2F62               	decfsz	??_ultra_dist& (0+255),f,b
  4028  00337A  D7FC               	bra	u5707
  4029  00337C  F000               	nop	
  4030  00337E                     
  4031                           ;senior_main.c: 74: 
  4032  00337E  C0EF  F060         	movff	_distance,?_ultra_dist
  4033  003382  C0F0  F061         	movff	_distance+1,?_ultra_dist+1
  4034  003386  0012               	return		;funcret
  4035  003388                     __end_of_ultra_dist:
  4036                           	opt callstack 0
  4037                           
  4038 ;; *************** function _rturn *****************
  4039 ;; Defined at:
  4040 ;;		line 39 in file "movement.c"
  4041 ;; Parameters:    Size  Location     Type
  4042 ;;		None
  4043 ;; Auto vars:     Size  Location     Type
  4044 ;;		None
  4045 ;; Return value:  Size  Location     Type
  4046 ;;                  1    wreg      void 
  4047 ;; Registers used:
  4048 ;;		wreg, status,2
  4049 ;; Tracked objects:
  4050 ;;		On entry : 0/0
  4051 ;;		On exit  : 0/0
  4052 ;;		Unchanged: 0/0
  4053 ;; Data sizes:     COMRAM   BANK0   BANK1   BANK2   BANK3   BANK4   BANK5   BANK6   BANK7
  4054 ;;      Params:         0       0       0       0       0       0       0       0       0
  4055 ;;      Locals:         0       0       0       0       0       0       0       0       0
  4056 ;;      Temps:          0       2       0       0       0       0       0       0       0
  4057 ;;      Totals:         0       2       0       0       0       0       0       0       0
  4058 ;;Total ram usage:        2 bytes
  4059 ;; Hardware stack levels used:    1
  4060 ;; Hardware stack levels required when called:    3
  4061 ;; This function calls:
  4062 ;;		Nothing
  4063 ;; This function is called by:
  4064 ;;		_IRpath1
  4065 ;;		_main
  4066 ;;		_IRpath2
  4067 ;; This function uses a non-reentrant model
  4068 ;;
  4069                           
  4070                           	psect	text14
  4071  0030B0                     __ptext14:
  4072                           	opt callstack 0
  4073  0030B0                     _rturn:
  4074                           	opt callstack 27
  4075  0030B0                     
  4076                           ;movement.c: 41:     CCPR1H = 0x00;
  4077  0030B0  0E00               	movlw	0
  4078  0030B2  6EAA               	movwf	170,c	;volatile
  4079                           
  4080                           ;movement.c: 42:     CCPR1L = 0xF0;
  4081  0030B4  0EF0               	movlw	240
  4082  0030B6  6EA9               	movwf	169,c	;volatile
  4083                           
  4084                           ;movement.c: 43:     CCPR2H = 0x00;
  4085  0030B8  0E00               	movlw	0
  4086  0030BA  6EA6               	movwf	166,c	;volatile
  4087                           
  4088                           ;movement.c: 44:     CCPR2L = 0xF0;
  4089  0030BC  0EF0               	movlw	240
  4090  0030BE  6EA5               	movwf	165,c	;volatile
  4091  0030C0  848E               	bsf	3982,2,c	;volatile
  4092  0030C2  9090               	bcf	3984,0,c	;volatile
  4093  0030C4  928E               	bcf	3982,1,c	;volatile
  4094  0030C6  808E               	bsf	3982,0,c	;volatile
  4095  0030C8                     
  4096                           ;movement.c: 49:     _delay((unsigned long)((110)*(8000000/4000.0)));
  4097  0030C8  0E02               	movlw	2
  4098  0030CA  0100               	movlb	0	; () banked
  4099  0030CC  6F61               	movwf	(??_rturn+1)& (0+255),b
  4100  0030CE  0E1E               	movlw	30
  4101  0030D0  6F60               	movwf	??_rturn& (0+255),b
  4102  0030D2  0EB3               	movlw	179
  4103  0030D4                     u5717:
  4104  0030D4  2EE8               	decfsz	wreg,f,c
  4105  0030D6  D7FE               	bra	u5717
  4106  0030D8  2F60               	decfsz	??_rturn& (0+255),f,b
  4107  0030DA  D7FC               	bra	u5717
  4108  0030DC  2F61               	decfsz	(??_rturn+1)& (0+255),f,b
  4109  0030DE  D7FA               	bra	u5717
  4110  0030E0  D000               	nop2	
  4111  0030E2  948E               	bcf	3982,2,c	;volatile
  4112  0030E4  9090               	bcf	3984,0,c	;volatile
  4113  0030E6  928E               	bcf	3982,1,c	;volatile
  4114  0030E8  908E               	bcf	3982,0,c	;volatile
  4115  0030EA                     
  4116                           ;movement.c: 54:     CCPR1H = 0x00;
  4117  0030EA  0E00               	movlw	0
  4118  0030EC  6EAA               	movwf	170,c	;volatile
  4119  0030EE                     
  4120                           ;movement.c: 55:     CCPR1L = 0x50;
  4121  0030EE  0E50               	movlw	80
  4122  0030F0  6EA9               	movwf	169,c	;volatile
  4123  0030F2                     
  4124                           ;movement.c: 56:     CCPR2H = 0x00;
  4125  0030F2  0E00               	movlw	0
  4126  0030F4  6EA6               	movwf	166,c	;volatile
  4127  0030F6                     
  4128                           ;movement.c: 57:     CCPR2L = 0x50;
  4129  0030F6  0E50               	movlw	80
  4130  0030F8  6EA5               	movwf	165,c	;volatile
  4131  0030FA  0012               	return		;funcret
  4132  0030FC                     __end_of_rturn:
  4133                           	opt callstack 0
  4134                           
  4135 ;; *************** function _reverser *****************
  4136 ;; Defined at:
  4137 ;;		line 110 in file "movement.c"
  4138 ;; Parameters:    Size  Location     Type
  4139 ;;		None
  4140 ;; Auto vars:     Size  Location     Type
  4141 ;;		None
  4142 ;; Return value:  Size  Location     Type
  4143 ;;                  1    wreg      void 
  4144 ;; Registers used:
  4145 ;;		wreg, status,2
  4146 ;; Tracked objects:
  4147 ;;		On entry : 0/0
  4148 ;;		On exit  : 0/0
  4149 ;;		Unchanged: 0/0
  4150 ;; Data sizes:     COMRAM   BANK0   BANK1   BANK2   BANK3   BANK4   BANK5   BANK6   BANK7
  4151 ;;      Params:         0       0       0       0       0       0       0       0       0
  4152 ;;      Locals:         0       0       0       0       0       0       0       0       0
  4153 ;;      Temps:          0       2       0       0       0       0       0       0       0
  4154 ;;      Totals:         0       2       0       0       0       0       0       0       0
  4155 ;;Total ram usage:        2 bytes
  4156 ;; Hardware stack levels used:    1
  4157 ;; Hardware stack levels required when called:    3
  4158 ;; This function calls:
  4159 ;;		Nothing
  4160 ;; This function is called by:
  4161 ;;		_IRpath1
  4162 ;;		_main
  4163 ;;		_IRpath2
  4164 ;; This function uses a non-reentrant model
  4165 ;;
  4166                           
  4167                           	psect	text15
  4168  0030FC                     __ptext15:
  4169                           	opt callstack 0
  4170  0030FC                     _reverser:
  4171                           	opt callstack 27
  4172  0030FC                     
  4173                           ;movement.c: 111:     CCPR1H = 0x00;
  4174  0030FC  0E00               	movlw	0
  4175  0030FE  6EAA               	movwf	170,c	;volatile
  4176                           
  4177                           ;movement.c: 112:     CCPR1L = 0xF0;
  4178  003100  0EF0               	movlw	240
  4179  003102  6EA9               	movwf	169,c	;volatile
  4180                           
  4181                           ;movement.c: 113:     CCPR2H = 0x00;
  4182  003104  0E00               	movlw	0
  4183  003106  6EA6               	movwf	166,c	;volatile
  4184                           
  4185                           ;movement.c: 114:     CCPR2L = 0xF0;
  4186  003108  0EF0               	movlw	240
  4187  00310A  6EA5               	movwf	165,c	;volatile
  4188  00310C  848E               	bsf	3982,2,c	;volatile
  4189  00310E  9090               	bcf	3984,0,c	;volatile
  4190  003110  928E               	bcf	3982,1,c	;volatile
  4191  003112  808E               	bsf	3982,0,c	;volatile
  4192  003114                     
  4193                           ;movement.c: 119:     _delay((unsigned long)((225)*(8000000/4000.0)));
  4194  003114  0E03               	movlw	3
  4195  003116  0100               	movlb	0	; () banked
  4196  003118  6F61               	movwf	(??_reverser+1)& (0+255),b
  4197  00311A  0E49               	movlw	73
  4198  00311C  6F60               	movwf	??_reverser& (0+255),b
  4199  00311E  0E66               	movlw	102
  4200  003120                     u5727:
  4201  003120  2EE8               	decfsz	wreg,f,c
  4202  003122  D7FE               	bra	u5727
  4203  003124  2F60               	decfsz	??_reverser& (0+255),f,b
  4204  003126  D7FC               	bra	u5727
  4205  003128  2F61               	decfsz	(??_reverser+1)& (0+255),f,b
  4206  00312A  D7FA               	bra	u5727
  4207  00312C  F000               	nop	
  4208  00312E  948E               	bcf	3982,2,c	;volatile
  4209  003130  9090               	bcf	3984,0,c	;volatile
  4210  003132  928E               	bcf	3982,1,c	;volatile
  4211  003134  908E               	bcf	3982,0,c	;volatile
  4212  003136                     
  4213                           ;movement.c: 124:     CCPR1H = 0x00;
  4214  003136  0E00               	movlw	0
  4215  003138  6EAA               	movwf	170,c	;volatile
  4216  00313A                     
  4217                           ;movement.c: 125:     CCPR1L = 0x50;
  4218  00313A  0E50               	movlw	80
  4219  00313C  6EA9               	movwf	169,c	;volatile
  4220  00313E                     
  4221                           ;movement.c: 126:     CCPR2H = 0x00;
  4222  00313E  0E00               	movlw	0
  4223  003140  6EA6               	movwf	166,c	;volatile
  4224  003142                     
  4225                           ;movement.c: 127:     CCPR2L = 0x50;
  4226  003142  0E50               	movlw	80
  4227  003144  6EA5               	movwf	165,c	;volatile
  4228  003146  0012               	return		;funcret
  4229  003148                     __end_of_reverser:
  4230                           	opt callstack 0
  4231                           
  4232 ;; *************** function _reversel *****************
  4233 ;; Defined at:
  4234 ;;		line 87 in file "movement.c"
  4235 ;; Parameters:    Size  Location     Type
  4236 ;;		None
  4237 ;; Auto vars:     Size  Location     Type
  4238 ;;		None
  4239 ;; Return value:  Size  Location     Type
  4240 ;;                  1    wreg      void 
  4241 ;; Registers used:
  4242 ;;		wreg, status,2
  4243 ;; Tracked objects:
  4244 ;;		On entry : 0/0
  4245 ;;		On exit  : 0/0
  4246 ;;		Unchanged: 0/0
  4247 ;; Data sizes:     COMRAM   BANK0   BANK1   BANK2   BANK3   BANK4   BANK5   BANK6   BANK7
  4248 ;;      Params:         0       0       0       0       0       0       0       0       0
  4249 ;;      Locals:         0       0       0       0       0       0       0       0       0
  4250 ;;      Temps:          0       2       0       0       0       0       0       0       0
  4251 ;;      Totals:         0       2       0       0       0       0       0       0       0
  4252 ;;Total ram usage:        2 bytes
  4253 ;; Hardware stack levels used:    1
  4254 ;; Hardware stack levels required when called:    3
  4255 ;; This function calls:
  4256 ;;		Nothing
  4257 ;; This function is called by:
  4258 ;;		_IRpath1
  4259 ;;		_main
  4260 ;;		_IRpath2
  4261 ;; This function uses a non-reentrant model
  4262 ;;
  4263                           
  4264                           	psect	text16
  4265  003148                     __ptext16:
  4266                           	opt callstack 0
  4267  003148                     _reversel:
  4268                           	opt callstack 27
  4269  003148                     
  4270                           ;movement.c: 88:     CCPR1H = 0x00;
  4271  003148  0E00               	movlw	0
  4272  00314A  6EAA               	movwf	170,c	;volatile
  4273                           
  4274                           ;movement.c: 89:     CCPR1L = 0xF0;
  4275  00314C  0EF0               	movlw	240
  4276  00314E  6EA9               	movwf	169,c	;volatile
  4277                           
  4278                           ;movement.c: 90:     CCPR2H = 0x00;
  4279  003150  0E00               	movlw	0
  4280  003152  6EA6               	movwf	166,c	;volatile
  4281                           
  4282                           ;movement.c: 91:     CCPR2L = 0xF0;
  4283  003154  0EF0               	movlw	240
  4284  003156  6EA5               	movwf	165,c	;volatile
  4285  003158  948E               	bcf	3982,2,c	;volatile
  4286  00315A  8090               	bsf	3984,0,c	;volatile
  4287  00315C  828E               	bsf	3982,1,c	;volatile
  4288  00315E  908E               	bcf	3982,0,c	;volatile
  4289  003160                     
  4290                           ;movement.c: 96:     _delay((unsigned long)((225)*(8000000/4000.0)));
  4291  003160  0E03               	movlw	3
  4292  003162  0100               	movlb	0	; () banked
  4293  003164  6F61               	movwf	(??_reversel+1)& (0+255),b
  4294  003166  0E49               	movlw	73
  4295  003168  6F60               	movwf	??_reversel& (0+255),b
  4296  00316A  0E66               	movlw	102
  4297  00316C                     u5737:
  4298  00316C  2EE8               	decfsz	wreg,f,c
  4299  00316E  D7FE               	bra	u5737
  4300  003170  2F60               	decfsz	??_reversel& (0+255),f,b
  4301  003172  D7FC               	bra	u5737
  4302  003174  2F61               	decfsz	(??_reversel+1)& (0+255),f,b
  4303  003176  D7FA               	bra	u5737
  4304  003178  F000               	nop	
  4305  00317A  948E               	bcf	3982,2,c	;volatile
  4306  00317C  9090               	bcf	3984,0,c	;volatile
  4307  00317E  928E               	bcf	3982,1,c	;volatile
  4308  003180  908E               	bcf	3982,0,c	;volatile
  4309  003182                     
  4310                           ;movement.c: 101:     CCPR1H = 0x00;
  4311  003182  0E00               	movlw	0
  4312  003184  6EAA               	movwf	170,c	;volatile
  4313  003186                     
  4314                           ;movement.c: 102:     CCPR1L = 0x50;
  4315  003186  0E50               	movlw	80
  4316  003188  6EA9               	movwf	169,c	;volatile
  4317  00318A                     
  4318                           ;movement.c: 103:     CCPR2H = 0x00;
  4319  00318A  0E00               	movlw	0
  4320  00318C  6EA6               	movwf	166,c	;volatile
  4321  00318E                     
  4322                           ;movement.c: 104:     CCPR2L = 0x50;
  4323  00318E  0E50               	movlw	80
  4324  003190  6EA5               	movwf	165,c	;volatile
  4325  003192  0012               	return		;funcret
  4326  003194                     __end_of_reversel:
  4327                           	opt callstack 0
  4328                           
  4329 ;; *************** function _lturn *****************
  4330 ;; Defined at:
  4331 ;;		line 63 in file "movement.c"
  4332 ;; Parameters:    Size  Location     Type
  4333 ;;		None
  4334 ;; Auto vars:     Size  Location     Type
  4335 ;;		None
  4336 ;; Return value:  Size  Location     Type
  4337 ;;                  1    wreg      void 
  4338 ;; Registers used:
  4339 ;;		wreg, status,2
  4340 ;; Tracked objects:
  4341 ;;		On entry : 0/0
  4342 ;;		On exit  : 0/0
  4343 ;;		Unchanged: 0/0
  4344 ;; Data sizes:     COMRAM   BANK0   BANK1   BANK2   BANK3   BANK4   BANK5   BANK6   BANK7
  4345 ;;      Params:         0       0       0       0       0       0       0       0       0
  4346 ;;      Locals:         0       0       0       0       0       0       0       0       0
  4347 ;;      Temps:          0       2       0       0       0       0       0       0       0
  4348 ;;      Totals:         0       2       0       0       0       0       0       0       0
  4349 ;;Total ram usage:        2 bytes
  4350 ;; Hardware stack levels used:    1
  4351 ;; Hardware stack levels required when called:    3
  4352 ;; This function calls:
  4353 ;;		Nothing
  4354 ;; This function is called by:
  4355 ;;		_IRpath1
  4356 ;;		_main
  4357 ;;		_IRpath2
  4358 ;; This function uses a non-reentrant model
  4359 ;;
  4360                           
  4361                           	psect	text17
  4362  003194                     __ptext17:
  4363                           	opt callstack 0
  4364  003194                     _lturn:
  4365                           	opt callstack 27
  4366  003194                     
  4367                           ;movement.c: 65:     CCPR1H = 0x00;
  4368  003194  0E00               	movlw	0
  4369  003196  6EAA               	movwf	170,c	;volatile
  4370                           
  4371                           ;movement.c: 66:     CCPR1L = 0xF0;
  4372  003198  0EF0               	movlw	240
  4373  00319A  6EA9               	movwf	169,c	;volatile
  4374                           
  4375                           ;movement.c: 67:     CCPR2H = 0x00;
  4376  00319C  0E00               	movlw	0
  4377  00319E  6EA6               	movwf	166,c	;volatile
  4378                           
  4379                           ;movement.c: 68:     CCPR2L = 0xF0;
  4380  0031A0  0EF0               	movlw	240
  4381  0031A2  6EA5               	movwf	165,c	;volatile
  4382  0031A4  948E               	bcf	3982,2,c	;volatile
  4383  0031A6  8090               	bsf	3984,0,c	;volatile
  4384  0031A8  828E               	bsf	3982,1,c	;volatile
  4385  0031AA  908E               	bcf	3982,0,c	;volatile
  4386  0031AC                     
  4387                           ;movement.c: 73:     _delay((unsigned long)((110)*(8000000/4000.0)));
  4388  0031AC  0E02               	movlw	2
  4389  0031AE  0100               	movlb	0	; () banked
  4390  0031B0  6F61               	movwf	(??_lturn+1)& (0+255),b
  4391  0031B2  0E1E               	movlw	30
  4392  0031B4  6F60               	movwf	??_lturn& (0+255),b
  4393  0031B6  0EB3               	movlw	179
  4394  0031B8                     u5747:
  4395  0031B8  2EE8               	decfsz	wreg,f,c
  4396  0031BA  D7FE               	bra	u5747
  4397  0031BC  2F60               	decfsz	??_lturn& (0+255),f,b
  4398  0031BE  D7FC               	bra	u5747
  4399  0031C0  2F61               	decfsz	(??_lturn+1)& (0+255),f,b
  4400  0031C2  D7FA               	bra	u5747
  4401  0031C4  D000               	nop2	
  4402  0031C6  948E               	bcf	3982,2,c	;volatile
  4403  0031C8  9090               	bcf	3984,0,c	;volatile
  4404  0031CA  928E               	bcf	3982,1,c	;volatile
  4405  0031CC  908E               	bcf	3982,0,c	;volatile
  4406  0031CE                     
  4407                           ;movement.c: 78:     CCPR1H = 0x00;
  4408  0031CE  0E00               	movlw	0
  4409  0031D0  6EAA               	movwf	170,c	;volatile
  4410  0031D2                     
  4411                           ;movement.c: 79:     CCPR1L = 0x50;
  4412  0031D2  0E50               	movlw	80
  4413  0031D4  6EA9               	movwf	169,c	;volatile
  4414  0031D6                     
  4415                           ;movement.c: 80:     CCPR2H = 0x00;
  4416  0031D6  0E00               	movlw	0
  4417  0031D8  6EA6               	movwf	166,c	;volatile
  4418  0031DA                     
  4419                           ;movement.c: 81:     CCPR2L = 0x50;
  4420  0031DA  0E50               	movlw	80
  4421  0031DC  6EA5               	movwf	165,c	;volatile
  4422  0031DE  0012               	return		;funcret
  4423  0031E0                     __end_of_lturn:
  4424                           	opt callstack 0
  4425                           
  4426 ;; *************** function _lcdprint *****************
  4427 ;; Defined at:
  4428 ;;		line 262 in file "senior_main.c"
  4429 ;; Parameters:    Size  Location     Type
  4430 ;;		None
  4431 ;; Auto vars:     Size  Location     Type
  4432 ;;  i               2  105[BANK0 ] int 
  4433 ;;  array           2  108[BANK0 ] unsigned char [2]
  4434 ;;  temp1           1  112[BANK0 ] unsigned char 
  4435 ;;  d               1  111[BANK0 ] unsigned char [1]
  4436 ;;  temp2           1  110[BANK0 ] unsigned char 
  4437 ;;  dd              1  107[BANK0 ] unsigned char 
  4438 ;;  d3              1  104[BANK0 ] unsigned char 
  4439 ;;  d2              1  103[BANK0 ] unsigned char 
  4440 ;;  d1              1  102[BANK0 ] unsigned char 
  4441 ;; Return value:  Size  Location     Type
  4442 ;;                  1    wreg      void 
  4443 ;; Registers used:
  4444 ;;		wreg, fsr1l, fsr1h, fsr2l, fsr2h, status,2, status,0, tblptrl, tblptrh, tblptru, prodl, prodh, cstack
  4445 ;; Tracked objects:
  4446 ;;		On entry : 0/0
  4447 ;;		On exit  : 0/0
  4448 ;;		Unchanged: 0/0
  4449 ;; Data sizes:     COMRAM   BANK0   BANK1   BANK2   BANK3   BANK4   BANK5   BANK6   BANK7
  4450 ;;      Params:         0       0       0       0       0       0       0       0       0
  4451 ;;      Locals:         0      11       0       0       0       0       0       0       0
  4452 ;;      Temps:          0       1       0       0       0       0       0       0       0
  4453 ;;      Totals:         0      12       0       0       0       0       0       0       0
  4454 ;;Total ram usage:       12 bytes
  4455 ;; Hardware stack levels used:    1
  4456 ;; Hardware stack levels required when called:   11
  4457 ;; This function calls:
  4458 ;;		___awdiv
  4459 ;;		___awmod
  4460 ;;		_get_minutes
  4461 ;;		_get_seconds
  4462 ;;		_lcd_char
  4463 ;;		_lcd_command
  4464 ;;		_sprintf
  4465 ;; This function is called by:
  4466 ;;		_IRpath1
  4467 ;;		_main
  4468 ;;		_IRpath2
  4469 ;; This function uses a non-reentrant model
  4470 ;;
  4471                           
  4472                           	psect	text18
  4473  001B00                     __ptext18:
  4474                           	opt callstack 0
  4475  001B00                     _lcdprint:
  4476                           	opt callstack 19
  4477  001B00                     
  4478                           ;senior_main.c: 263:     temp2 = array[1];
  4479  001B00  0E02               	movlw	2
  4480  001B02  EC0B  F014         	call	_lcd_command
  4481  001B06                     
  4482                           ;senior_main.c: 274:         lcd_char('0');
  4483  001B06  0ECC               	movlw	low lcdprint@array
  4484  001B08  0100               	movlb	0	; () banked
  4485  001B0A  6FB5               	movwf	sprintf@s& (0+255),b
  4486  001B0C  0E00               	movlw	high lcdprint@array
  4487  001B0E  6FB6               	movwf	(sprintf@s+1)& (0+255),b
  4488  001B10  0E05               	movlw	low STR_1
  4489  001B12  6FB7               	movwf	sprintf@fmt& (0+255),b
  4490  001B14  0E08               	movlw	high STR_1
  4491  001B16  6FB8               	movwf	(sprintf@fmt+1)& (0+255),b
  4492  001B18  EC2F  F01A         	call	_get_minutes	;wreg free
  4493  001B1C  0100               	movlb	0	; () banked
  4494  001B1E  6FC5               	movwf	??_lcdprint& (0+255),b
  4495  001B20  51C5               	movf	??_lcdprint& (0+255),w,b
  4496  001B22  6FB9               	movwf	(?_sprintf+4)& (0+255),b
  4497  001B24  6BBA               	clrf	(?_sprintf+5)& (0+255),b
  4498  001B26  EC09  F018         	call	_sprintf	;wreg free
  4499  001B2A                     
  4500                           ;senior_main.c: 275:     }
  4501  001B2A  C0CC  F0D0         	movff	lcdprint@array,lcdprint@temp1
  4502  001B2E                     
  4503                           ;senior_main.c: 276:     lcd_command(0xC0);
  4504  001B2E  C0CD  F0CE         	movff	lcdprint@array+1,lcdprint@temp2
  4505  001B32                     
  4506                           ;senior_main.c: 277: 
  4507  001B32  0100               	movlb	0	; () banked
  4508  001B34  51D0               	movf	lcdprint@temp1& (0+255),w,b
  4509  001B36  B4D8               	btfsc	status,2,c
  4510  001B38  EFA0  F00D         	goto	u3331
  4511  001B3C  EFA2  F00D         	goto	u3330
  4512  001B40                     u3331:
  4513  001B40  EFB3  F00D         	goto	l3815
  4514  001B44                     u3330:
  4515  001B44                     
  4516                           ; BSR set to: 0
  4517  001B44  51CE               	movf	lcdprint@temp2& (0+255),w,b
  4518  001B46  B4D8               	btfsc	status,2,c
  4519  001B48  EFA8  F00D         	goto	u3341
  4520  001B4C  EFAA  F00D         	goto	u3340
  4521  001B50                     u3341:
  4522  001B50  EFB3  F00D         	goto	l3815
  4523  001B54                     u3340:
  4524  001B54                     
  4525                           ; BSR set to: 0
  4526                           ;senior_main.c: 278: 
  4527  001B54  51D0               	movf	lcdprint@temp1& (0+255),w,b
  4528  001B56  EC73  F014         	call	_lcd_char
  4529                           
  4530                           ;senior_main.c: 279:     char d1 = (distance/100)%10;
  4531  001B5A  0100               	movlb	0	; () banked
  4532  001B5C  51CE               	movf	lcdprint@temp2& (0+255),w,b
  4533  001B5E  EC73  F014         	call	_lcd_char
  4534                           
  4535                           ;senior_main.c: 280:     char d2 = (distance/10)%10;
  4536  001B62  EFD2  F00D         	goto	l235
  4537  001B66                     l3815:
  4538                           
  4539                           ; BSR set to: 0
  4540  001B66  51D0               	movf	lcdprint@temp1& (0+255),w,b
  4541  001B68  B4D8               	btfsc	status,2,c
  4542  001B6A  EFB9  F00D         	goto	u3351
  4543  001B6E  EFBB  F00D         	goto	u3350
  4544  001B72                     u3351:
  4545  001B72  EFCC  F00D         	goto	l3821
  4546  001B76                     u3350:
  4547  001B76                     
  4548                           ; BSR set to: 0
  4549  001B76  51CE               	movf	lcdprint@temp2& (0+255),w,b
  4550  001B78  A4D8               	btfss	status,2,c
  4551  001B7A  EFC1  F00D         	goto	u3361
  4552  001B7E  EFC3  F00D         	goto	u3360
  4553  001B82                     u3361:
  4554  001B82  EFCC  F00D         	goto	l3821
  4555  001B86                     u3360:
  4556  001B86                     
  4557                           ; BSR set to: 0
  4558                           ;senior_main.c: 282: 
  4559  001B86  0E30               	movlw	48
  4560  001B88  EC73  F014         	call	_lcd_char
  4561                           
  4562                           ;senior_main.c: 283:     char d[1];
  4563  001B8C  0100               	movlb	0	; () banked
  4564  001B8E  51D0               	movf	lcdprint@temp1& (0+255),w,b
  4565  001B90  EC73  F014         	call	_lcd_char
  4566                           
  4567                           ;senior_main.c: 284: 
  4568  001B94  EFD2  F00D         	goto	l235
  4569  001B98                     l3821:
  4570                           
  4571                           ; BSR set to: 0
  4572                           ;senior_main.c: 286:         d[i]=0;
  4573  001B98  0E30               	movlw	48
  4574  001B9A  EC73  F014         	call	_lcd_char
  4575                           
  4576                           ;senior_main.c: 287:     }
  4577  001B9E  0E30               	movlw	48
  4578  001BA0  EC73  F014         	call	_lcd_char
  4579  001BA4                     l235:
  4580                           
  4581                           ;senior_main.c: 289:     char dd = d[0];
  4582  001BA4  0E3A               	movlw	58
  4583  001BA6  EC73  F014         	call	_lcd_char
  4584  001BAA                     
  4585                           ;senior_main.c: 291:     sprintf(d, "%u", d2);
  4586  001BAA  0ECC               	movlw	low lcdprint@array
  4587  001BAC  0100               	movlb	0	; () banked
  4588  001BAE  6FB5               	movwf	sprintf@s& (0+255),b
  4589  001BB0  0E00               	movlw	high lcdprint@array
  4590  001BB2  6FB6               	movwf	(sprintf@s+1)& (0+255),b
  4591  001BB4  0E05               	movlw	low STR_1
  4592  001BB6  6FB7               	movwf	sprintf@fmt& (0+255),b
  4593  001BB8  0E08               	movlw	high STR_1
  4594  001BBA  6FB8               	movwf	(sprintf@fmt+1)& (0+255),b
  4595  001BBC  EC1C  F01A         	call	_get_seconds	;wreg free
  4596  001BC0  0100               	movlb	0	; () banked
  4597  001BC2  6FC5               	movwf	??_lcdprint& (0+255),b
  4598  001BC4  51C5               	movf	??_lcdprint& (0+255),w,b
  4599  001BC6  6FB9               	movwf	(?_sprintf+4)& (0+255),b
  4600  001BC8  6BBA               	clrf	(?_sprintf+5)& (0+255),b
  4601  001BCA  EC09  F018         	call	_sprintf	;wreg free
  4602  001BCE                     
  4603                           ;senior_main.c: 292:     dd = d[0];
  4604  001BCE  C0CC  F0D0         	movff	lcdprint@array,lcdprint@temp1
  4605  001BD2                     
  4606                           ;senior_main.c: 293:     lcd_char(dd);
  4607  001BD2  C0CD  F0CE         	movff	lcdprint@array+1,lcdprint@temp2
  4608  001BD6                     
  4609                           ;senior_main.c: 294:     sprintf(d, "%u", d3);
  4610  001BD6  0100               	movlb	0	; () banked
  4611  001BD8  51D0               	movf	lcdprint@temp1& (0+255),w,b
  4612  001BDA  B4D8               	btfsc	status,2,c
  4613  001BDC  EFF2  F00D         	goto	u3371
  4614  001BE0  EFF4  F00D         	goto	u3370
  4615  001BE4                     u3371:
  4616  001BE4  EF05  F00E         	goto	l3835
  4617  001BE8                     u3370:
  4618  001BE8                     
  4619                           ; BSR set to: 0
  4620  001BE8  51CE               	movf	lcdprint@temp2& (0+255),w,b
  4621  001BEA  B4D8               	btfsc	status,2,c
  4622  001BEC  EFFA  F00D         	goto	u3381
  4623  001BF0  EFFC  F00D         	goto	u3380
  4624  001BF4                     u3381:
  4625  001BF4  EF05  F00E         	goto	l3835
  4626  001BF8                     u3380:
  4627  001BF8                     
  4628                           ; BSR set to: 0
  4629                           ;senior_main.c: 295:     dd = d[0];
  4630  001BF8  51D0               	movf	lcdprint@temp1& (0+255),w,b
  4631  001BFA  EC73  F014         	call	_lcd_char
  4632                           
  4633                           ;senior_main.c: 296:     lcd_char(dd);
  4634  001BFE  0100               	movlb	0	; () banked
  4635  001C00  51CE               	movf	lcdprint@temp2& (0+255),w,b
  4636  001C02  EC73  F014         	call	_lcd_char
  4637                           
  4638                           ;senior_main.c: 297:     lcd_char('c');
  4639  001C06  EF24  F00E         	goto	l239
  4640  001C0A                     l3835:
  4641                           
  4642                           ; BSR set to: 0
  4643  001C0A  51D0               	movf	lcdprint@temp1& (0+255),w,b
  4644  001C0C  B4D8               	btfsc	status,2,c
  4645  001C0E  EF0B  F00E         	goto	u3391
  4646  001C12  EF0D  F00E         	goto	u3390
  4647  001C16                     u3391:
  4648  001C16  EF1E  F00E         	goto	l3841
  4649  001C1A                     u3390:
  4650  001C1A                     
  4651                           ; BSR set to: 0
  4652  001C1A  51CE               	movf	lcdprint@temp2& (0+255),w,b
  4653  001C1C  A4D8               	btfss	status,2,c
  4654  001C1E  EF13  F00E         	goto	u3401
  4655  001C22  EF15  F00E         	goto	u3400
  4656  001C26                     u3401:
  4657  001C26  EF1E  F00E         	goto	l3841
  4658  001C2A                     u3400:
  4659  001C2A                     
  4660                           ; BSR set to: 0
  4661                           ;senior_main.c: 299: }
  4662  001C2A  0E30               	movlw	48
  4663  001C2C  EC73  F014         	call	_lcd_char
  4664                           
  4665                           ;senior_main.c: 300: 
  4666  001C30  0100               	movlb	0	; () banked
  4667  001C32  51D0               	movf	lcdprint@temp1& (0+255),w,b
  4668  001C34  EC73  F014         	call	_lcd_char
  4669                           
  4670                           ;senior_main.c: 301: 
  4671  001C38  EF24  F00E         	goto	l239
  4672  001C3C                     l3841:
  4673                           
  4674                           ; BSR set to: 0
  4675                           ;senior_main.c: 303: 
  4676  001C3C  0E30               	movlw	48
  4677  001C3E  EC73  F014         	call	_lcd_char
  4678                           
  4679                           ;senior_main.c: 304: void IRpath1(){
  4680  001C42  0E30               	movlw	48
  4681  001C44  EC73  F014         	call	_lcd_char
  4682  001C48                     l239:
  4683                           
  4684                           ;senior_main.c: 306:     int turncheck = 1;
  4685  001C48  0EC0               	movlw	192
  4686  001C4A  EC0B  F014         	call	_lcd_command
  4687                           
  4688                           ;senior_main.c: 309: 
  4689  001C4E  0E00               	movlw	0
  4690  001C50  0100               	movlb	0	; () banked
  4691  001C52  6F63               	movwf	(___awdiv@divisor+1)& (0+255),b
  4692  001C54  0E64               	movlw	100
  4693  001C56  6F62               	movwf	___awdiv@divisor& (0+255),b
  4694  001C58  C0EF  F060         	movff	_distance,___awdiv@dividend
  4695  001C5C  C0F0  F061         	movff	_distance+1,___awdiv@dividend+1
  4696  001C60  EC0A  F016         	call	___awdiv	;wreg free
  4697  001C64  C060  F068         	movff	?___awdiv,___awmod@dividend
  4698  001C68  C061  F069         	movff	?___awdiv+1,___awmod@dividend+1
  4699  001C6C  0E00               	movlw	0
  4700  001C6E  0100               	movlb	0	; () banked
  4701  001C70  6F6B               	movwf	(___awmod@divisor+1)& (0+255),b
  4702  001C72  0E0A               	movlw	10
  4703  001C74  6F6A               	movwf	___awmod@divisor& (0+255),b
  4704  001C76  EC6D  F016         	call	___awmod	;wreg free
  4705  001C7A  0100               	movlb	0	; () banked
  4706  001C7C  5168               	movf	?___awmod& (0+255),w,b
  4707  001C7E  6FC6               	movwf	lcdprint@d1& (0+255),b
  4708                           
  4709                           ;senior_main.c: 310:         if(turncheck){
  4710  001C80  0E00               	movlw	0
  4711  001C82  6F63               	movwf	(___awdiv@divisor+1)& (0+255),b
  4712  001C84  0E0A               	movlw	10
  4713  001C86  6F62               	movwf	___awdiv@divisor& (0+255),b
  4714  001C88  C0EF  F060         	movff	_distance,___awdiv@dividend
  4715  001C8C  C0F0  F061         	movff	_distance+1,___awdiv@dividend+1
  4716  001C90  EC0A  F016         	call	___awdiv	;wreg free
  4717  001C94  C060  F068         	movff	?___awdiv,___awmod@dividend
  4718  001C98  C061  F069         	movff	?___awdiv+1,___awmod@dividend+1
  4719  001C9C  0E00               	movlw	0
  4720  001C9E  0100               	movlb	0	; () banked
  4721  001CA0  6F6B               	movwf	(___awmod@divisor+1)& (0+255),b
  4722  001CA2  0E0A               	movlw	10
  4723  001CA4  6F6A               	movwf	___awmod@divisor& (0+255),b
  4724  001CA6  EC6D  F016         	call	___awmod	;wreg free
  4725  001CAA  0100               	movlb	0	; () banked
  4726  001CAC  5168               	movf	?___awmod& (0+255),w,b
  4727  001CAE  6FC7               	movwf	lcdprint@d2& (0+255),b
  4728                           
  4729                           ;senior_main.c: 311:             PWM3DCH = 0x12;
  4730  001CB0  C0EF  F068         	movff	_distance,___awmod@dividend
  4731  001CB4  C0F0  F069         	movff	_distance+1,___awmod@dividend+1
  4732  001CB8  0E00               	movlw	0
  4733  001CBA  6F6B               	movwf	(___awmod@divisor+1)& (0+255),b
  4734  001CBC  0E0A               	movlw	10
  4735  001CBE  6F6A               	movwf	___awmod@divisor& (0+255),b
  4736  001CC0  EC6D  F016         	call	___awmod	;wreg free
  4737  001CC4  0100               	movlb	0	; () banked
  4738  001CC6  5168               	movf	?___awmod& (0+255),w,b
  4739  001CC8  6FC8               	movwf	lcdprint@d3& (0+255),b
  4740  001CCA                     
  4741                           ; BSR set to: 0
  4742                           ;senior_main.c: 313:             T2TMR = 0x00;;senior_main.c: 315:             _delay((u
      +                          nsigned long)((800)*(8000000/4000.0)));
  4743  001CCA  0E00               	movlw	0
  4744  001CCC  6FCA               	movwf	(lcdprint@i+1)& (0+255),b
  4745  001CCE  0E00               	movlw	0
  4746  001CD0  6FC9               	movwf	lcdprint@i& (0+255),b
  4747  001CD2                     l3849:
  4748                           
  4749                           ; BSR set to: 0
  4750                           ;senior_main.c: 316:             PWM3CONbits.PWM3EN = 0;
  4751  001CD2  0ECF               	movlw	low lcdprint@d
  4752  001CD4  25C9               	addwf	lcdprint@i& (0+255),w,b
  4753  001CD6  6ED9               	movwf	fsr2l,c
  4754  001CD8  0E00               	movlw	high lcdprint@d
  4755  001CDA  21CA               	addwfc	(lcdprint@i+1)& (0+255),w,b
  4756  001CDC  6EDA               	movwf	fsr2h,c
  4757  001CDE  0E00               	movlw	0
  4758  001CE0  6EDF               	movwf	indf2,c
  4759  001CE2                     
  4760                           ; BSR set to: 0
  4761                           ;senior_main.c: 317:             turncheck = 0;
  4762  001CE2  4BC9               	infsnz	lcdprint@i& (0+255),f,b
  4763  001CE4  2BCA               	incf	(lcdprint@i+1)& (0+255),f,b
  4764  001CE6                     
  4765                           ; BSR set to: 0
  4766  001CE6  BFCA               	btfsc	(lcdprint@i+1)& (0+255),7,b
  4767  001CE8  EF7E  F00E         	goto	u3411
  4768  001CEC  51CA               	movf	(lcdprint@i+1)& (0+255),w,b
  4769  001CEE  E108               	bnz	u3410
  4770  001CF0  05C9               	decf	lcdprint@i& (0+255),w,b
  4771  001CF2  A0D8               	btfss	status,0,c
  4772  001CF4  EF7E  F00E         	goto	u3411
  4773  001CF8  EF80  F00E         	goto	u3410
  4774  001CFC                     u3411:
  4775  001CFC  EF69  F00E         	goto	l3849
  4776  001D00                     u3410:
  4777  001D00                     
  4778                           ; BSR set to: 0
  4779                           ;senior_main.c: 318:             lcdprint();
  4780  001D00  0ECF               	movlw	low lcdprint@d
  4781  001D02  6FB5               	movwf	sprintf@s& (0+255),b
  4782  001D04  0E00               	movlw	high lcdprint@d
  4783  001D06  6FB6               	movwf	(sprintf@s+1)& (0+255),b
  4784  001D08  0E05               	movlw	low STR_1
  4785  001D0A  6FB7               	movwf	sprintf@fmt& (0+255),b
  4786  001D0C  0E08               	movlw	high STR_1
  4787  001D0E  6FB8               	movwf	(sprintf@fmt+1)& (0+255),b
  4788  001D10  C0C6  F0B9         	movff	lcdprint@d1,?_sprintf+4
  4789  001D14  6BBA               	clrf	(?_sprintf+5)& (0+255),b
  4790  001D16  EC09  F018         	call	_sprintf	;wreg free
  4791  001D1A                     
  4792                           ;senior_main.c: 319:         }
  4793  001D1A  C0CF  F0CB         	movff	lcdprint@d,lcdprint@dd
  4794  001D1E                     
  4795                           ;senior_main.c: 320:         int distlr = ultra_dist();
  4796  001D1E  0100               	movlb	0	; () banked
  4797  001D20  51CB               	movf	lcdprint@dd& (0+255),w,b
  4798  001D22  EC73  F014         	call	_lcd_char
  4799  001D26                     
  4800                           ;senior_main.c: 321: 
  4801  001D26  0ECF               	movlw	low lcdprint@d
  4802  001D28  0100               	movlb	0	; () banked
  4803  001D2A  6FB5               	movwf	sprintf@s& (0+255),b
  4804  001D2C  0E00               	movlw	high lcdprint@d
  4805  001D2E  6FB6               	movwf	(sprintf@s+1)& (0+255),b
  4806  001D30  0E05               	movlw	low STR_1
  4807  001D32  6FB7               	movwf	sprintf@fmt& (0+255),b
  4808  001D34  0E08               	movlw	high STR_1
  4809  001D36  6FB8               	movwf	(sprintf@fmt+1)& (0+255),b
  4810  001D38  C0C7  F0B9         	movff	lcdprint@d2,?_sprintf+4
  4811  001D3C  6BBA               	clrf	(?_sprintf+5)& (0+255),b
  4812  001D3E  EC09  F018         	call	_sprintf	;wreg free
  4813  001D42                     
  4814                           ;senior_main.c: 322:         if(distlr < 60){
  4815  001D42  C0CF  F0CB         	movff	lcdprint@d,lcdprint@dd
  4816                           
  4817                           ;senior_main.c: 323:             forward(go);
  4818  001D46  0100               	movlb	0	; () banked
  4819  001D48  51CB               	movf	lcdprint@dd& (0+255),w,b
  4820  001D4A  EC73  F014         	call	_lcd_char
  4821  001D4E                     
  4822                           ;senior_main.c: 324:         }
  4823  001D4E  0ECF               	movlw	low lcdprint@d
  4824  001D50  0100               	movlb	0	; () banked
  4825  001D52  6FB5               	movwf	sprintf@s& (0+255),b
  4826  001D54  0E00               	movlw	high lcdprint@d
  4827  001D56  6FB6               	movwf	(sprintf@s+1)& (0+255),b
  4828  001D58  0E05               	movlw	low STR_1
  4829  001D5A  6FB7               	movwf	sprintf@fmt& (0+255),b
  4830  001D5C  0E08               	movlw	high STR_1
  4831  001D5E  6FB8               	movwf	(sprintf@fmt+1)& (0+255),b
  4832  001D60  C0C8  F0B9         	movff	lcdprint@d3,?_sprintf+4
  4833  001D64  6BBA               	clrf	(?_sprintf+5)& (0+255),b
  4834  001D66  EC09  F018         	call	_sprintf	;wreg free
  4835  001D6A                     
  4836                           ;senior_main.c: 325:         else{
  4837  001D6A  C0CF  F0CB         	movff	lcdprint@d,lcdprint@dd
  4838  001D6E                     
  4839                           ;senior_main.c: 326:             _delay((unsigned long)((200)*(8000000/4000.0)));
  4840  001D6E  0100               	movlb	0	; () banked
  4841  001D70  51CB               	movf	lcdprint@dd& (0+255),w,b
  4842  001D72  EC73  F014         	call	_lcd_char
  4843  001D76                     
  4844                           ;senior_main.c: 327:             forward(stop);
  4845  001D76  0E63               	movlw	99
  4846  001D78  EC73  F014         	call	_lcd_char
  4847  001D7C                     
  4848                           ;senior_main.c: 328:             lcdprint();
  4849  001D7C  0E6D               	movlw	109
  4850  001D7E  EC73  F014         	call	_lcd_char
  4851  001D82  0012               	return		;funcret
  4852  001D84                     __end_of_lcdprint:
  4853                           	opt callstack 0
  4854                           
  4855 ;; *************** function _sprintf *****************
  4856 ;; Defined at:
  4857 ;;		line 9 in file "C:\Program Files (x86)\Microchip\xc8\v2.10\pic\sources\c99\common\nf_sprintf.c"
  4858 ;; Parameters:    Size  Location     Type
  4859 ;;  s               2   85[BANK0 ] PTR unsigned char 
  4860 ;;		 -> lcdprint@d(1), lcdprint@array(2), 
  4861 ;;  fmt             2   87[BANK0 ] PTR const unsigned char 
  4862 ;;		 -> STR_5(3), STR_4(3), STR_3(3), STR_2(3), 
  4863 ;;		 -> STR_1(3), 
  4864 ;; Auto vars:     Size  Location     Type
  4865 ;;  f               6   95[BANK0 ] struct _IO_FILE
  4866 ;;  ap              2   93[BANK0 ] PTR void [1]
  4867 ;;		 -> ?_sprintf(2), 
  4868 ;;  ret             2    0        int 
  4869 ;; Return value:  Size  Location     Type
  4870 ;;                  2   85[BANK0 ] int 
  4871 ;; Registers used:
  4872 ;;		wreg, fsr1l, fsr1h, fsr2l, fsr2h, status,2, status,0, tblptrl, tblptrh, tblptru, cstack
  4873 ;; Tracked objects:
  4874 ;;		On entry : 0/0
  4875 ;;		On exit  : 0/0
  4876 ;;		Unchanged: 0/0
  4877 ;; Data sizes:     COMRAM   BANK0   BANK1   BANK2   BANK3   BANK4   BANK5   BANK6   BANK7
  4878 ;;      Params:         0       6       0       0       0       0       0       0       0
  4879 ;;      Locals:         0      10       0       0       0       0       0       0       0
  4880 ;;      Temps:          0       0       0       0       0       0       0       0       0
  4881 ;;      Totals:         0      16       0       0       0       0       0       0       0
  4882 ;;Total ram usage:       16 bytes
  4883 ;; Hardware stack levels used:    1
  4884 ;; Hardware stack levels required when called:   10
  4885 ;; This function calls:
  4886 ;;		_vfprintf
  4887 ;; This function is called by:
  4888 ;;		_lcdprint
  4889 ;; This function uses a non-reentrant model
  4890 ;;
  4891                           
  4892                           	psect	text19
  4893  003012                     __ptext19:
  4894                           	opt callstack 0
  4895  003012                     _sprintf:
  4896                           	opt callstack 19
  4897  003012  0EB9               	movlw	low (?_sprintf+4)
  4898  003014  0100               	movlb	0	; () banked
  4899  003016  6FBD               	movwf	sprintf@ap& (0+255),b
  4900  003018  0E00               	movlw	high (?_sprintf+4)
  4901  00301A  6FBE               	movwf	(sprintf@ap+1)& (0+255),b
  4902  00301C  C0B5  F0BF         	movff	sprintf@s,sprintf@f
  4903  003020  C0B6  F0C0         	movff	sprintf@s+1,sprintf@f+1
  4904  003024                     
  4905                           ; BSR set to: 0
  4906  003024  0E00               	movlw	0
  4907  003026  6FC2               	movwf	(sprintf@f+3)& (0+255),b
  4908  003028  0E00               	movlw	0
  4909  00302A  6FC1               	movwf	(sprintf@f+2)& (0+255),b
  4910  00302C                     
  4911                           ; BSR set to: 0
  4912  00302C  0E00               	movlw	0
  4913  00302E  6FC4               	movwf	(sprintf@f+5)& (0+255),b
  4914  003030  0E00               	movlw	0
  4915  003032  6FC3               	movwf	(sprintf@f+4)& (0+255),b
  4916  003034                     
  4917                           ; BSR set to: 0
  4918  003034  0EBF               	movlw	low sprintf@f
  4919  003036  6FAD               	movwf	vfprintf@fp& (0+255),b
  4920  003038  0E00               	movlw	high sprintf@f
  4921  00303A  6FAE               	movwf	(vfprintf@fp+1)& (0+255),b
  4922  00303C  C0B7  F0AF         	movff	sprintf@fmt,vfprintf@fmt
  4923  003040  C0B8  F0B0         	movff	sprintf@fmt+1,vfprintf@fmt+1
  4924  003044  0EBD               	movlw	low sprintf@ap
  4925  003046  6FB1               	movwf	vfprintf@ap& (0+255),b
  4926  003048  0E00               	movlw	high sprintf@ap
  4927  00304A  6FB2               	movwf	(vfprintf@ap+1)& (0+255),b
  4928  00304C  EC4A  F017         	call	_vfprintf	;wreg free
  4929  003050  0100               	movlb	0	; () banked
  4930  003052  51C1               	movf	(sprintf@f+2)& (0+255),w,b
  4931  003054  25B5               	addwf	sprintf@s& (0+255),w,b
  4932  003056  6ED9               	movwf	fsr2l,c
  4933  003058  51C2               	movf	(sprintf@f+3)& (0+255),w,b
  4934  00305A  21B6               	addwfc	(sprintf@s+1)& (0+255),w,b
  4935  00305C  6EDA               	movwf	fsr2h,c
  4936  00305E  0E00               	movlw	0
  4937  003060  6EDF               	movwf	indf2,c
  4938  003062                     
  4939                           ; BSR set to: 0
  4940  003062  0012               	return		;funcret
  4941  003064                     __end_of_sprintf:
  4942                           	opt callstack 0
  4943                           
  4944 ;; *************** function _vfprintf *****************
  4945 ;; Defined at:
  4946 ;;		line 1368 in file "C:\Program Files (x86)\Microchip\xc8\v2.10\pic\sources\c99\common\doprnt.c"
  4947 ;; Parameters:    Size  Location     Type
  4948 ;;  fp              2   77[BANK0 ] PTR struct _IO_FILE
  4949 ;;		 -> sprintf@f(6), 
  4950 ;;  fmt             2   79[BANK0 ] PTR const unsigned char 
  4951 ;;		 -> STR_5(3), STR_4(3), STR_3(3), STR_2(3), 
  4952 ;;		 -> STR_1(3), 
  4953 ;;  ap              2   81[BANK0 ] PTR PTR void 
  4954 ;;		 -> sprintf@ap(2), 
  4955 ;; Auto vars:     Size  Location     Type
  4956 ;;  cfmt            2   83[BANK0 ] PTR unsigned char 
  4957 ;;		 -> STR_5(3), STR_4(3), STR_3(3), STR_2(3), 
  4958 ;;		 -> STR_1(3), 
  4959 ;; Return value:  Size  Location     Type
  4960 ;;                  2   77[BANK0 ] int 
  4961 ;; Registers used:
  4962 ;;		wreg, fsr1l, fsr1h, fsr2l, fsr2h, status,2, status,0, tblptrl, tblptrh, tblptru, cstack
  4963 ;; Tracked objects:
  4964 ;;		On entry : 0/0
  4965 ;;		On exit  : 0/0
  4966 ;;		Unchanged: 0/0
  4967 ;; Data sizes:     COMRAM   BANK0   BANK1   BANK2   BANK3   BANK4   BANK5   BANK6   BANK7
  4968 ;;      Params:         0       6       0       0       0       0       0       0       0
  4969 ;;      Locals:         0       2       0       0       0       0       0       0       0
  4970 ;;      Temps:          0       0       0       0       0       0       0       0       0
  4971 ;;      Totals:         0       8       0       0       0       0       0       0       0
  4972 ;;Total ram usage:        8 bytes
  4973 ;; Hardware stack levels used:    1
  4974 ;; Hardware stack levels required when called:    9
  4975 ;; This function calls:
  4976 ;;		_vfpfcnvrt
  4977 ;; This function is called by:
  4978 ;;		_sprintf
  4979 ;; This function uses a non-reentrant model
  4980 ;;
  4981                           
  4982                           	psect	text20
  4983  002E94                     __ptext20:
  4984                           	opt callstack 0
  4985  002E94                     _vfprintf:
  4986                           	opt callstack 19
  4987  002E94                     
  4988                           ;C:\Program Files (x86)\Microchip\xc8\v2.10\pic\sources\c99\common\doprnt.c: 1368: int v
      +                          fprintf(FILE *fp, const char *fmt, va_list ap);C:\Program Files (x86)\Microchip\xc8\v2.1
      +                          0\pic\sources\c99\common\doprnt.c: 1369: {;C:\Program Files (x86)\Microchip\xc8\v2.10\pi
      +                          c\sources\c99\common\doprnt.c: 1371:     char *cfmt;;C:\Program Files (x86)\Microchip\xc
      +                          8\v2.10\pic\sources\c99\common\doprnt.c: 1373:     cfmt = (char *)fmt;
  4989  002E94  C0AF  F0B3         	movff	vfprintf@fmt,vfprintf@cfmt
  4990  002E98  C0B0  F0B4         	movff	vfprintf@fmt+1,vfprintf@cfmt+1
  4991  002E9C                     
  4992                           ;C:\Program Files (x86)\Microchip\xc8\v2.10\pic\sources\c99\common\doprnt.c: 1374:     n
      +                          out = 0;
  4993  002E9C  0E00               	movlw	0
  4994  002E9E  0100               	movlb	0	; () banked
  4995  002EA0  6FE8               	movwf	(_nout+1)& (0+255),b
  4996  002EA2  0E00               	movlw	0
  4997  002EA4  6FE7               	movwf	_nout& (0+255),b
  4998                           
  4999                           ;C:\Program Files (x86)\Microchip\xc8\v2.10\pic\sources\c99\common\doprnt.c: 1375:     w
      +                          hile (*cfmt) {
  5000  002EA6  EF68  F017         	goto	l3587
  5001  002EAA                     l3585:
  5002                           
  5003                           ; BSR set to: 0
  5004                           ;C:\Program Files (x86)\Microchip\xc8\v2.10\pic\sources\c99\common\doprnt.c: 1376:      
      +                             nout += vfpfcnvrt(fp, &cfmt, ap);
  5005  002EAA  C0AD  F09B         	movff	vfprintf@fp,vfpfcnvrt@fp
  5006  002EAE  C0AE  F09C         	movff	vfprintf@fp+1,vfpfcnvrt@fp+1
  5007  002EB2  0EB3               	movlw	low vfprintf@cfmt
  5008  002EB4  6F9D               	movwf	vfpfcnvrt@fmt& (0+255),b
  5009  002EB6  0E00               	movlw	high vfprintf@cfmt
  5010  002EB8  6F9E               	movwf	(vfpfcnvrt@fmt+1)& (0+255),b
  5011  002EBA  C0B1  F09F         	movff	vfprintf@ap,vfpfcnvrt@ap
  5012  002EBE  C0B2  F0A0         	movff	vfprintf@ap+1,vfpfcnvrt@ap+1
  5013  002EC2  EC9F  F010         	call	_vfpfcnvrt	;wreg free
  5014  002EC6  0100               	movlb	0	; () banked
  5015  002EC8  519B               	movf	?_vfpfcnvrt& (0+255),w,b
  5016  002ECA  27E7               	addwf	_nout& (0+255),f,b
  5017  002ECC  519C               	movf	(?_vfpfcnvrt+1)& (0+255),w,b
  5018  002ECE  23E8               	addwfc	(_nout+1)& (0+255),f,b
  5019  002ED0                     l3587:
  5020                           
  5021                           ; BSR set to: 0
  5022                           ;C:\Program Files (x86)\Microchip\xc8\v2.10\pic\sources\c99\common\doprnt.c: 1375:     w
      +                          hile (*cfmt) {
  5023  002ED0  C0B3  FFF6         	movff	vfprintf@cfmt,tblptrl
  5024  002ED4  C0B4  FFF7         	movff	vfprintf@cfmt+1,tblptrh
  5025  002ED8                     	if	0	;tblptru may be non-zero
  5026  002ED8                     	endif
  5027  002ED8                     	if	0	;tblptru may be non-zero
  5028  002ED8                     	endif
  5029  002ED8  0008               	tblrd		*
  5030  002EDA  50F5               	movf	tablat,w,c
  5031  002EDC  0900               	iorlw	0
  5032  002EDE  A4D8               	btfss	status,2,c
  5033  002EE0  EF74  F017         	goto	u3161
  5034  002EE4  EF76  F017         	goto	u3160
  5035  002EE8                     u3161:
  5036  002EE8  EF55  F017         	goto	l3585
  5037  002EEC                     u3160:
  5038  002EEC                     
  5039                           ; BSR set to: 0
  5040                           ;C:\Program Files (x86)\Microchip\xc8\v2.10\pic\sources\c99\common\doprnt.c: 1378:     r
      +                          eturn nout;
  5041  002EEC  C0E7  F0AD         	movff	_nout,?_vfprintf
  5042  002EF0  C0E8  F0AE         	movff	_nout+1,?_vfprintf+1
  5043  002EF4                     
  5044                           ; BSR set to: 0
  5045  002EF4  0012               	return		;funcret
  5046  002EF6                     __end_of_vfprintf:
  5047                           	opt callstack 0
  5048                           
  5049 ;; *************** function _vfpfcnvrt *****************
  5050 ;; Defined at:
  5051 ;;		line 670 in file "C:\Program Files (x86)\Microchip\xc8\v2.10\pic\sources\c99\common\doprnt.c"
  5052 ;; Parameters:    Size  Location     Type
  5053 ;;  fp              2   59[BANK0 ] PTR struct _IO_FILE
  5054 ;;		 -> sprintf@f(6), 
  5055 ;;  fmt             2   61[BANK0 ] PTR PTR unsigned char 
  5056 ;;		 -> vfprintf@cfmt(2), 
  5057 ;;  ap              2   63[BANK0 ] PTR PTR void 
  5058 ;;		 -> sprintf@ap(2), 
  5059 ;; Auto vars:     Size  Location     Type
  5060 ;;  llu             8   69[BANK0 ] unsigned long long 
  5061 ;;  ll              8    0        long long 
  5062 ;;  f               4    0        long long 
  5063 ;;  vp              3    0        PTR void 
  5064 ;;  ct              3    0        unsigned char [3]
  5065 ;;  cp              3    0        PTR unsigned char 
  5066 ;;  i               2    0        int 
  5067 ;;  done            2    0        int 
  5068 ;;  c               1    0        unsigned char 
  5069 ;; Return value:  Size  Location     Type
  5070 ;;                  2   59[BANK0 ] int 
  5071 ;; Registers used:
  5072 ;;		wreg, fsr1l, fsr1h, fsr2l, fsr2h, status,2, status,0, tblptrl, tblptrh, tblptru, cstack
  5073 ;; Tracked objects:
  5074 ;;		On entry : 0/0
  5075 ;;		On exit  : 0/0
  5076 ;;		Unchanged: 0/0
  5077 ;; Data sizes:     COMRAM   BANK0   BANK1   BANK2   BANK3   BANK4   BANK5   BANK6   BANK7
  5078 ;;      Params:         0       6       0       0       0       0       0       0       0
  5079 ;;      Locals:         0       8       0       0       0       0       0       0       0
  5080 ;;      Temps:          0       4       0       0       0       0       0       0       0
  5081 ;;      Totals:         0      18       0       0       0       0       0       0       0
  5082 ;;Total ram usage:       18 bytes
  5083 ;; Hardware stack levels used:    1
  5084 ;; Hardware stack levels required when called:    8
  5085 ;; This function calls:
  5086 ;;		_fputc
  5087 ;;		_utoa
  5088 ;; This function is called by:
  5089 ;;		_vfprintf
  5090 ;; This function uses a non-reentrant model
  5091 ;;
  5092                           
  5093                           	psect	text21
  5094  00213E                     __ptext21:
  5095                           	opt callstack 0
  5096  00213E                     _vfpfcnvrt:
  5097                           	opt callstack 19
  5098  00213E                     
  5099                           ;C:\Program Files (x86)\Microchip\xc8\v2.10\pic\sources\c99\common\doprnt.c: 670: static
      +                           int vfpfcnvrt(FILE *fp, char *fmt[], va_list ap);C:\Program Files (x86)\Microchip\xc8\v
      +                          2.10\pic\sources\c99\common\doprnt.c: 671: {;C:\Program Files (x86)\Microchip\xc8\v2.10\
      +                          pic\sources\c99\common\doprnt.c: 672:     char c, *cp, ct[3];;C:\Program Files (x86)\Mic
      +                          rochip\xc8\v2.10\pic\sources\c99\common\doprnt.c: 673:     int done, i;;C:\Program Files
      +                           (x86)\Microchip\xc8\v2.10\pic\sources\c99\common\doprnt.c: 674:     long long ll;
  5100  00213E  C09D  FFD9         	movff	vfpfcnvrt@fmt,fsr2l
  5101  002142  C09E  FFDA         	movff	vfpfcnvrt@fmt+1,fsr2h
  5102  002146  CFDE FFF6          	movff	postinc2,tblptrl
  5103  00214A  CFDD FFF7          	movff	postdec2,tblptrh
  5104  00214E                     	if	0	;tblptru may be non-zero
  5105  00214E                     	endif
  5106  00214E                     	if	0	;tblptru may be non-zero
  5107  00214E                     	endif
  5108  00214E  0008               	tblrd		*
  5109  002150  50F5               	movf	tablat,w,c
  5110  002152  0A25               	xorlw	37
  5111  002154  A4D8               	btfss	status,2,c
  5112  002156  EFAF  F010         	goto	u2971
  5113  00215A  EFB1  F010         	goto	u2970
  5114  00215E                     u2971:
  5115  00215E  EF4D  F011         	goto	l3535
  5116  002162                     u2970:
  5117  002162                     
  5118                           ;C:\Program Files (x86)\Microchip\xc8\v2.10\pic\sources\c99\common\doprnt.c: 681:       
      +                            ++*fmt;
  5119  002162  C09D  FFD9         	movff	vfpfcnvrt@fmt,fsr2l
  5120  002166  C09E  FFDA         	movff	vfpfcnvrt@fmt+1,fsr2h
  5121  00216A  2ADE               	incf	postinc2,f,c
  5122  00216C  0E00               	movlw	0
  5123  00216E  22DD               	addwfc	postdec2,f,c
  5124  002170                     
  5125                           ;C:\Program Files (x86)\Microchip\xc8\v2.10\pic\sources\c99\common\doprnt.c: 683:       
      +                            flags = width = 0;
  5126  002170  0E00               	movlw	0
  5127  002172  0100               	movlb	0	; () banked
  5128  002174  6FEA               	movwf	(_width+1)& (0+255),b
  5129  002176  0E00               	movlw	0
  5130  002178  6FE9               	movwf	_width& (0+255),b
  5131  00217A  C0E9  F0ED         	movff	_width,_flags
  5132  00217E  C0EA  F0EE         	movff	_width+1,_flags+1
  5133  002182                     
  5134                           ; BSR set to: 0
  5135                           ;C:\Program Files (x86)\Microchip\xc8\v2.10\pic\sources\c99\common\doprnt.c: 684:       
      +                            prec = -1;
  5136  002182  69EB               	setf	_prec& (0+255),b
  5137  002184  69EC               	setf	(_prec+1)& (0+255),b
  5138  002186                     
  5139                           ; BSR set to: 0
  5140                           ;C:\Program Files (x86)\Microchip\xc8\v2.10\pic\sources\c99\common\doprnt.c: 1182:      
      +                             if (*fmt[0] == 'u') {
  5141  002186  C09D  FFD9         	movff	vfpfcnvrt@fmt,fsr2l
  5142  00218A  C09E  FFDA         	movff	vfpfcnvrt@fmt+1,fsr2h
  5143  00218E  CFDE FFF6          	movff	postinc2,tblptrl
  5144  002192  CFDD FFF7          	movff	postdec2,tblptrh
  5145  002196                     	if	0	;tblptru may be non-zero
  5146  002196                     	endif
  5147  002196                     	if	0	;tblptru may be non-zero
  5148  002196                     	endif
  5149  002196  0008               	tblrd		*
  5150  002198  50F5               	movf	tablat,w,c
  5151  00219A  0A75               	xorlw	117
  5152  00219C  A4D8               	btfss	status,2,c
  5153  00219E  EFD3  F010         	goto	u2981
  5154  0021A2  EFD5  F010         	goto	u2980
  5155  0021A6                     u2981:
  5156  0021A6  EF16  F011         	goto	l3519
  5157  0021AA                     u2980:
  5158  0021AA                     
  5159                           ; BSR set to: 0
  5160                           ;C:\Program Files (x86)\Microchip\xc8\v2.10\pic\sources\c99\common\doprnt.c: 1184:      
      +                                 ++*fmt;
  5161  0021AA  C09D  FFD9         	movff	vfpfcnvrt@fmt,fsr2l
  5162  0021AE  C09E  FFDA         	movff	vfpfcnvrt@fmt+1,fsr2h
  5163  0021B2  2ADE               	incf	postinc2,f,c
  5164  0021B4  0E00               	movlw	0
  5165  0021B6  22DD               	addwfc	postdec2,f,c
  5166                           
  5167                           ;C:\Program Files (x86)\Microchip\xc8\v2.10\pic\sources\c99\common\doprnt.c: 1185:      
      +                                 llu = (unsigned long long)(*(unsigned int *)__va_arg(*(unsigned int **)ap, (unsig
      +                          ned int)0));
  5168  0021B8  C09F  FFD9         	movff	vfpfcnvrt@ap,fsr2l
  5169  0021BC  C0A0  FFDA         	movff	vfpfcnvrt@ap+1,fsr2h
  5170  0021C0  CFDF F0A1          	movff	indf2,??_vfpfcnvrt
  5171  0021C4  0E02               	movlw	2
  5172  0021C6  26DE               	addwf	postinc2,f,c
  5173  0021C8  CFDF F0A2          	movff	indf2,??_vfpfcnvrt+1
  5174  0021CC  0E00               	movlw	0
  5175  0021CE  22DD               	addwfc	postdec2,f,c
  5176  0021D0  C0A1  FFD9         	movff	??_vfpfcnvrt,fsr2l
  5177  0021D4  C0A2  FFDA         	movff	??_vfpfcnvrt+1,fsr2h
  5178  0021D8  CFDE F0A3          	movff	postinc2,??_vfpfcnvrt+2
  5179  0021DC  CFDD F0A4          	movff	postdec2,??_vfpfcnvrt+3
  5180  0021E0  C0A3  F0A5         	movff	??_vfpfcnvrt+2,vfpfcnvrt@llu
  5181  0021E4  C0A4  F0A6         	movff	??_vfpfcnvrt+3,vfpfcnvrt@llu+1
  5182  0021E8  6BA7               	clrf	(vfpfcnvrt@llu+2)& (0+255),b
  5183  0021EA  6BA8               	clrf	(vfpfcnvrt@llu+3)& (0+255),b
  5184  0021EC  6BA9               	clrf	(vfpfcnvrt@llu+4)& (0+255),b
  5185  0021EE  6BAA               	clrf	(vfpfcnvrt@llu+5)& (0+255),b
  5186  0021F0  6BAB               	clrf	(vfpfcnvrt@llu+6)& (0+255),b
  5187  0021F2  6BAC               	clrf	(vfpfcnvrt@llu+7)& (0+255),b
  5188  0021F4                     
  5189                           ; BSR set to: 0
  5190                           ;C:\Program Files (x86)\Microchip\xc8\v2.10\pic\sources\c99\common\doprnt.c: 1187:      
      +                                 return utoa(fp, llu);
  5191  0021F4  C09B  F07B         	movff	vfpfcnvrt@fp,utoa@fp
  5192  0021F8  C09C  F07C         	movff	vfpfcnvrt@fp+1,utoa@fp+1
  5193  0021FC  C0A5  F07D         	movff	vfpfcnvrt@llu,utoa@d
  5194  002200  C0A6  F07E         	movff	vfpfcnvrt@llu+1,utoa@d+1
  5195  002204  C0A7  F07F         	movff	vfpfcnvrt@llu+2,utoa@d+2
  5196  002208  C0A8  F080         	movff	vfpfcnvrt@llu+3,utoa@d+3
  5197  00220C  C0A9  F081         	movff	vfpfcnvrt@llu+4,utoa@d+4
  5198  002210  C0AA  F082         	movff	vfpfcnvrt@llu+5,utoa@d+5
  5199  002214  C0AB  F083         	movff	vfpfcnvrt@llu+6,utoa@d+6
  5200  002218  C0AC  F084         	movff	vfpfcnvrt@llu+7,utoa@d+7
  5201  00221C  ECC2  F00E         	call	_utoa	;wreg free
  5202  002220  C07B  F09B         	movff	?_utoa,?_vfpfcnvrt
  5203  002224  C07C  F09C         	movff	?_utoa+1,?_vfpfcnvrt+1
  5204  002228  EF69  F011         	goto	l640
  5205  00222C                     l3519:
  5206                           
  5207                           ; BSR set to: 0
  5208                           ;C:\Program Files (x86)\Microchip\xc8\v2.10\pic\sources\c99\common\doprnt.c: 1350:      
      +                             if ((*fmt)[0] == '%') {
  5209  00222C  C09D  FFD9         	movff	vfpfcnvrt@fmt,fsr2l
  5210  002230  C09E  FFDA         	movff	vfpfcnvrt@fmt+1,fsr2h
  5211  002234  CFDE FFF6          	movff	postinc2,tblptrl
  5212  002238  CFDD FFF7          	movff	postdec2,tblptrh
  5213  00223C                     	if	0	;tblptru may be non-zero
  5214  00223C                     	endif
  5215  00223C                     	if	0	;tblptru may be non-zero
  5216  00223C                     	endif
  5217  00223C  0008               	tblrd		*
  5218  00223E  50F5               	movf	tablat,w,c
  5219  002240  0A25               	xorlw	37
  5220  002242  A4D8               	btfss	status,2,c
  5221  002244  EF26  F011         	goto	u2991
  5222  002248  EF28  F011         	goto	u2990
  5223  00224C                     u2991:
  5224  00224C  EF40  F011         	goto	l3529
  5225  002250                     u2990:
  5226  002250                     
  5227                           ; BSR set to: 0
  5228                           ;C:\Program Files (x86)\Microchip\xc8\v2.10\pic\sources\c99\common\doprnt.c: 1351:      
      +                                 ++*fmt;
  5229  002250  C09D  FFD9         	movff	vfpfcnvrt@fmt,fsr2l
  5230  002254  C09E  FFDA         	movff	vfpfcnvrt@fmt+1,fsr2h
  5231  002258  2ADE               	incf	postinc2,f,c
  5232  00225A  0E00               	movlw	0
  5233  00225C  22DD               	addwfc	postdec2,f,c
  5234  00225E                     
  5235                           ; BSR set to: 0
  5236                           ;C:\Program Files (x86)\Microchip\xc8\v2.10\pic\sources\c99\common\doprnt.c: 1352:      
      +                                 fputc((int)'%', fp);
  5237  00225E  0E00               	movlw	0
  5238  002260  6F61               	movwf	(fputc@c+1)& (0+255),b
  5239  002262  0E25               	movlw	37
  5240  002264  6F60               	movwf	fputc@c& (0+255),b
  5241  002266  C09B  F062         	movff	vfpfcnvrt@fp,fputc@fp
  5242  00226A  C09C  F063         	movff	vfpfcnvrt@fp+1,fputc@fp+1
  5243  00226E  ECDB  F014         	call	_fputc	;wreg free
  5244  002272                     l3525:
  5245                           
  5246                           ;C:\Program Files (x86)\Microchip\xc8\v2.10\pic\sources\c99\common\doprnt.c: 1353:      
      +                                 return 1;
  5247  002272  0E00               	movlw	0
  5248  002274  0100               	movlb	0	; () banked
  5249  002276  6F9C               	movwf	(?_vfpfcnvrt+1)& (0+255),b
  5250  002278  0E01               	movlw	1
  5251  00227A  6F9B               	movwf	?_vfpfcnvrt& (0+255),b
  5252  00227C  EF69  F011         	goto	l640
  5253  002280                     l3529:
  5254                           
  5255                           ; BSR set to: 0
  5256                           ;C:\Program Files (x86)\Microchip\xc8\v2.10\pic\sources\c99\common\doprnt.c: 1357:      
      +                             ++*fmt;
  5257  002280  C09D  FFD9         	movff	vfpfcnvrt@fmt,fsr2l
  5258  002284  C09E  FFDA         	movff	vfpfcnvrt@fmt+1,fsr2h
  5259  002288  2ADE               	incf	postinc2,f,c
  5260  00228A  0E00               	movlw	0
  5261  00228C  22DD               	addwfc	postdec2,f,c
  5262  00228E                     
  5263                           ; BSR set to: 0
  5264                           ;C:\Program Files (x86)\Microchip\xc8\v2.10\pic\sources\c99\common\doprnt.c: 1358:      
      +                             return 0;
  5265  00228E  0E00               	movlw	0
  5266  002290  6F9C               	movwf	(?_vfpfcnvrt+1)& (0+255),b
  5267  002292  0E00               	movlw	0
  5268  002294  6F9B               	movwf	?_vfpfcnvrt& (0+255),b
  5269  002296  EF69  F011         	goto	l640
  5270  00229A                     l3535:
  5271                           
  5272                           ;C:\Program Files (x86)\Microchip\xc8\v2.10\pic\sources\c99\common\doprnt.c: 1362:     f
      +                          putc((int)(*fmt)[0], fp);
  5273  00229A  C09D  FFD9         	movff	vfpfcnvrt@fmt,fsr2l
  5274  00229E  C09E  FFDA         	movff	vfpfcnvrt@fmt+1,fsr2h
  5275  0022A2  CFDE FFF6          	movff	postinc2,tblptrl
  5276  0022A6  CFDD FFF7          	movff	postdec2,tblptrh
  5277  0022AA                     	if	0	;tblptru may be non-zero
  5278  0022AA                     	endif
  5279  0022AA                     	if	0	;tblptru may be non-zero
  5280  0022AA                     	endif
  5281  0022AA  0008               	tblrd		*
  5282  0022AC  50F5               	movf	tablat,w,c
  5283  0022AE  0100               	movlb	0	; () banked
  5284  0022B0  6F60               	movwf	fputc@c& (0+255),b
  5285  0022B2  6B61               	clrf	(fputc@c+1)& (0+255),b
  5286  0022B4  C09B  F062         	movff	vfpfcnvrt@fp,fputc@fp
  5287  0022B8  C09C  F063         	movff	vfpfcnvrt@fp+1,fputc@fp+1
  5288  0022BC  ECDB  F014         	call	_fputc	;wreg free
  5289  0022C0                     
  5290                           ;C:\Program Files (x86)\Microchip\xc8\v2.10\pic\sources\c99\common\doprnt.c: 1363:     +
      +                          +*fmt;
  5291  0022C0  C09D  FFD9         	movff	vfpfcnvrt@fmt,fsr2l
  5292  0022C4  C09E  FFDA         	movff	vfpfcnvrt@fmt+1,fsr2h
  5293  0022C8  2ADE               	incf	postinc2,f,c
  5294  0022CA  0E00               	movlw	0
  5295  0022CC  22DD               	addwfc	postdec2,f,c
  5296  0022CE  EF39  F011         	goto	l3525
  5297  0022D2                     l640:
  5298  0022D2  0012               	return		;funcret
  5299  0022D4                     __end_of_vfpfcnvrt:
  5300                           	opt callstack 0
  5301                           
  5302 ;; *************** function _utoa *****************
  5303 ;; Defined at:
  5304 ;;		line 593 in file "C:\Program Files (x86)\Microchip\xc8\v2.10\pic\sources\c99\common\doprnt.c"
  5305 ;; Parameters:    Size  Location     Type
  5306 ;;  fp              2   27[BANK0 ] PTR struct _IO_FILE
  5307 ;;		 -> sprintf@f(6), 
  5308 ;;  d               8   29[BANK0 ] unsigned long long 
  5309 ;; Auto vars:     Size  Location     Type
  5310 ;;  n               8   49[BANK0 ] unsigned long long 
  5311 ;;  i               2   57[BANK0 ] int 
  5312 ;;  w               2   47[BANK0 ] int 
  5313 ;;  p               2   45[BANK0 ] int 
  5314 ;; Return value:  Size  Location     Type
  5315 ;;                  2   27[BANK0 ] int 
  5316 ;; Registers used:
  5317 ;;		wreg, fsr1l, fsr1h, fsr2l, fsr2h, status,2, status,0, cstack
  5318 ;; Tracked objects:
  5319 ;;		On entry : 0/0
  5320 ;;		On exit  : 0/0
  5321 ;;		Unchanged: 0/0
  5322 ;; Data sizes:     COMRAM   BANK0   BANK1   BANK2   BANK3   BANK4   BANK5   BANK6   BANK7
  5323 ;;      Params:         0      10       0       0       0       0       0       0       0
  5324 ;;      Locals:         0      14       0       0       0       0       0       0       0
  5325 ;;      Temps:          0       8       0       0       0       0       0       0       0
  5326 ;;      Totals:         0      32       0       0       0       0       0       0       0
  5327 ;;Total ram usage:       32 bytes
  5328 ;; Hardware stack levels used:    1
  5329 ;; Hardware stack levels required when called:    7
  5330 ;; This function calls:
  5331 ;;		___lodiv
  5332 ;;		___lomod
  5333 ;;		_pad
  5334 ;; This function is called by:
  5335 ;;		_vfpfcnvrt
  5336 ;; This function uses a non-reentrant model
  5337 ;;
  5338                           
  5339                           	psect	text22
  5340  001D84                     __ptext22:
  5341                           	opt callstack 0
  5342  001D84                     _utoa:
  5343                           	opt callstack 19
  5344  001D84                     
  5345                           ;C:\Program Files (x86)\Microchip\xc8\v2.10\pic\sources\c99\common\doprnt.c: 593: static
      +                           int utoa(FILE *fp, unsigned long long d);C:\Program Files (x86)\Microchip\xc8\v2.10\pic
      +                          \sources\c99\common\doprnt.c: 594: {;C:\Program Files (x86)\Microchip\xc8\v2.10\pic\sour
      +                          ces\c99\common\doprnt.c: 595:     int i, p, w;;C:\Program Files (x86)\Microchip\xc8\v2.1
      +                          0\pic\sources\c99\common\doprnt.c: 596:     unsigned long long n;;C:\Program Files (x86)
      +                          \Microchip\xc8\v2.10\pic\sources\c99\common\doprnt.c: 599:     if (!(prec < 0)) {
  5346  001D84  0100               	movlb	0	; () banked
  5347  001D86  BFEC               	btfsc	(_prec+1)& (0+255),7,b
  5348  001D88  EFC8  F00E         	goto	u2901
  5349  001D8C  EFCA  F00E         	goto	u2900
  5350  001D90                     u2901:
  5351  001D90  EFCB  F00E         	goto	l3471
  5352  001D94                     u2900:
  5353  001D94                     
  5354                           ; BSR set to: 0
  5355                           ;C:\Program Files (x86)\Microchip\xc8\v2.10\pic\sources\c99\common\doprnt.c: 600:       
      +                            flags &= ~(1 << 1);
  5356  001D94  93ED               	bcf	_flags& (0+255),1,b
  5357  001D96                     l3471:
  5358                           
  5359                           ; BSR set to: 0
  5360                           ;C:\Program Files (x86)\Microchip\xc8\v2.10\pic\sources\c99\common\doprnt.c: 602:     p 
      +                          = (0 < prec) ? prec : 1;
  5361  001D96  BFEC               	btfsc	(_prec+1)& (0+255),7,b
  5362  001D98  EFD8  F00E         	goto	u2910
  5363  001D9C  51EC               	movf	(_prec+1)& (0+255),w,b
  5364  001D9E  E106               	bnz	u2911
  5365  001DA0  05EB               	decf	_prec& (0+255),w,b
  5366  001DA2  B0D8               	btfsc	status,0,c
  5367  001DA4  EFD6  F00E         	goto	u2911
  5368  001DA8  EFD8  F00E         	goto	u2910
  5369  001DAC                     u2911:
  5370  001DAC  EFDE  F00E         	goto	l625
  5371  001DB0                     u2910:
  5372  001DB0                     
  5373                           ; BSR set to: 0
  5374  001DB0  0E00               	movlw	0
  5375  001DB2  6F8E               	movwf	(utoa@p+1)& (0+255),b
  5376  001DB4  0E01               	movlw	1
  5377  001DB6  6F8D               	movwf	utoa@p& (0+255),b
  5378  001DB8  EFE2  F00E         	goto	l627
  5379  001DBC                     l625:
  5380                           
  5381                           ; BSR set to: 0
  5382  001DBC  C0EB  F08D         	movff	_prec,utoa@p
  5383  001DC0  C0EC  F08E         	movff	_prec+1,utoa@p+1
  5384  001DC4                     l627:
  5385                           
  5386                           ; BSR set to: 0
  5387                           ;C:\Program Files (x86)\Microchip\xc8\v2.10\pic\sources\c99\common\doprnt.c: 603:     w 
      +                          = width;
  5388  001DC4  C0E9  F08F         	movff	_width,utoa@w
  5389  001DC8  C0EA  F090         	movff	_width+1,utoa@w+1
  5390                           
  5391                           ;C:\Program Files (x86)\Microchip\xc8\v2.10\pic\sources\c99\common\doprnt.c: 606:     n 
      +                          = d;
  5392  001DCC  C07D  F091         	movff	utoa@d,utoa@n
  5393  001DD0  C07E  F092         	movff	utoa@d+1,utoa@n+1
  5394  001DD4  C07F  F093         	movff	utoa@d+2,utoa@n+2
  5395  001DD8  C080  F094         	movff	utoa@d+3,utoa@n+3
  5396  001DDC  C081  F095         	movff	utoa@d+4,utoa@n+4
  5397  001DE0  C082  F096         	movff	utoa@d+5,utoa@n+5
  5398  001DE4  C083  F097         	movff	utoa@d+6,utoa@n+6
  5399  001DE8  C084  F098         	movff	utoa@d+7,utoa@n+7
  5400  001DEC                     
  5401                           ; BSR set to: 0
  5402                           ;C:\Program Files (x86)\Microchip\xc8\v2.10\pic\sources\c99\common\doprnt.c: 607:     i 
      +                          = sizeof(dbuf) - 1;
  5403  001DEC  0E00               	movlw	0
  5404  001DEE  6F9A               	movwf	(utoa@i+1)& (0+255),b
  5405  001DF0  0E1F               	movlw	31
  5406  001DF2  6F99               	movwf	utoa@i& (0+255),b
  5407  001DF4                     
  5408                           ; BSR set to: 0
  5409                           ;C:\Program Files (x86)\Microchip\xc8\v2.10\pic\sources\c99\common\doprnt.c: 608:     db
      +                          uf[i] = '\0';
  5410  001DF4  0E00               	movlw	0
  5411  001DF6  0101               	movlb	1	; () banked
  5412  001DF8  6F61               	movwf	(_dbuf+31)& (0+255),b
  5413                           
  5414                           ;C:\Program Files (x86)\Microchip\xc8\v2.10\pic\sources\c99\common\doprnt.c: 609:     wh
      +                          ile (i && (n || (0 < p) || ((0 < w) && (flags & (1 << 1))))) {
  5415  001DFA  EF76  F00F         	goto	l3489
  5416  001DFE                     l3479:
  5417                           
  5418                           ; BSR set to: 0
  5419                           ;C:\Program Files (x86)\Microchip\xc8\v2.10\pic\sources\c99\common\doprnt.c: 610:       
      +                            --i;
  5420  001DFE  0799               	decf	utoa@i& (0+255),f,b
  5421  001E00  A0D8               	btfss	status,0,c
  5422  001E02  079A               	decf	(utoa@i+1)& (0+255),f,b
  5423  001E04                     
  5424                           ; BSR set to: 0
  5425                           ;C:\Program Files (x86)\Microchip\xc8\v2.10\pic\sources\c99\common\doprnt.c: 611:       
      +                            dbuf[i] = '0' + (n % 10);
  5426  001E04  0E42               	movlw	low _dbuf
  5427  001E06  2599               	addwf	utoa@i& (0+255),w,b
  5428  001E08  6ED9               	movwf	fsr2l,c
  5429  001E0A  0E01               	movlw	high _dbuf
  5430  001E0C  219A               	addwfc	(utoa@i+1)& (0+255),w,b
  5431  001E0E  6EDA               	movwf	fsr2h,c
  5432  001E10  C091  F060         	movff	utoa@n,___lomod@dividend
  5433  001E14  C092  F061         	movff	utoa@n+1,___lomod@dividend+1
  5434  001E18  C093  F062         	movff	utoa@n+2,___lomod@dividend+2
  5435  001E1C  C094  F063         	movff	utoa@n+3,___lomod@dividend+3
  5436  001E20  C095  F064         	movff	utoa@n+4,___lomod@dividend+4
  5437  001E24  C096  F065         	movff	utoa@n+5,___lomod@dividend+5
  5438  001E28  C097  F066         	movff	utoa@n+6,___lomod@dividend+6
  5439  001E2C  C098  F067         	movff	utoa@n+7,___lomod@dividend+7
  5440  001E30  0E0A               	movlw	10
  5441  001E32  6F68               	movwf	___lomod@divisor& (0+255),b
  5442  001E34  0E00               	movlw	0
  5443  001E36  6F69               	movwf	(___lomod@divisor+1)& (0+255),b
  5444  001E38  0E00               	movlw	0
  5445  001E3A  6F6A               	movwf	(___lomod@divisor+2)& (0+255),b
  5446  001E3C  0E00               	movlw	0
  5447  001E3E  6F6B               	movwf	(___lomod@divisor+3)& (0+255),b
  5448  001E40  0E00               	movlw	0
  5449  001E42  6F6C               	movwf	(___lomod@divisor+4)& (0+255),b
  5450  001E44  0E00               	movlw	0
  5451  001E46  6F6D               	movwf	(___lomod@divisor+5)& (0+255),b
  5452  001E48  0E00               	movlw	0
  5453  001E4A  6F6E               	movwf	(___lomod@divisor+6)& (0+255),b
  5454  001E4C  0E00               	movlw	0
  5455  001E4E  6F6F               	movwf	(___lomod@divisor+7)& (0+255),b
  5456  001E50  ECA2  F013         	call	___lomod	;wreg free
  5457  001E54  C060  F085         	movff	?___lomod,??_utoa
  5458  001E58  C061  F086         	movff	?___lomod+1,??_utoa+1
  5459  001E5C  C062  F087         	movff	?___lomod+2,??_utoa+2
  5460  001E60  C063  F088         	movff	?___lomod+3,??_utoa+3
  5461  001E64  C064  F089         	movff	?___lomod+4,??_utoa+4
  5462  001E68  C065  F08A         	movff	?___lomod+5,??_utoa+5
  5463  001E6C  C066  F08B         	movff	?___lomod+6,??_utoa+6
  5464  001E70  C067  F08C         	movff	?___lomod+7,??_utoa+7
  5465  001E74  0100               	movlb	0	; () banked
  5466  001E76  5185               	movf	??_utoa& (0+255),w,b
  5467  001E78  0F30               	addlw	48
  5468  001E7A  6EDF               	movwf	indf2,c
  5469  001E7C                     
  5470                           ; BSR set to: 0
  5471                           ;C:\Program Files (x86)\Microchip\xc8\v2.10\pic\sources\c99\common\doprnt.c: 612:       
      +                            --p;
  5472  001E7C  078D               	decf	utoa@p& (0+255),f,b
  5473  001E7E  A0D8               	btfss	status,0,c
  5474  001E80  078E               	decf	(utoa@p+1)& (0+255),f,b
  5475  001E82                     
  5476                           ; BSR set to: 0
  5477                           ;C:\Program Files (x86)\Microchip\xc8\v2.10\pic\sources\c99\common\doprnt.c: 613:       
      +                            --w;
  5478  001E82  078F               	decf	utoa@w& (0+255),f,b
  5479  001E84  A0D8               	btfss	status,0,c
  5480  001E86  0790               	decf	(utoa@w+1)& (0+255),f,b
  5481  001E88                     
  5482                           ; BSR set to: 0
  5483                           ;C:\Program Files (x86)\Microchip\xc8\v2.10\pic\sources\c99\common\doprnt.c: 614:       
      +                            n = n / 10;
  5484  001E88  C091  F060         	movff	utoa@n,___lodiv@dividend
  5485  001E8C  C092  F061         	movff	utoa@n+1,___lodiv@dividend+1
  5486  001E90  C093  F062         	movff	utoa@n+2,___lodiv@dividend+2
  5487  001E94  C094  F063         	movff	utoa@n+3,___lodiv@dividend+3
  5488  001E98  C095  F064         	movff	utoa@n+4,___lodiv@dividend+4
  5489  001E9C  C096  F065         	movff	utoa@n+5,___lodiv@dividend+5
  5490  001EA0  C097  F066         	movff	utoa@n+6,___lodiv@dividend+6
  5491  001EA4  C098  F067         	movff	utoa@n+7,___lodiv@dividend+7
  5492  001EA8  0E0A               	movlw	10
  5493  001EAA  6F68               	movwf	___lodiv@divisor& (0+255),b
  5494  001EAC  0E00               	movlw	0
  5495  001EAE  6F69               	movwf	(___lodiv@divisor+1)& (0+255),b
  5496  001EB0  0E00               	movlw	0
  5497  001EB2  6F6A               	movwf	(___lodiv@divisor+2)& (0+255),b
  5498  001EB4  0E00               	movlw	0
  5499  001EB6  6F6B               	movwf	(___lodiv@divisor+3)& (0+255),b
  5500  001EB8  0E00               	movlw	0
  5501  001EBA  6F6C               	movwf	(___lodiv@divisor+4)& (0+255),b
  5502  001EBC  0E00               	movlw	0
  5503  001EBE  6F6D               	movwf	(___lodiv@divisor+5)& (0+255),b
  5504  001EC0  0E00               	movlw	0
  5505  001EC2  6F6E               	movwf	(___lodiv@divisor+6)& (0+255),b
  5506  001EC4  0E00               	movlw	0
  5507  001EC6  6F6F               	movwf	(___lodiv@divisor+7)& (0+255),b
  5508  001EC8  EC29  F013         	call	___lodiv	;wreg free
  5509  001ECC  C060  F091         	movff	?___lodiv,utoa@n
  5510  001ED0  C061  F092         	movff	?___lodiv+1,utoa@n+1
  5511  001ED4  C062  F093         	movff	?___lodiv+2,utoa@n+2
  5512  001ED8  C063  F094         	movff	?___lodiv+3,utoa@n+3
  5513  001EDC  C064  F095         	movff	?___lodiv+4,utoa@n+4
  5514  001EE0  C065  F096         	movff	?___lodiv+5,utoa@n+5
  5515  001EE4  C066  F097         	movff	?___lodiv+6,utoa@n+6
  5516  001EE8  C067  F098         	movff	?___lodiv+7,utoa@n+7
  5517  001EEC                     l3489:
  5518                           
  5519                           ;C:\Program Files (x86)\Microchip\xc8\v2.10\pic\sources\c99\common\doprnt.c: 609:     wh
      +                          ile (i && (n || (0 < p) || ((0 < w) && (flags & (1 << 1))))) {
  5520  001EEC  0100               	movlb	0	; () banked
  5521  001EEE  5199               	movf	utoa@i& (0+255),w,b
  5522  001EF0  119A               	iorwf	(utoa@i+1)& (0+255),w,b
  5523  001EF2  B4D8               	btfsc	status,2,c
  5524  001EF4  EF7E  F00F         	goto	u2921
  5525  001EF8  EF80  F00F         	goto	u2920
  5526  001EFC                     u2921:
  5527  001EFC  EFB0  F00F         	goto	l3499
  5528  001F00                     u2920:
  5529  001F00                     
  5530                           ; BSR set to: 0
  5531  001F00  5191               	movf	utoa@n& (0+255),w,b
  5532  001F02  1192               	iorwf	(utoa@n+1)& (0+255),w,b
  5533  001F04  1193               	iorwf	(utoa@n+2)& (0+255),w,b
  5534  001F06  1194               	iorwf	(utoa@n+3)& (0+255),w,b
  5535  001F08  1195               	iorwf	(utoa@n+4)& (0+255),w,b
  5536  001F0A  1196               	iorwf	(utoa@n+5)& (0+255),w,b
  5537  001F0C  1197               	iorwf	(utoa@n+6)& (0+255),w,b
  5538  001F0E  1198               	iorwf	(utoa@n+7)& (0+255),w,b
  5539  001F10  A4D8               	btfss	status,2,c
  5540  001F12  EF8D  F00F         	goto	u2931
  5541  001F16  EF8F  F00F         	goto	u2930
  5542  001F1A                     u2931:
  5543  001F1A  EFFF  F00E         	goto	l3479
  5544  001F1E                     u2930:
  5545  001F1E                     
  5546                           ; BSR set to: 0
  5547  001F1E  BF8E               	btfsc	(utoa@p+1)& (0+255),7,b
  5548  001F20  EF9C  F00F         	goto	u2940
  5549  001F24  518E               	movf	(utoa@p+1)& (0+255),w,b
  5550  001F26  E106               	bnz	u2941
  5551  001F28  058D               	decf	utoa@p& (0+255),w,b
  5552  001F2A  B0D8               	btfsc	status,0,c
  5553  001F2C  EF9A  F00F         	goto	u2941
  5554  001F30  EF9C  F00F         	goto	u2940
  5555  001F34                     u2941:
  5556  001F34  EFFF  F00E         	goto	l3479
  5557  001F38                     u2940:
  5558  001F38                     
  5559                           ; BSR set to: 0
  5560  001F38  BF90               	btfsc	(utoa@w+1)& (0+255),7,b
  5561  001F3A  EFA7  F00F         	goto	u2951
  5562  001F3E  5190               	movf	(utoa@w+1)& (0+255),w,b
  5563  001F40  E108               	bnz	u2950
  5564  001F42  058F               	decf	utoa@w& (0+255),w,b
  5565  001F44  A0D8               	btfss	status,0,c
  5566  001F46  EFA7  F00F         	goto	u2951
  5567  001F4A  EFA9  F00F         	goto	u2950
  5568  001F4E                     u2951:
  5569  001F4E  EFB0  F00F         	goto	l3499
  5570  001F52                     u2950:
  5571  001F52                     
  5572                           ; BSR set to: 0
  5573  001F52  B3ED               	btfsc	_flags& (0+255),1,b
  5574  001F54  EFAE  F00F         	goto	u2961
  5575  001F58  EFB0  F00F         	goto	u2960
  5576  001F5C                     u2961:
  5577  001F5C  EFFF  F00E         	goto	l3479
  5578  001F60                     u2960:
  5579  001F60                     l3499:
  5580                           
  5581                           ; BSR set to: 0
  5582                           ;C:\Program Files (x86)\Microchip\xc8\v2.10\pic\sources\c99\common\doprnt.c: 618:     re
      +                          turn pad(fp, &dbuf[i], w);
  5583  001F60  C07B  F070         	movff	utoa@fp,pad@fp
  5584  001F64  C07C  F071         	movff	utoa@fp+1,pad@fp+1
  5585  001F68  0E42               	movlw	low _dbuf
  5586  001F6A  2599               	addwf	utoa@i& (0+255),w,b
  5587  001F6C  6F72               	movwf	pad@buf& (0+255),b
  5588  001F6E  0E01               	movlw	high _dbuf
  5589  001F70  219A               	addwfc	(utoa@i+1)& (0+255),w,b
  5590  001F72  6F73               	movwf	(pad@buf+1)& (0+255),b
  5591  001F74  C08F  F074         	movff	utoa@w,pad@p
  5592  001F78  C090  F075         	movff	utoa@w+1,pad@p+1
  5593  001F7C  EC41  F015         	call	_pad	;wreg free
  5594  001F80  C070  F07B         	movff	?_pad,?_utoa
  5595  001F84  C071  F07C         	movff	?_pad+1,?_utoa+1
  5596  001F88  0012               	return		;funcret
  5597  001F8A                     __end_of_utoa:
  5598                           	opt callstack 0
  5599                           
  5600 ;; *************** function _pad *****************
  5601 ;; Defined at:
  5602 ;;		line 72 in file "C:\Program Files (x86)\Microchip\xc8\v2.10\pic\sources\c99\common\doprnt.c"
  5603 ;; Parameters:    Size  Location     Type
  5604 ;;  fp              2   16[BANK0 ] PTR struct _IO_FILE
  5605 ;;		 -> sprintf@f(6), 
  5606 ;;  buf             2   18[BANK0 ] PTR unsigned char 
  5607 ;;		 -> dbuf(32), 
  5608 ;;  p               2   20[BANK0 ] int 
  5609 ;; Auto vars:     Size  Location     Type
  5610 ;;  w               2   25[BANK0 ] int 
  5611 ;;  i               2   23[BANK0 ] int 
  5612 ;; Return value:  Size  Location     Type
  5613 ;;                  2   16[BANK0 ] int 
  5614 ;; Registers used:
  5615 ;;		wreg, fsr1l, fsr1h, fsr2l, fsr2h, status,2, status,0, cstack
  5616 ;; Tracked objects:
  5617 ;;		On entry : 0/0
  5618 ;;		On exit  : 0/0
  5619 ;;		Unchanged: 0/0
  5620 ;; Data sizes:     COMRAM   BANK0   BANK1   BANK2   BANK3   BANK4   BANK5   BANK6   BANK7
  5621 ;;      Params:         0       6       0       0       0       0       0       0       0
  5622 ;;      Locals:         0       4       0       0       0       0       0       0       0
  5623 ;;      Temps:          0       1       0       0       0       0       0       0       0
  5624 ;;      Totals:         0      11       0       0       0       0       0       0       0
  5625 ;;Total ram usage:       11 bytes
  5626 ;; Hardware stack levels used:    1
  5627 ;; Hardware stack levels required when called:    6
  5628 ;; This function calls:
  5629 ;;		_fputc
  5630 ;;		_fputs
  5631 ;;		_strlen
  5632 ;; This function is called by:
  5633 ;;		_utoa
  5634 ;; This function uses a non-reentrant model
  5635 ;;
  5636                           
  5637                           	psect	text23
  5638  002A82                     __ptext23:
  5639                           	opt callstack 0
  5640  002A82                     _pad:
  5641                           	opt callstack 19
  5642  002A82                     
  5643                           ;C:\Program Files (x86)\Microchip\xc8\v2.10\pic\sources\c99\common\doprnt.c: 72: static 
      +                          int pad(FILE *fp, char *buf, int p);C:\Program Files (x86)\Microchip\xc8\v2.10\pic\sourc
      +                          es\c99\common\doprnt.c: 73: {;C:\Program Files (x86)\Microchip\xc8\v2.10\pic\sources\c99
      +                          \common\doprnt.c: 74:     int i, w;;C:\Program Files (x86)\Microchip\xc8\v2.10\pic\sourc
      +                          es\c99\common\doprnt.c: 77:     if (flags & (1 << 0)) {
  5644  002A82  0100               	movlb	0	; () banked
  5645  002A84  A1ED               	btfss	_flags& (0+255),0,b
  5646  002A86  EF47  F015         	goto	u2791
  5647  002A8A  EF49  F015         	goto	u2790
  5648  002A8E                     u2791:
  5649  002A8E  EF53  F015         	goto	l3411
  5650  002A92                     u2790:
  5651  002A92                     
  5652                           ; BSR set to: 0
  5653                           ;C:\Program Files (x86)\Microchip\xc8\v2.10\pic\sources\c99\common\doprnt.c: 78:        
      +                           fputs((const char *)buf, fp);
  5654  002A92  C072  F069         	movff	pad@buf,fputs@s
  5655  002A96  C073  F06A         	movff	pad@buf+1,fputs@s+1
  5656  002A9A  C070  F06B         	movff	pad@fp,fputs@fp
  5657  002A9E  C071  F06C         	movff	pad@fp+1,fputs@fp+1
  5658  002AA2  ECF0  F018         	call	_fputs	;wreg free
  5659  002AA6                     l3411:
  5660                           
  5661                           ;C:\Program Files (x86)\Microchip\xc8\v2.10\pic\sources\c99\common\doprnt.c: 82:     w =
      +                           (p < 0) ? 0 : p;
  5662  002AA6  0100               	movlb	0	; () banked
  5663  002AA8  BF75               	btfsc	(pad@p+1)& (0+255),7,b
  5664  002AAA  EF59  F015         	goto	u2801
  5665  002AAE  EF5B  F015         	goto	u2800
  5666  002AB2                     u2801:
  5667  002AB2  EF61  F015         	goto	l3415
  5668  002AB6                     u2800:
  5669  002AB6                     
  5670                           ; BSR set to: 0
  5671  002AB6  C074  F079         	movff	pad@p,pad@w
  5672  002ABA  C075  F07A         	movff	pad@p+1,pad@w+1
  5673  002ABE  EF65  F015         	goto	l615
  5674  002AC2                     l3415:
  5675                           
  5676                           ; BSR set to: 0
  5677  002AC2  0E00               	movlw	0
  5678  002AC4  6F7A               	movwf	(pad@w+1)& (0+255),b
  5679  002AC6  0E00               	movlw	0
  5680  002AC8  6F79               	movwf	pad@w& (0+255),b
  5681  002ACA                     l615:
  5682                           
  5683                           ; BSR set to: 0
  5684                           ;C:\Program Files (x86)\Microchip\xc8\v2.10\pic\sources\c99\common\doprnt.c: 83:     i =
      +                           0;
  5685  002ACA  0E00               	movlw	0
  5686  002ACC  6F78               	movwf	(pad@i+1)& (0+255),b
  5687  002ACE  0E00               	movlw	0
  5688  002AD0  6F77               	movwf	pad@i& (0+255),b
  5689                           
  5690                           ;C:\Program Files (x86)\Microchip\xc8\v2.10\pic\sources\c99\common\doprnt.c: 84:     whi
      +                          le (i < w) {
  5691  002AD2  EF78  F015         	goto	l3421
  5692  002AD6                     l3417:
  5693                           
  5694                           ; BSR set to: 0
  5695                           ;C:\Program Files (x86)\Microchip\xc8\v2.10\pic\sources\c99\common\doprnt.c: 85:        
      +                           fputc(' ', fp);
  5696  002AD6  0E00               	movlw	0
  5697  002AD8  6F61               	movwf	(fputc@c+1)& (0+255),b
  5698  002ADA  0E20               	movlw	32
  5699  002ADC  6F60               	movwf	fputc@c& (0+255),b
  5700  002ADE  C070  F062         	movff	pad@fp,fputc@fp
  5701  002AE2  C071  F063         	movff	pad@fp+1,fputc@fp+1
  5702  002AE6  ECDB  F014         	call	_fputc	;wreg free
  5703  002AEA                     
  5704                           ;C:\Program Files (x86)\Microchip\xc8\v2.10\pic\sources\c99\common\doprnt.c: 86:        
      +                           ++i;
  5705  002AEA  0100               	movlb	0	; () banked
  5706  002AEC  4B77               	infsnz	pad@i& (0+255),f,b
  5707  002AEE  2B78               	incf	(pad@i+1)& (0+255),f,b
  5708  002AF0                     l3421:
  5709                           
  5710                           ; BSR set to: 0
  5711                           ;C:\Program Files (x86)\Microchip\xc8\v2.10\pic\sources\c99\common\doprnt.c: 84:     whi
      +                          le (i < w) {
  5712  002AF0  5179               	movf	pad@w& (0+255),w,b
  5713  002AF2  5D77               	subwf	pad@i& (0+255),w,b
  5714  002AF4  5178               	movf	(pad@i+1)& (0+255),w,b
  5715  002AF6  0A80               	xorlw	128
  5716  002AF8  6F76               	movwf	??_pad& (0+255),b
  5717  002AFA  517A               	movf	(pad@w+1)& (0+255),w,b
  5718  002AFC  0A80               	xorlw	128
  5719  002AFE  5976               	subwfb	??_pad& (0+255),w,b
  5720  002B00  A0D8               	btfss	status,0,c
  5721  002B02  EF85  F015         	goto	u2811
  5722  002B06  EF87  F015         	goto	u2810
  5723  002B0A                     u2811:
  5724  002B0A  EF6B  F015         	goto	l3417
  5725  002B0E                     u2810:
  5726  002B0E                     
  5727                           ; BSR set to: 0
  5728                           ;C:\Program Files (x86)\Microchip\xc8\v2.10\pic\sources\c99\common\doprnt.c: 90:     if 
      +                          (!(flags & (1 << 0))) {
  5729  002B0E  B1ED               	btfsc	_flags& (0+255),0,b
  5730  002B10  EF8C  F015         	goto	u2821
  5731  002B14  EF8E  F015         	goto	u2820
  5732  002B18                     u2821:
  5733  002B18  EF98  F015         	goto	l3425
  5734  002B1C                     u2820:
  5735  002B1C                     
  5736                           ; BSR set to: 0
  5737                           ;C:\Program Files (x86)\Microchip\xc8\v2.10\pic\sources\c99\common\doprnt.c: 91:        
      +                           fputs((const char *)buf, fp);
  5738  002B1C  C072  F069         	movff	pad@buf,fputs@s
  5739  002B20  C073  F06A         	movff	pad@buf+1,fputs@s+1
  5740  002B24  C070  F06B         	movff	pad@fp,fputs@fp
  5741  002B28  C071  F06C         	movff	pad@fp+1,fputs@fp+1
  5742  002B2C  ECF0  F018         	call	_fputs	;wreg free
  5743  002B30                     l3425:
  5744                           
  5745                           ;C:\Program Files (x86)\Microchip\xc8\v2.10\pic\sources\c99\common\doprnt.c: 94:     ret
      +                          urn strlen(buf) + w;
  5746  002B30  C072  F060         	movff	pad@buf,strlen@s
  5747  002B34  C073  F061         	movff	pad@buf+1,strlen@s+1
  5748  002B38  EC73  F019         	call	_strlen	;wreg free
  5749  002B3C  0100               	movlb	0	; () banked
  5750  002B3E  5179               	movf	pad@w& (0+255),w,b
  5751  002B40  2560               	addwf	?_strlen& (0+255),w,b
  5752  002B42  6F70               	movwf	?_pad& (0+255),b
  5753  002B44  517A               	movf	(pad@w+1)& (0+255),w,b
  5754  002B46  2161               	addwfc	(?_strlen+1)& (0+255),w,b
  5755  002B48  6F71               	movwf	(?_pad+1)& (0+255),b
  5756  002B4A                     
  5757                           ; BSR set to: 0
  5758  002B4A  0012               	return		;funcret
  5759  002B4C                     __end_of_pad:
  5760                           	opt callstack 0
  5761                           
  5762 ;; *************** function _strlen *****************
  5763 ;; Defined at:
  5764 ;;		line 5 in file "C:\Program Files (x86)\Microchip\xc8\v2.10\pic\sources\c99\common\strlen.c"
  5765 ;; Parameters:    Size  Location     Type
  5766 ;;  s               2    0[BANK0 ] PTR const unsigned char 
  5767 ;;		 -> dbuf(32), 
  5768 ;; Auto vars:     Size  Location     Type
  5769 ;;  a               2    2[BANK0 ] PTR const unsigned char 
  5770 ;;		 -> dbuf(32), 
  5771 ;; Return value:  Size  Location     Type
  5772 ;;                  2    0[BANK0 ] unsigned int 
  5773 ;; Registers used:
  5774 ;;		wreg, fsr2l, fsr2h, status,2, status,0
  5775 ;; Tracked objects:
  5776 ;;		On entry : 0/0
  5777 ;;		On exit  : 0/0
  5778 ;;		Unchanged: 0/0
  5779 ;; Data sizes:     COMRAM   BANK0   BANK1   BANK2   BANK3   BANK4   BANK5   BANK6   BANK7
  5780 ;;      Params:         0       2       0       0       0       0       0       0       0
  5781 ;;      Locals:         0       2       0       0       0       0       0       0       0
  5782 ;;      Temps:          0       0       0       0       0       0       0       0       0
  5783 ;;      Totals:         0       4       0       0       0       0       0       0       0
  5784 ;;Total ram usage:        4 bytes
  5785 ;; Hardware stack levels used:    1
  5786 ;; Hardware stack levels required when called:    3
  5787 ;; This function calls:
  5788 ;;		Nothing
  5789 ;; This function is called by:
  5790 ;;		_pad
  5791 ;; This function uses a non-reentrant model
  5792 ;;
  5793                           
  5794                           	psect	text24
  5795  0032E6                     __ptext24:
  5796                           	opt callstack 0
  5797  0032E6                     _strlen:
  5798                           	opt callstack 21
  5799  0032E6  C060  F062         	movff	strlen@s,strlen@a
  5800  0032EA  C061  F063         	movff	strlen@s+1,strlen@a+1
  5801  0032EE  EF7C  F019         	goto	l3401
  5802  0032F2                     l3399:
  5803  0032F2  0100               	movlb	0	; () banked
  5804  0032F4  4B60               	infsnz	strlen@s& (0+255),f,b
  5805  0032F6  2B61               	incf	(strlen@s+1)& (0+255),f,b
  5806  0032F8                     l3401:
  5807  0032F8  C060  FFD9         	movff	strlen@s,fsr2l
  5808  0032FC  C061  FFDA         	movff	strlen@s+1,fsr2h
  5809  003300  50DF               	movf	indf2,w,c
  5810  003302  A4D8               	btfss	status,2,c
  5811  003304  EF86  F019         	goto	u2781
  5812  003308  EF88  F019         	goto	u2780
  5813  00330C                     u2781:
  5814  00330C  EF79  F019         	goto	l3399
  5815  003310                     u2780:
  5816  003310  0100               	movlb	0	; () banked
  5817  003312  5162               	movf	strlen@a& (0+255),w,b
  5818  003314  5D60               	subwf	strlen@s& (0+255),w,b
  5819  003316  6F60               	movwf	?_strlen& (0+255),b
  5820  003318  5163               	movf	(strlen@a+1)& (0+255),w,b
  5821  00331A  5961               	subwfb	(strlen@s+1)& (0+255),w,b
  5822  00331C  6F61               	movwf	(?_strlen+1)& (0+255),b
  5823  00331E                     
  5824                           ; BSR set to: 0
  5825  00331E  0012               	return		;funcret
  5826  003320                     __end_of_strlen:
  5827                           	opt callstack 0
  5828                           
  5829 ;; *************** function _fputs *****************
  5830 ;; Defined at:
  5831 ;;		line 8 in file "C:\Program Files (x86)\Microchip\xc8\v2.10\pic\sources\c99\common\nf_fputs.c"
  5832 ;; Parameters:    Size  Location     Type
  5833 ;;  s               2    9[BANK0 ] PTR const unsigned char 
  5834 ;;		 -> dbuf(32), 
  5835 ;;  fp              2   11[BANK0 ] PTR struct _IO_FILE
  5836 ;;		 -> sprintf@f(6), 
  5837 ;; Auto vars:     Size  Location     Type
  5838 ;;  i               2   14[BANK0 ] int 
  5839 ;;  c               1   13[BANK0 ] unsigned char 
  5840 ;; Return value:  Size  Location     Type
  5841 ;;                  2    9[BANK0 ] int 
  5842 ;; Registers used:
  5843 ;;		wreg, fsr1l, fsr1h, fsr2l, fsr2h, status,2, status,0, cstack
  5844 ;; Tracked objects:
  5845 ;;		On entry : 0/0
  5846 ;;		On exit  : 0/0
  5847 ;;		Unchanged: 0/0
  5848 ;; Data sizes:     COMRAM   BANK0   BANK1   BANK2   BANK3   BANK4   BANK5   BANK6   BANK7
  5849 ;;      Params:         0       4       0       0       0       0       0       0       0
  5850 ;;      Locals:         0       3       0       0       0       0       0       0       0
  5851 ;;      Temps:          0       0       0       0       0       0       0       0       0
  5852 ;;      Totals:         0       7       0       0       0       0       0       0       0
  5853 ;;Total ram usage:        7 bytes
  5854 ;; Hardware stack levels used:    1
  5855 ;; Hardware stack levels required when called:    5
  5856 ;; This function calls:
  5857 ;;		_fputc
  5858 ;; This function is called by:
  5859 ;;		_pad
  5860 ;; This function uses a non-reentrant model
  5861 ;;
  5862                           
  5863                           	psect	text25
  5864  0031E0                     __ptext25:
  5865                           	opt callstack 0
  5866  0031E0                     _fputs:
  5867                           	opt callstack 19
  5868  0031E0  0E00               	movlw	0
  5869  0031E2  0100               	movlb	0	; () banked
  5870  0031E4  6F6F               	movwf	(fputs@i+1)& (0+255),b
  5871  0031E6  0E00               	movlw	0
  5872  0031E8  6F6E               	movwf	fputs@i& (0+255),b
  5873  0031EA  EF03  F019         	goto	l3395
  5874  0031EE                     l3391:
  5875                           
  5876                           ; BSR set to: 0
  5877  0031EE  C06D  F060         	movff	fputs@c,fputc@c
  5878  0031F2  6B61               	clrf	(fputc@c+1)& (0+255),b
  5879  0031F4  C06B  F062         	movff	fputs@fp,fputc@fp
  5880  0031F8  C06C  F063         	movff	fputs@fp+1,fputc@fp+1
  5881  0031FC  ECDB  F014         	call	_fputc	;wreg free
  5882  003200  0100               	movlb	0	; () banked
  5883  003202  4B6E               	infsnz	fputs@i& (0+255),f,b
  5884  003204  2B6F               	incf	(fputs@i+1)& (0+255),f,b
  5885  003206                     l3395:
  5886                           
  5887                           ; BSR set to: 0
  5888  003206  516E               	movf	fputs@i& (0+255),w,b
  5889  003208  2569               	addwf	fputs@s& (0+255),w,b
  5890  00320A  6ED9               	movwf	fsr2l,c
  5891  00320C  516F               	movf	(fputs@i+1)& (0+255),w,b
  5892  00320E  216A               	addwfc	(fputs@s+1)& (0+255),w,b
  5893  003210  6EDA               	movwf	fsr2h,c
  5894  003212  50DF               	movf	indf2,w,c
  5895  003214  6F6D               	movwf	fputs@c& (0+255),b
  5896  003216  516D               	movf	fputs@c& (0+255),w,b
  5897  003218  A4D8               	btfss	status,2,c
  5898  00321A  EF11  F019         	goto	u2771
  5899  00321E  EF13  F019         	goto	u2770
  5900  003222                     u2771:
  5901  003222  EFF7  F018         	goto	l3391
  5902  003226                     u2770:
  5903  003226                     
  5904                           ; BSR set to: 0
  5905  003226  0012               	return		;funcret
  5906  003228                     __end_of_fputs:
  5907                           	opt callstack 0
  5908                           
  5909 ;; *************** function _fputc *****************
  5910 ;; Defined at:
  5911 ;;		line 8 in file "C:\Program Files (x86)\Microchip\xc8\v2.10\pic\sources\c99\common\nf_fputc.c"
  5912 ;; Parameters:    Size  Location     Type
  5913 ;;  c               2    0[BANK0 ] int 
  5914 ;;  fp              2    2[BANK0 ] PTR struct _IO_FILE
  5915 ;;		 -> sprintf@f(6), 
  5916 ;; Auto vars:     Size  Location     Type
  5917 ;;		None
  5918 ;; Return value:  Size  Location     Type
  5919 ;;                  2    0[BANK0 ] int 
  5920 ;; Registers used:
  5921 ;;		wreg, fsr1l, fsr1h, fsr2l, fsr2h, status,2, status,0, cstack
  5922 ;; Tracked objects:
  5923 ;;		On entry : 0/0
  5924 ;;		On exit  : 0/0
  5925 ;;		Unchanged: 0/0
  5926 ;; Data sizes:     COMRAM   BANK0   BANK1   BANK2   BANK3   BANK4   BANK5   BANK6   BANK7
  5927 ;;      Params:         0       4       0       0       0       0       0       0       0
  5928 ;;      Locals:         0       0       0       0       0       0       0       0       0
  5929 ;;      Temps:          0       5       0       0       0       0       0       0       0
  5930 ;;      Totals:         0       9       0       0       0       0       0       0       0
  5931 ;;Total ram usage:        9 bytes
  5932 ;; Hardware stack levels used:    1
  5933 ;; Hardware stack levels required when called:    4
  5934 ;; This function calls:
  5935 ;;		_putch
  5936 ;; This function is called by:
  5937 ;;		_pad
  5938 ;;		_vfpfcnvrt
  5939 ;;		_fputs
  5940 ;; This function uses a non-reentrant model
  5941 ;;
  5942                           
  5943                           	psect	text26
  5944  0029B6                     __ptext26:
  5945                           	opt callstack 0
  5946  0029B6                     _fputc:
  5947                           	opt callstack 19
  5948  0029B6  0100               	movlb	0	; () banked
  5949  0029B8  5162               	movf	fputc@fp& (0+255),w,b
  5950  0029BA  1163               	iorwf	(fputc@fp+1)& (0+255),w,b
  5951  0029BC  B4D8               	btfsc	status,2,c
  5952  0029BE  EFE3  F014         	goto	u2731
  5953  0029C2  EFE5  F014         	goto	u2730
  5954  0029C6                     u2731:
  5955  0029C6  EFEE  F014         	goto	l3379
  5956  0029CA                     u2730:
  5957  0029CA                     
  5958                           ; BSR set to: 0
  5959  0029CA  5162               	movf	fputc@fp& (0+255),w,b
  5960  0029CC  1163               	iorwf	(fputc@fp+1)& (0+255),w,b
  5961  0029CE  A4D8               	btfss	status,2,c
  5962  0029D0  EFEC  F014         	goto	u2741
  5963  0029D4  EFEE  F014         	goto	u2740
  5964  0029D8                     u2741:
  5965  0029D8  EFF3  F014         	goto	l3381
  5966  0029DC                     u2740:
  5967  0029DC                     l3379:
  5968                           
  5969                           ; BSR set to: 0
  5970  0029DC  5160               	movf	fputc@c& (0+255),w,b
  5971  0029DE  EC56  F01A         	call	_putch
  5972  0029E2  EF40  F015         	goto	l1333
  5973  0029E6                     l3381:
  5974                           
  5975                           ; BSR set to: 0
  5976  0029E6  EE20 F004          	lfsr	2,4
  5977  0029EA  5162               	movf	fputc@fp& (0+255),w,b
  5978  0029EC  26D9               	addwf	fsr2l,f,c
  5979  0029EE  5163               	movf	(fputc@fp+1)& (0+255),w,b
  5980  0029F0  22DA               	addwfc	fsr2h,f,c
  5981  0029F2  50DE               	movf	postinc2,w,c
  5982  0029F4  10DE               	iorwf	postinc2,w,c
  5983  0029F6  B4D8               	btfsc	status,2,c
  5984  0029F8  EF00  F015         	goto	u2751
  5985  0029FC  EF02  F015         	goto	u2750
  5986  002A00                     u2751:
  5987  002A00  EF1D  F015         	goto	l3385
  5988  002A04                     u2750:
  5989  002A04                     
  5990                           ; BSR set to: 0
  5991  002A04  EE20 F004          	lfsr	2,4
  5992  002A08  5162               	movf	fputc@fp& (0+255),w,b
  5993  002A0A  26D9               	addwf	fsr2l,f,c
  5994  002A0C  5163               	movf	(fputc@fp+1)& (0+255),w,b
  5995  002A0E  22DA               	addwfc	fsr2h,f,c
  5996  002A10  EE10 F002          	lfsr	1,2
  5997  002A14  5162               	movf	fputc@fp& (0+255),w,b
  5998  002A16  26E1               	addwf	fsr1l,f,c
  5999  002A18  5163               	movf	(fputc@fp+1)& (0+255),w,b
  6000  002A1A  22E2               	addwfc	fsr1h,f,c
  6001  002A1C  50DE               	movf	postinc2,w,c
  6002  002A1E  5CE6               	subwf	postinc1,w,c
  6003  002A20  50E6               	movf	postinc1,w,c
  6004  002A22  0A80               	xorlw	128
  6005  002A24  6F68               	movwf	(??_fputc+4)& (0+255),b
  6006  002A26  50DE               	movf	postinc2,w,c
  6007  002A28  0A80               	xorlw	128
  6008  002A2A  5968               	subwfb	(??_fputc+4)& (0+255),w,b
  6009  002A2C  B0D8               	btfsc	status,0,c
  6010  002A2E  EF1B  F015         	goto	u2761
  6011  002A32  EF1D  F015         	goto	u2760
  6012  002A36                     u2761:
  6013  002A36  EF40  F015         	goto	l1333
  6014  002A3A                     u2760:
  6015  002A3A                     l3385:
  6016                           
  6017                           ; BSR set to: 0
  6018  002A3A  EE20 F002          	lfsr	2,2
  6019  002A3E  5162               	movf	fputc@fp& (0+255),w,b
  6020  002A40  26D9               	addwf	fsr2l,f,c
  6021  002A42  5163               	movf	(fputc@fp+1)& (0+255),w,b
  6022  002A44  22DA               	addwfc	fsr2h,f,c
  6023  002A46  CFDE F064          	movff	postinc2,??_fputc
  6024  002A4A  CFDD F065          	movff	postdec2,??_fputc+1
  6025  002A4E  C062  FFD9         	movff	fputc@fp,fsr2l
  6026  002A52  C063  FFDA         	movff	fputc@fp+1,fsr2h
  6027  002A56  CFDE F066          	movff	postinc2,??_fputc+2
  6028  002A5A  CFDD F067          	movff	postdec2,??_fputc+3
  6029  002A5E  5164               	movf	??_fputc& (0+255),w,b
  6030  002A60  2566               	addwf	(??_fputc+2)& (0+255),w,b
  6031  002A62  6ED9               	movwf	fsr2l,c
  6032  002A64  5165               	movf	(??_fputc+1)& (0+255),w,b
  6033  002A66  2167               	addwfc	(??_fputc+3)& (0+255),w,b
  6034  002A68  6EDA               	movwf	fsr2h,c
  6035  002A6A  C060  FFDF         	movff	fputc@c,indf2
  6036  002A6E  EE20 F002          	lfsr	2,2
  6037  002A72  5162               	movf	fputc@fp& (0+255),w,b
  6038  002A74  26D9               	addwf	fsr2l,f,c
  6039  002A76  5163               	movf	(fputc@fp+1)& (0+255),w,b
  6040  002A78  22DA               	addwfc	fsr2h,f,c
  6041  002A7A  2ADE               	incf	postinc2,f,c
  6042  002A7C  0E00               	movlw	0
  6043  002A7E  22DD               	addwfc	postdec2,f,c
  6044  002A80                     l1333:
  6045  002A80  0012               	return		;funcret
  6046  002A82                     __end_of_fputc:
  6047                           	opt callstack 0
  6048                           
  6049 ;; *************** function _putch *****************
  6050 ;; Defined at:
  6051 ;;		line 7 in file "C:\Program Files (x86)\Microchip\xc8\v2.10\pic\sources\c99\common\putch.c"
  6052 ;; Parameters:    Size  Location     Type
  6053 ;;  c               1    wreg     unsigned char 
  6054 ;; Auto vars:     Size  Location     Type
  6055 ;;  c               1    0[COMRAM] unsigned char 
  6056 ;; Return value:  Size  Location     Type
  6057 ;;                  1    wreg      void 
  6058 ;; Registers used:
  6059 ;;		wreg
  6060 ;; Tracked objects:
  6061 ;;		On entry : 0/0
  6062 ;;		On exit  : 0/0
  6063 ;;		Unchanged: 0/0
  6064 ;; Data sizes:     COMRAM   BANK0   BANK1   BANK2   BANK3   BANK4   BANK5   BANK6   BANK7
  6065 ;;      Params:         0       0       0       0       0       0       0       0       0
  6066 ;;      Locals:         0       0       0       0       0       0       0       0       0
  6067 ;;      Temps:          0       0       0       0       0       0       0       0       0
  6068 ;;      Totals:         0       0       0       0       0       0       0       0       0
  6069 ;;Total ram usage:        0 bytes
  6070 ;; Hardware stack levels used:    1
  6071 ;; Hardware stack levels required when called:    3
  6072 ;; This function calls:
  6073 ;;		Nothing
  6074 ;; This function is called by:
  6075 ;;		_fputc
  6076 ;; This function uses a non-reentrant model
  6077 ;;
  6078                           
  6079                           	psect	text27
  6080  0034AC                     __ptext27:
  6081                           	opt callstack 0
  6082  0034AC                     _putch:
  6083                           	opt callstack 19
  6084  0034AC  0012               	return		;funcret
  6085  0034AE                     __end_of_putch:
  6086                           	opt callstack 0
  6087                           
  6088 ;; *************** function ___lomod *****************
  6089 ;; Defined at:
  6090 ;;		line 9 in file "C:\Program Files (x86)\Microchip\xc8\v2.10\pic\sources\c99\common\lomod.c"
  6091 ;; Parameters:    Size  Location     Type
  6092 ;;  dividend        8    0[BANK0 ] unsigned long long 
  6093 ;;  divisor         8    8[BANK0 ] unsigned long long 
  6094 ;; Auto vars:     Size  Location     Type
  6095 ;;  counter         1   16[BANK0 ] unsigned char 
  6096 ;; Return value:  Size  Location     Type
  6097 ;;                  8    0[BANK0 ] unsigned long long 
  6098 ;; Registers used:
  6099 ;;		wreg, status,2, status,0
  6100 ;; Tracked objects:
  6101 ;;		On entry : 0/0
  6102 ;;		On exit  : 0/0
  6103 ;;		Unchanged: 0/0
  6104 ;; Data sizes:     COMRAM   BANK0   BANK1   BANK2   BANK3   BANK4   BANK5   BANK6   BANK7
  6105 ;;      Params:         0      16       0       0       0       0       0       0       0
  6106 ;;      Locals:         0       1       0       0       0       0       0       0       0
  6107 ;;      Temps:          0       0       0       0       0       0       0       0       0
  6108 ;;      Totals:         0      17       0       0       0       0       0       0       0
  6109 ;;Total ram usage:       17 bytes
  6110 ;; Hardware stack levels used:    1
  6111 ;; Hardware stack levels required when called:    3
  6112 ;; This function calls:
  6113 ;;		Nothing
  6114 ;; This function is called by:
  6115 ;;		_utoa
  6116 ;; This function uses a non-reentrant model
  6117 ;;
  6118                           
  6119                           	psect	text28
  6120  002744                     __ptext28:
  6121                           	opt callstack 0
  6122  002744                     ___lomod:
  6123                           	opt callstack 22
  6124  002744  0100               	movlb	0	; () banked
  6125  002746  5168               	movf	___lomod@divisor& (0+255),w,b
  6126  002748  1169               	iorwf	(___lomod@divisor+1)& (0+255),w,b
  6127  00274A  116A               	iorwf	(___lomod@divisor+2)& (0+255),w,b
  6128  00274C  116B               	iorwf	(___lomod@divisor+3)& (0+255),w,b
  6129  00274E  116C               	iorwf	(___lomod@divisor+4)& (0+255),w,b
  6130  002750  116D               	iorwf	(___lomod@divisor+5)& (0+255),w,b
  6131  002752  116E               	iorwf	(___lomod@divisor+6)& (0+255),w,b
  6132  002754  116F               	iorwf	(___lomod@divisor+7)& (0+255),w,b
  6133  002756  B4D8               	btfsc	status,2,c
  6134  002758  EFB0  F013         	goto	u2871
  6135  00275C  EFB2  F013         	goto	u2870
  6136  002760                     u2871:
  6137  002760  EFFA  F013         	goto	l1098
  6138  002764                     u2870:
  6139  002764                     
  6140                           ; BSR set to: 0
  6141  002764  0E01               	movlw	1
  6142  002766  6F70               	movwf	___lomod@counter& (0+255),b
  6143  002768  EFC0  F013         	goto	l3457
  6144  00276C                     l3455:
  6145                           
  6146                           ; BSR set to: 0
  6147  00276C  90D8               	bcf	status,0,c
  6148  00276E  3768               	rlcf	___lomod@divisor& (0+255),f,b
  6149  002770  3769               	rlcf	(___lomod@divisor+1)& (0+255),f,b
  6150  002772  376A               	rlcf	(___lomod@divisor+2)& (0+255),f,b
  6151  002774  376B               	rlcf	(___lomod@divisor+3)& (0+255),f,b
  6152  002776  376C               	rlcf	(___lomod@divisor+4)& (0+255),f,b
  6153  002778  376D               	rlcf	(___lomod@divisor+5)& (0+255),f,b
  6154  00277A  376E               	rlcf	(___lomod@divisor+6)& (0+255),f,b
  6155  00277C  376F               	rlcf	(___lomod@divisor+7)& (0+255),f,b
  6156  00277E  2B70               	incf	___lomod@counter& (0+255),f,b
  6157  002780                     l3457:
  6158                           
  6159                           ; BSR set to: 0
  6160  002780  AF6F               	btfss	(___lomod@divisor+7)& (0+255),7,b
  6161  002782  EFC5  F013         	goto	u2881
  6162  002786  EFC7  F013         	goto	u2880
  6163  00278A                     u2881:
  6164  00278A  EFB6  F013         	goto	l3455
  6165  00278E                     u2880:
  6166  00278E                     l3459:
  6167                           
  6168                           ; BSR set to: 0
  6169  00278E  5168               	movf	___lomod@divisor& (0+255),w,b
  6170  002790  5D60               	subwf	___lomod@dividend& (0+255),w,b
  6171  002792  5169               	movf	(___lomod@divisor+1)& (0+255),w,b
  6172  002794  5961               	subwfb	(___lomod@dividend+1)& (0+255),w,b
  6173  002796  516A               	movf	(___lomod@divisor+2)& (0+255),w,b
  6174  002798  5962               	subwfb	(___lomod@dividend+2)& (0+255),w,b
  6175  00279A  516B               	movf	(___lomod@divisor+3)& (0+255),w,b
  6176  00279C  5963               	subwfb	(___lomod@dividend+3)& (0+255),w,b
  6177  00279E  516C               	movf	(___lomod@divisor+4)& (0+255),w,b
  6178  0027A0  5964               	subwfb	(___lomod@dividend+4)& (0+255),w,b
  6179  0027A2  516D               	movf	(___lomod@divisor+5)& (0+255),w,b
  6180  0027A4  5965               	subwfb	(___lomod@dividend+5)& (0+255),w,b
  6181  0027A6  516E               	movf	(___lomod@divisor+6)& (0+255),w,b
  6182  0027A8  5966               	subwfb	(___lomod@dividend+6)& (0+255),w,b
  6183  0027AA  516F               	movf	(___lomod@divisor+7)& (0+255),w,b
  6184  0027AC  5967               	subwfb	(___lomod@dividend+7)& (0+255),w,b
  6185  0027AE  A0D8               	btfss	status,0,c
  6186  0027B0  EFDC  F013         	goto	u2891
  6187  0027B4  EFDE  F013         	goto	u2890
  6188  0027B8                     u2891:
  6189  0027B8  EFEE  F013         	goto	l3463
  6190  0027BC                     u2890:
  6191  0027BC                     
  6192                           ; BSR set to: 0
  6193  0027BC  5168               	movf	___lomod@divisor& (0+255),w,b
  6194  0027BE  5F60               	subwf	___lomod@dividend& (0+255),f,b
  6195  0027C0  5169               	movf	(___lomod@divisor+1)& (0+255),w,b
  6196  0027C2  5B61               	subwfb	(___lomod@dividend+1)& (0+255),f,b
  6197  0027C4  516A               	movf	(___lomod@divisor+2)& (0+255),w,b
  6198  0027C6  5B62               	subwfb	(___lomod@dividend+2)& (0+255),f,b
  6199  0027C8  516B               	movf	(___lomod@divisor+3)& (0+255),w,b
  6200  0027CA  5B63               	subwfb	(___lomod@dividend+3)& (0+255),f,b
  6201  0027CC  516C               	movf	(___lomod@divisor+4)& (0+255),w,b
  6202  0027CE  5B64               	subwfb	(___lomod@dividend+4)& (0+255),f,b
  6203  0027D0  516D               	movf	(___lomod@divisor+5)& (0+255),w,b
  6204  0027D2  5B65               	subwfb	(___lomod@dividend+5)& (0+255),f,b
  6205  0027D4  516E               	movf	(___lomod@divisor+6)& (0+255),w,b
  6206  0027D6  5B66               	subwfb	(___lomod@dividend+6)& (0+255),f,b
  6207  0027D8  516F               	movf	(___lomod@divisor+7)& (0+255),w,b
  6208  0027DA  5B67               	subwfb	(___lomod@dividend+7)& (0+255),f,b
  6209  0027DC                     l3463:
  6210                           
  6211                           ; BSR set to: 0
  6212  0027DC  90D8               	bcf	status,0,c
  6213  0027DE  336F               	rrcf	(___lomod@divisor+7)& (0+255),f,b
  6214  0027E0  336E               	rrcf	(___lomod@divisor+6)& (0+255),f,b
  6215  0027E2  336D               	rrcf	(___lomod@divisor+5)& (0+255),f,b
  6216  0027E4  336C               	rrcf	(___lomod@divisor+4)& (0+255),f,b
  6217  0027E6  336B               	rrcf	(___lomod@divisor+3)& (0+255),f,b
  6218  0027E8  336A               	rrcf	(___lomod@divisor+2)& (0+255),f,b
  6219  0027EA  3369               	rrcf	(___lomod@divisor+1)& (0+255),f,b
  6220  0027EC  3368               	rrcf	___lomod@divisor& (0+255),f,b
  6221  0027EE                     
  6222                           ; BSR set to: 0
  6223  0027EE  2F70               	decfsz	___lomod@counter& (0+255),f,b
  6224  0027F0  EFC7  F013         	goto	l3459
  6225  0027F4                     l1098:
  6226                           
  6227                           ; BSR set to: 0
  6228  0027F4  C060  F060         	movff	___lomod@dividend,?___lomod
  6229  0027F8  C061  F061         	movff	___lomod@dividend+1,?___lomod+1
  6230  0027FC  C062  F062         	movff	___lomod@dividend+2,?___lomod+2
  6231  002800  C063  F063         	movff	___lomod@dividend+3,?___lomod+3
  6232  002804  C064  F064         	movff	___lomod@dividend+4,?___lomod+4
  6233  002808  C065  F065         	movff	___lomod@dividend+5,?___lomod+5
  6234  00280C  C066  F066         	movff	___lomod@dividend+6,?___lomod+6
  6235  002810  C067  F067         	movff	___lomod@dividend+7,?___lomod+7
  6236  002814                     
  6237                           ; BSR set to: 0
  6238  002814  0012               	return		;funcret
  6239  002816                     __end_of___lomod:
  6240                           	opt callstack 0
  6241                           
  6242 ;; *************** function ___lodiv *****************
  6243 ;; Defined at:
  6244 ;;		line 9 in file "C:\Program Files (x86)\Microchip\xc8\v2.10\pic\sources\c99\common\lodiv.c"
  6245 ;; Parameters:    Size  Location     Type
  6246 ;;  dividend        8    0[BANK0 ] unsigned long long 
  6247 ;;  divisor         8    8[BANK0 ] unsigned long long 
  6248 ;; Auto vars:     Size  Location     Type
  6249 ;;  quotient        8   16[BANK0 ] unsigned long long 
  6250 ;;  counter         1   24[BANK0 ] unsigned char 
  6251 ;; Return value:  Size  Location     Type
  6252 ;;                  8    0[BANK0 ] unsigned long long 
  6253 ;; Registers used:
  6254 ;;		wreg, fsr2l, fsr2h, status,2, status,0
  6255 ;; Tracked objects:
  6256 ;;		On entry : 0/0
  6257 ;;		On exit  : 0/0
  6258 ;;		Unchanged: 0/0
  6259 ;; Data sizes:     COMRAM   BANK0   BANK1   BANK2   BANK3   BANK4   BANK5   BANK6   BANK7
  6260 ;;      Params:         0      16       0       0       0       0       0       0       0
  6261 ;;      Locals:         0       9       0       0       0       0       0       0       0
  6262 ;;      Temps:          0       0       0       0       0       0       0       0       0
  6263 ;;      Totals:         0      25       0       0       0       0       0       0       0
  6264 ;;Total ram usage:       25 bytes
  6265 ;; Hardware stack levels used:    1
  6266 ;; Hardware stack levels required when called:    3
  6267 ;; This function calls:
  6268 ;;		Nothing
  6269 ;; This function is called by:
  6270 ;;		_utoa
  6271 ;; This function uses a non-reentrant model
  6272 ;;
  6273                           
  6274                           	psect	text29
  6275  002652                     __ptext29:
  6276                           	opt callstack 0
  6277  002652                     ___lodiv:
  6278                           	opt callstack 22
  6279  002652  EE20  F070         	lfsr	2,___lodiv@quotient
  6280  002656  0E07               	movlw	7
  6281  002658                     u2831:
  6282  002658  6ADE               	clrf	postinc2,c
  6283  00265A  06E8               	decf	wreg,f,c
  6284  00265C  E2FD               	bc	u2831
  6285  00265E  0100               	movlb	0	; () banked
  6286  002660  5168               	movf	___lodiv@divisor& (0+255),w,b
  6287  002662  1169               	iorwf	(___lodiv@divisor+1)& (0+255),w,b
  6288  002664  116A               	iorwf	(___lodiv@divisor+2)& (0+255),w,b
  6289  002666  116B               	iorwf	(___lodiv@divisor+3)& (0+255),w,b
  6290  002668  116C               	iorwf	(___lodiv@divisor+4)& (0+255),w,b
  6291  00266A  116D               	iorwf	(___lodiv@divisor+5)& (0+255),w,b
  6292  00266C  116E               	iorwf	(___lodiv@divisor+6)& (0+255),w,b
  6293  00266E  116F               	iorwf	(___lodiv@divisor+7)& (0+255),w,b
  6294  002670  B4D8               	btfsc	status,2,c
  6295  002672  EF3D  F013         	goto	u2841
  6296  002676  EF3F  F013         	goto	u2840
  6297  00267A                     u2841:
  6298  00267A  EF91  F013         	goto	l1088
  6299  00267E                     u2840:
  6300  00267E                     
  6301                           ; BSR set to: 0
  6302  00267E  0E01               	movlw	1
  6303  002680  6F78               	movwf	___lodiv@counter& (0+255),b
  6304  002682  EF4D  F013         	goto	l3437
  6305  002686                     l3435:
  6306                           
  6307                           ; BSR set to: 0
  6308  002686  90D8               	bcf	status,0,c
  6309  002688  3768               	rlcf	___lodiv@divisor& (0+255),f,b
  6310  00268A  3769               	rlcf	(___lodiv@divisor+1)& (0+255),f,b
  6311  00268C  376A               	rlcf	(___lodiv@divisor+2)& (0+255),f,b
  6312  00268E  376B               	rlcf	(___lodiv@divisor+3)& (0+255),f,b
  6313  002690  376C               	rlcf	(___lodiv@divisor+4)& (0+255),f,b
  6314  002692  376D               	rlcf	(___lodiv@divisor+5)& (0+255),f,b
  6315  002694  376E               	rlcf	(___lodiv@divisor+6)& (0+255),f,b
  6316  002696  376F               	rlcf	(___lodiv@divisor+7)& (0+255),f,b
  6317  002698  2B78               	incf	___lodiv@counter& (0+255),f,b
  6318  00269A                     l3437:
  6319                           
  6320                           ; BSR set to: 0
  6321  00269A  AF6F               	btfss	(___lodiv@divisor+7)& (0+255),7,b
  6322  00269C  EF52  F013         	goto	u2851
  6323  0026A0  EF54  F013         	goto	u2850
  6324  0026A4                     u2851:
  6325  0026A4  EF43  F013         	goto	l3435
  6326  0026A8                     u2850:
  6327  0026A8                     l3439:
  6328                           
  6329                           ; BSR set to: 0
  6330  0026A8  90D8               	bcf	status,0,c
  6331  0026AA  3770               	rlcf	___lodiv@quotient& (0+255),f,b
  6332  0026AC  3771               	rlcf	(___lodiv@quotient+1)& (0+255),f,b
  6333  0026AE  3772               	rlcf	(___lodiv@quotient+2)& (0+255),f,b
  6334  0026B0  3773               	rlcf	(___lodiv@quotient+3)& (0+255),f,b
  6335  0026B2  3774               	rlcf	(___lodiv@quotient+4)& (0+255),f,b
  6336  0026B4  3775               	rlcf	(___lodiv@quotient+5)& (0+255),f,b
  6337  0026B6  3776               	rlcf	(___lodiv@quotient+6)& (0+255),f,b
  6338  0026B8  3777               	rlcf	(___lodiv@quotient+7)& (0+255),f,b
  6339  0026BA                     
  6340                           ; BSR set to: 0
  6341  0026BA  5168               	movf	___lodiv@divisor& (0+255),w,b
  6342  0026BC  5D60               	subwf	___lodiv@dividend& (0+255),w,b
  6343  0026BE  5169               	movf	(___lodiv@divisor+1)& (0+255),w,b
  6344  0026C0  5961               	subwfb	(___lodiv@dividend+1)& (0+255),w,b
  6345  0026C2  516A               	movf	(___lodiv@divisor+2)& (0+255),w,b
  6346  0026C4  5962               	subwfb	(___lodiv@dividend+2)& (0+255),w,b
  6347  0026C6  516B               	movf	(___lodiv@divisor+3)& (0+255),w,b
  6348  0026C8  5963               	subwfb	(___lodiv@dividend+3)& (0+255),w,b
  6349  0026CA  516C               	movf	(___lodiv@divisor+4)& (0+255),w,b
  6350  0026CC  5964               	subwfb	(___lodiv@dividend+4)& (0+255),w,b
  6351  0026CE  516D               	movf	(___lodiv@divisor+5)& (0+255),w,b
  6352  0026D0  5965               	subwfb	(___lodiv@dividend+5)& (0+255),w,b
  6353  0026D2  516E               	movf	(___lodiv@divisor+6)& (0+255),w,b
  6354  0026D4  5966               	subwfb	(___lodiv@dividend+6)& (0+255),w,b
  6355  0026D6  516F               	movf	(___lodiv@divisor+7)& (0+255),w,b
  6356  0026D8  5967               	subwfb	(___lodiv@dividend+7)& (0+255),w,b
  6357  0026DA  A0D8               	btfss	status,0,c
  6358  0026DC  EF72  F013         	goto	u2861
  6359  0026E0  EF74  F013         	goto	u2860
  6360  0026E4                     u2861:
  6361  0026E4  EF85  F013         	goto	l3447
  6362  0026E8                     u2860:
  6363  0026E8                     
  6364                           ; BSR set to: 0
  6365  0026E8  5168               	movf	___lodiv@divisor& (0+255),w,b
  6366  0026EA  5F60               	subwf	___lodiv@dividend& (0+255),f,b
  6367  0026EC  5169               	movf	(___lodiv@divisor+1)& (0+255),w,b
  6368  0026EE  5B61               	subwfb	(___lodiv@dividend+1)& (0+255),f,b
  6369  0026F0  516A               	movf	(___lodiv@divisor+2)& (0+255),w,b
  6370  0026F2  5B62               	subwfb	(___lodiv@dividend+2)& (0+255),f,b
  6371  0026F4  516B               	movf	(___lodiv@divisor+3)& (0+255),w,b
  6372  0026F6  5B63               	subwfb	(___lodiv@dividend+3)& (0+255),f,b
  6373  0026F8  516C               	movf	(___lodiv@divisor+4)& (0+255),w,b
  6374  0026FA  5B64               	subwfb	(___lodiv@dividend+4)& (0+255),f,b
  6375  0026FC  516D               	movf	(___lodiv@divisor+5)& (0+255),w,b
  6376  0026FE  5B65               	subwfb	(___lodiv@dividend+5)& (0+255),f,b
  6377  002700  516E               	movf	(___lodiv@divisor+6)& (0+255),w,b
  6378  002702  5B66               	subwfb	(___lodiv@dividend+6)& (0+255),f,b
  6379  002704  516F               	movf	(___lodiv@divisor+7)& (0+255),w,b
  6380  002706  5B67               	subwfb	(___lodiv@dividend+7)& (0+255),f,b
  6381  002708                     
  6382                           ; BSR set to: 0
  6383  002708  8170               	bsf	___lodiv@quotient& (0+255),0,b
  6384  00270A                     l3447:
  6385                           
  6386                           ; BSR set to: 0
  6387  00270A  90D8               	bcf	status,0,c
  6388  00270C  336F               	rrcf	(___lodiv@divisor+7)& (0+255),f,b
  6389  00270E  336E               	rrcf	(___lodiv@divisor+6)& (0+255),f,b
  6390  002710  336D               	rrcf	(___lodiv@divisor+5)& (0+255),f,b
  6391  002712  336C               	rrcf	(___lodiv@divisor+4)& (0+255),f,b
  6392  002714  336B               	rrcf	(___lodiv@divisor+3)& (0+255),f,b
  6393  002716  336A               	rrcf	(___lodiv@divisor+2)& (0+255),f,b
  6394  002718  3369               	rrcf	(___lodiv@divisor+1)& (0+255),f,b
  6395  00271A  3368               	rrcf	___lodiv@divisor& (0+255),f,b
  6396  00271C                     
  6397                           ; BSR set to: 0
  6398  00271C  2F78               	decfsz	___lodiv@counter& (0+255),f,b
  6399  00271E  EF54  F013         	goto	l3439
  6400  002722                     l1088:
  6401                           
  6402                           ; BSR set to: 0
  6403  002722  C070  F060         	movff	___lodiv@quotient,?___lodiv
  6404  002726  C071  F061         	movff	___lodiv@quotient+1,?___lodiv+1
  6405  00272A  C072  F062         	movff	___lodiv@quotient+2,?___lodiv+2
  6406  00272E  C073  F063         	movff	___lodiv@quotient+3,?___lodiv+3
  6407  002732  C074  F064         	movff	___lodiv@quotient+4,?___lodiv+4
  6408  002736  C075  F065         	movff	___lodiv@quotient+5,?___lodiv+5
  6409  00273A  C076  F066         	movff	___lodiv@quotient+6,?___lodiv+6
  6410  00273E  C077  F067         	movff	___lodiv@quotient+7,?___lodiv+7
  6411  002742                     
  6412                           ; BSR set to: 0
  6413  002742  0012               	return		;funcret
  6414  002744                     __end_of___lodiv:
  6415                           	opt callstack 0
  6416                           
  6417 ;; *************** function _lcd_command *****************
  6418 ;; Defined at:
  6419 ;;		line 13 in file "lcd.c"
  6420 ;; Parameters:    Size  Location     Type
  6421 ;;  x               1    wreg     unsigned char 
  6422 ;; Auto vars:     Size  Location     Type
  6423 ;;  x               1    2[BANK0 ] unsigned char 
  6424 ;;  temp            1    1[BANK0 ] unsigned char 
  6425 ;; Return value:  Size  Location     Type
  6426 ;;                  1    wreg      void 
  6427 ;; Registers used:
  6428 ;;		wreg, status,2, status,0, cstack
  6429 ;; Tracked objects:
  6430 ;;		On entry : 0/0
  6431 ;;		On exit  : 0/0
  6432 ;;		Unchanged: 0/0
  6433 ;; Data sizes:     COMRAM   BANK0   BANK1   BANK2   BANK3   BANK4   BANK5   BANK6   BANK7
  6434 ;;      Params:         0       0       0       0       0       0       0       0       0
  6435 ;;      Locals:         0       2       0       0       0       0       0       0       0
  6436 ;;      Temps:          0       1       0       0       0       0       0       0       0
  6437 ;;      Totals:         0       3       0       0       0       0       0       0       0
  6438 ;;Total ram usage:        3 bytes
  6439 ;; Hardware stack levels used:    1
  6440 ;; Hardware stack levels required when called:    3
  6441 ;; This function calls:
  6442 ;;		Nothing
  6443 ;; This function is called by:
  6444 ;;		_lcdprint
  6445 ;;		_lcd_init
  6446 ;; This function uses a non-reentrant model
  6447 ;;
  6448                           
  6449                           	psect	text30
  6450  002816                     __ptext30:
  6451                           	opt callstack 0
  6452  002816                     _lcd_command:
  6453                           	opt callstack 26
  6454                           
  6455                           ; BSR set to: 0
  6456                           ;incstack = 0
  6457                           ;lcd_command@x stored from wreg
  6458  002816  0100               	movlb	0	; () banked
  6459  002818  6F62               	movwf	lcd_command@x& (0+255),b
  6460  00281A                     
  6461                           ;lcd.c: 14:  char temp;;lcd.c: 17:  TRISDbits.TRISD0 = 0;
  6462  00281A  908A               	bcf	138,0,c	;volatile
  6463                           
  6464                           ;lcd.c: 18:  TRISDbits.TRISD1 = 0;
  6465  00281C  928A               	bcf	138,1,c	;volatile
  6466                           
  6467                           ;lcd.c: 19:  TRISDbits.TRISD2 = 0;
  6468  00281E  948A               	bcf	138,2,c	;volatile
  6469                           
  6470                           ;lcd.c: 20:  TRISDbits.TRISD3 = 0;
  6471  002820  968A               	bcf	138,3,c	;volatile
  6472                           
  6473                           ;lcd.c: 21:  TRISDbits.TRISD4 = 0;
  6474  002822  988A               	bcf	138,4,c	;volatile
  6475                           
  6476                           ;lcd.c: 22:  TRISDbits.TRISD7 = 0;
  6477  002824  9E8A               	bcf	138,7,c	;volatile
  6478  002826                     
  6479                           ;lcd.c: 24:  temp = x;
  6480  002826  C062  F061         	movff	lcd_command@x,lcd_command@temp
  6481  00282A                     
  6482                           ;lcd.c: 27:     PORTD = 0;
  6483  00282A  0E00               	movlw	0
  6484  00282C  6E8F               	movwf	143,c	;volatile
  6485  00282E                     
  6486                           ;lcd.c: 28:     _delay((unsigned long)((2)*(8000000/4000.0)));
  6487  00282E  0E06               	movlw	6
  6488  002830  0100               	movlb	0	; () banked
  6489  002832  6F60               	movwf	??_lcd_command& (0+255),b
  6490  002834  0E30               	movlw	48
  6491  002836                     u5757:
  6492  002836  2EE8               	decfsz	wreg,f,c
  6493  002838  D7FE               	bra	u5757
  6494  00283A  2F60               	decfsz	??_lcd_command& (0+255),f,b
  6495  00283C  D7FC               	bra	u5757
  6496  00283E  F000               	nop	
  6497  002840                     
  6498                           ;lcd.c: 30:  x = x >>4;
  6499  002840  0100               	movlb	0	; () banked
  6500  002842  3962               	swapf	lcd_command@x& (0+255),w,b
  6501  002844  0B0F               	andlw	15
  6502  002846  6F62               	movwf	lcd_command@x& (0+255),b
  6503  002848                     
  6504                           ; BSR set to: 0
  6505                           ;lcd.c: 31:  x = x & 0xF;
  6506  002848  5162               	movf	lcd_command@x& (0+255),w,b
  6507  00284A  0B0F               	andlw	15
  6508  00284C  6F62               	movwf	lcd_command@x& (0+255),b
  6509  00284E                     
  6510                           ; BSR set to: 0
  6511                           ;lcd.c: 32:  x = x | 0x80;
  6512  00284E  5162               	movf	lcd_command@x& (0+255),w,b
  6513  002850  0980               	iorlw	128
  6514  002852  6F62               	movwf	lcd_command@x& (0+255),b
  6515  002854                     
  6516                           ; BSR set to: 0
  6517                           ;lcd.c: 33:  PORTD = x;
  6518  002854  C062  FF8F         	movff	lcd_command@x,3983	;volatile
  6519  002858                     
  6520                           ; BSR set to: 0
  6521                           ;lcd.c: 34:  _delay((unsigned long)((2)*(8000000/4000.0)));
  6522  002858  0E06               	movlw	6
  6523  00285A  0100               	movlb	0	; () banked
  6524  00285C  6F60               	movwf	??_lcd_command& (0+255),b
  6525  00285E  0E30               	movlw	48
  6526  002860                     u5767:
  6527  002860  2EE8               	decfsz	wreg,f,c
  6528  002862  D7FE               	bra	u5767
  6529  002864  2F60               	decfsz	??_lcd_command& (0+255),f,b
  6530  002866  D7FC               	bra	u5767
  6531  002868  F000               	nop	
  6532  00286A                     
  6533                           ;lcd.c: 36:  x = x & 0xF;
  6534  00286A  0100               	movlb	0	; () banked
  6535  00286C  5162               	movf	lcd_command@x& (0+255),w,b
  6536  00286E  0B0F               	andlw	15
  6537  002870  6F62               	movwf	lcd_command@x& (0+255),b
  6538  002872                     
  6539                           ; BSR set to: 0
  6540                           ;lcd.c: 37:  PORTD = x;
  6541  002872  C062  FF8F         	movff	lcd_command@x,3983	;volatile
  6542  002876                     
  6543                           ; BSR set to: 0
  6544                           ;lcd.c: 38:  _delay((unsigned long)((2)*(8000000/4000.0)));
  6545  002876  0E06               	movlw	6
  6546  002878  0100               	movlb	0	; () banked
  6547  00287A  6F60               	movwf	??_lcd_command& (0+255),b
  6548  00287C  0E30               	movlw	48
  6549  00287E                     u5777:
  6550  00287E  2EE8               	decfsz	wreg,f,c
  6551  002880  D7FE               	bra	u5777
  6552  002882  2F60               	decfsz	??_lcd_command& (0+255),f,b
  6553  002884  D7FC               	bra	u5777
  6554  002886  F000               	nop	
  6555  002888                     
  6556                           ;lcd.c: 40:  PORTD = 0;
  6557  002888  0E00               	movlw	0
  6558  00288A  6E8F               	movwf	143,c	;volatile
  6559  00288C                     
  6560                           ;lcd.c: 41:  _delay((unsigned long)((2)*(8000000/4000.0)));
  6561  00288C  0E06               	movlw	6
  6562  00288E  0100               	movlb	0	; () banked
  6563  002890  6F60               	movwf	??_lcd_command& (0+255),b
  6564  002892  0E30               	movlw	48
  6565  002894                     u5787:
  6566  002894  2EE8               	decfsz	wreg,f,c
  6567  002896  D7FE               	bra	u5787
  6568  002898  2F60               	decfsz	??_lcd_command& (0+255),f,b
  6569  00289A  D7FC               	bra	u5787
  6570  00289C  F000               	nop	
  6571  00289E                     
  6572                           ;lcd.c: 44:  x = temp;
  6573  00289E  C061  F062         	movff	lcd_command@temp,lcd_command@x
  6574  0028A2                     
  6575                           ;lcd.c: 45:  x = x & 0xF;
  6576  0028A2  0100               	movlb	0	; () banked
  6577  0028A4  5162               	movf	lcd_command@x& (0+255),w,b
  6578  0028A6  0B0F               	andlw	15
  6579  0028A8  6F62               	movwf	lcd_command@x& (0+255),b
  6580  0028AA                     
  6581                           ; BSR set to: 0
  6582                           ;lcd.c: 46:  x = x | 0x80;
  6583  0028AA  5162               	movf	lcd_command@x& (0+255),w,b
  6584  0028AC  0980               	iorlw	128
  6585  0028AE  6F62               	movwf	lcd_command@x& (0+255),b
  6586  0028B0                     
  6587                           ; BSR set to: 0
  6588                           ;lcd.c: 47:  PORTD = x;
  6589  0028B0  C062  FF8F         	movff	lcd_command@x,3983	;volatile
  6590  0028B4                     
  6591                           ; BSR set to: 0
  6592                           ;lcd.c: 48:  _delay((unsigned long)((2)*(8000000/4000.0)));
  6593  0028B4  0E06               	movlw	6
  6594  0028B6  0100               	movlb	0	; () banked
  6595  0028B8  6F60               	movwf	??_lcd_command& (0+255),b
  6596  0028BA  0E30               	movlw	48
  6597  0028BC                     u5797:
  6598  0028BC  2EE8               	decfsz	wreg,f,c
  6599  0028BE  D7FE               	bra	u5797
  6600  0028C0  2F60               	decfsz	??_lcd_command& (0+255),f,b
  6601  0028C2  D7FC               	bra	u5797
  6602  0028C4  F000               	nop	
  6603  0028C6                     
  6604                           ;lcd.c: 50:  x = x & 0xF;
  6605  0028C6  0100               	movlb	0	; () banked
  6606  0028C8  5162               	movf	lcd_command@x& (0+255),w,b
  6607  0028CA  0B0F               	andlw	15
  6608  0028CC  6F62               	movwf	lcd_command@x& (0+255),b
  6609  0028CE                     
  6610                           ; BSR set to: 0
  6611                           ;lcd.c: 51:  PORTD = x;
  6612  0028CE  C062  FF8F         	movff	lcd_command@x,3983	;volatile
  6613  0028D2                     
  6614                           ; BSR set to: 0
  6615                           ;lcd.c: 52:  _delay((unsigned long)((2)*(8000000/4000.0)));
  6616  0028D2  0E06               	movlw	6
  6617  0028D4  0100               	movlb	0	; () banked
  6618  0028D6  6F60               	movwf	??_lcd_command& (0+255),b
  6619  0028D8  0E30               	movlw	48
  6620  0028DA                     u5807:
  6621  0028DA  2EE8               	decfsz	wreg,f,c
  6622  0028DC  D7FE               	bra	u5807
  6623  0028DE  2F60               	decfsz	??_lcd_command& (0+255),f,b
  6624  0028E0  D7FC               	bra	u5807
  6625  0028E2  F000               	nop	
  6626  0028E4  0012               	return		;funcret
  6627  0028E6                     __end_of_lcd_command:
  6628                           	opt callstack 0
  6629                           
  6630 ;; *************** function _lcd_char *****************
  6631 ;; Defined at:
  6632 ;;		line 75 in file "lcd.c"
  6633 ;; Parameters:    Size  Location     Type
  6634 ;;  x               1    wreg     unsigned char 
  6635 ;; Auto vars:     Size  Location     Type
  6636 ;;  x               1    2[BANK0 ] unsigned char 
  6637 ;;  temp            1    1[BANK0 ] unsigned char 
  6638 ;; Return value:  Size  Location     Type
  6639 ;;                  1    wreg      void 
  6640 ;; Registers used:
  6641 ;;		wreg, status,2, status,0, cstack
  6642 ;; Tracked objects:
  6643 ;;		On entry : 0/0
  6644 ;;		On exit  : 0/0
  6645 ;;		Unchanged: 0/0
  6646 ;; Data sizes:     COMRAM   BANK0   BANK1   BANK2   BANK3   BANK4   BANK5   BANK6   BANK7
  6647 ;;      Params:         0       0       0       0       0       0       0       0       0
  6648 ;;      Locals:         0       2       0       0       0       0       0       0       0
  6649 ;;      Temps:          0       1       0       0       0       0       0       0       0
  6650 ;;      Totals:         0       3       0       0       0       0       0       0       0
  6651 ;;Total ram usage:        3 bytes
  6652 ;; Hardware stack levels used:    1
  6653 ;; Hardware stack levels required when called:    3
  6654 ;; This function calls:
  6655 ;;		Nothing
  6656 ;; This function is called by:
  6657 ;;		_lcdprint
  6658 ;; This function uses a non-reentrant model
  6659 ;;
  6660                           
  6661                           	psect	text31
  6662  0028E6                     __ptext31:
  6663                           	opt callstack 0
  6664  0028E6                     _lcd_char:
  6665                           	opt callstack 26
  6666                           
  6667                           ;incstack = 0
  6668                           ;lcd_char@x stored from wreg
  6669  0028E6  0100               	movlb	0	; () banked
  6670  0028E8  6F62               	movwf	lcd_char@x& (0+255),b
  6671  0028EA                     
  6672                           ;lcd.c: 76:  char temp;;lcd.c: 79:  TRISDbits.TRISD0 = 0;
  6673  0028EA  908A               	bcf	138,0,c	;volatile
  6674                           
  6675                           ;lcd.c: 80:  TRISDbits.TRISD1 = 0;
  6676  0028EC  928A               	bcf	138,1,c	;volatile
  6677                           
  6678                           ;lcd.c: 81:  TRISDbits.TRISD2 = 0;
  6679  0028EE  948A               	bcf	138,2,c	;volatile
  6680                           
  6681                           ;lcd.c: 82:  TRISDbits.TRISD3 = 0;
  6682  0028F0  968A               	bcf	138,3,c	;volatile
  6683                           
  6684                           ;lcd.c: 83:  TRISDbits.TRISD4 = 0;
  6685  0028F2  988A               	bcf	138,4,c	;volatile
  6686                           
  6687                           ;lcd.c: 84:  TRISDbits.TRISD7 = 0;
  6688  0028F4  9E8A               	bcf	138,7,c	;volatile
  6689  0028F6                     
  6690                           ;lcd.c: 86:  temp = x;
  6691  0028F6  C062  F061         	movff	lcd_char@x,lcd_char@temp
  6692  0028FA                     
  6693                           ;lcd.c: 89:  PORTD = 0x10;
  6694  0028FA  0E10               	movlw	16
  6695  0028FC  6E8F               	movwf	143,c	;volatile
  6696  0028FE                     
  6697                           ;lcd.c: 90:  _delay((unsigned long)((2)*(8000000/4000.0)));
  6698  0028FE  0E06               	movlw	6
  6699  002900  0100               	movlb	0	; () banked
  6700  002902  6F60               	movwf	??_lcd_char& (0+255),b
  6701  002904  0E30               	movlw	48
  6702  002906                     u5817:
  6703  002906  2EE8               	decfsz	wreg,f,c
  6704  002908  D7FE               	bra	u5817
  6705  00290A  2F60               	decfsz	??_lcd_char& (0+255),f,b
  6706  00290C  D7FC               	bra	u5817
  6707  00290E  F000               	nop	
  6708  002910                     
  6709                           ;lcd.c: 92:  x = x >>4;
  6710  002910  0100               	movlb	0	; () banked
  6711  002912  3962               	swapf	lcd_char@x& (0+255),w,b
  6712  002914  0B0F               	andlw	15
  6713  002916  6F62               	movwf	lcd_char@x& (0+255),b
  6714  002918                     
  6715                           ; BSR set to: 0
  6716                           ;lcd.c: 93:  x = x & 0xF;
  6717  002918  5162               	movf	lcd_char@x& (0+255),w,b
  6718  00291A  0B0F               	andlw	15
  6719  00291C  6F62               	movwf	lcd_char@x& (0+255),b
  6720  00291E                     
  6721                           ; BSR set to: 0
  6722                           ;lcd.c: 94:  x = x | 0x90;
  6723  00291E  5162               	movf	lcd_char@x& (0+255),w,b
  6724  002920  0990               	iorlw	144
  6725  002922  6F62               	movwf	lcd_char@x& (0+255),b
  6726  002924                     
  6727                           ; BSR set to: 0
  6728                           ;lcd.c: 95:  PORTD = x;
  6729  002924  C062  FF8F         	movff	lcd_char@x,3983	;volatile
  6730  002928                     
  6731                           ; BSR set to: 0
  6732                           ;lcd.c: 96:  _delay((unsigned long)((2)*(8000000/4000.0)));
  6733  002928  0E06               	movlw	6
  6734  00292A  0100               	movlb	0	; () banked
  6735  00292C  6F60               	movwf	??_lcd_char& (0+255),b
  6736  00292E  0E30               	movlw	48
  6737  002930                     u5827:
  6738  002930  2EE8               	decfsz	wreg,f,c
  6739  002932  D7FE               	bra	u5827
  6740  002934  2F60               	decfsz	??_lcd_char& (0+255),f,b
  6741  002936  D7FC               	bra	u5827
  6742  002938  F000               	nop	
  6743  00293A                     
  6744                           ;lcd.c: 98:  x = x & 0x1F;
  6745  00293A  0100               	movlb	0	; () banked
  6746  00293C  5162               	movf	lcd_char@x& (0+255),w,b
  6747  00293E  0B1F               	andlw	31
  6748  002940  6F62               	movwf	lcd_char@x& (0+255),b
  6749  002942                     
  6750                           ; BSR set to: 0
  6751                           ;lcd.c: 99:  PORTD = x;
  6752  002942  C062  FF8F         	movff	lcd_char@x,3983	;volatile
  6753  002946                     
  6754                           ; BSR set to: 0
  6755                           ;lcd.c: 100:  _delay((unsigned long)((2)*(8000000/4000.0)));
  6756  002946  0E06               	movlw	6
  6757  002948  0100               	movlb	0	; () banked
  6758  00294A  6F60               	movwf	??_lcd_char& (0+255),b
  6759  00294C  0E30               	movlw	48
  6760  00294E                     u5837:
  6761  00294E  2EE8               	decfsz	wreg,f,c
  6762  002950  D7FE               	bra	u5837
  6763  002952  2F60               	decfsz	??_lcd_char& (0+255),f,b
  6764  002954  D7FC               	bra	u5837
  6765  002956  F000               	nop	
  6766  002958                     
  6767                           ;lcd.c: 102:  PORTD = 0x10;
  6768  002958  0E10               	movlw	16
  6769  00295A  6E8F               	movwf	143,c	;volatile
  6770  00295C                     
  6771                           ;lcd.c: 103:  _delay((unsigned long)((2)*(8000000/4000.0)));
  6772  00295C  0E06               	movlw	6
  6773  00295E  0100               	movlb	0	; () banked
  6774  002960  6F60               	movwf	??_lcd_char& (0+255),b
  6775  002962  0E30               	movlw	48
  6776  002964                     u5847:
  6777  002964  2EE8               	decfsz	wreg,f,c
  6778  002966  D7FE               	bra	u5847
  6779  002968  2F60               	decfsz	??_lcd_char& (0+255),f,b
  6780  00296A  D7FC               	bra	u5847
  6781  00296C  F000               	nop	
  6782  00296E                     
  6783                           ;lcd.c: 106:  x = temp;
  6784  00296E  C061  F062         	movff	lcd_char@temp,lcd_char@x
  6785  002972                     
  6786                           ;lcd.c: 107:  x = x & 0xF;
  6787  002972  0100               	movlb	0	; () banked
  6788  002974  5162               	movf	lcd_char@x& (0+255),w,b
  6789  002976  0B0F               	andlw	15
  6790  002978  6F62               	movwf	lcd_char@x& (0+255),b
  6791  00297A                     
  6792                           ; BSR set to: 0
  6793                           ;lcd.c: 108:  x = x | 0x90;
  6794  00297A  5162               	movf	lcd_char@x& (0+255),w,b
  6795  00297C  0990               	iorlw	144
  6796  00297E  6F62               	movwf	lcd_char@x& (0+255),b
  6797  002980                     
  6798                           ; BSR set to: 0
  6799                           ;lcd.c: 109:  PORTD = x;
  6800  002980  C062  FF8F         	movff	lcd_char@x,3983	;volatile
  6801  002984                     
  6802                           ; BSR set to: 0
  6803                           ;lcd.c: 110:  _delay((unsigned long)((2)*(8000000/4000.0)));
  6804  002984  0E06               	movlw	6
  6805  002986  0100               	movlb	0	; () banked
  6806  002988  6F60               	movwf	??_lcd_char& (0+255),b
  6807  00298A  0E30               	movlw	48
  6808  00298C                     u5857:
  6809  00298C  2EE8               	decfsz	wreg,f,c
  6810  00298E  D7FE               	bra	u5857
  6811  002990  2F60               	decfsz	??_lcd_char& (0+255),f,b
  6812  002992  D7FC               	bra	u5857
  6813  002994  F000               	nop	
  6814  002996                     
  6815                           ;lcd.c: 112:  x = x & 0x1F;
  6816  002996  0100               	movlb	0	; () banked
  6817  002998  5162               	movf	lcd_char@x& (0+255),w,b
  6818  00299A  0B1F               	andlw	31
  6819  00299C  6F62               	movwf	lcd_char@x& (0+255),b
  6820  00299E                     
  6821                           ; BSR set to: 0
  6822                           ;lcd.c: 113:  PORTD = x;
  6823  00299E  C062  FF8F         	movff	lcd_char@x,3983	;volatile
  6824  0029A2                     
  6825                           ; BSR set to: 0
  6826                           ;lcd.c: 114:  _delay((unsigned long)((2)*(8000000/4000.0)));
  6827  0029A2  0E06               	movlw	6
  6828  0029A4  0100               	movlb	0	; () banked
  6829  0029A6  6F60               	movwf	??_lcd_char& (0+255),b
  6830  0029A8  0E30               	movlw	48
  6831  0029AA                     u5867:
  6832  0029AA  2EE8               	decfsz	wreg,f,c
  6833  0029AC  D7FE               	bra	u5867
  6834  0029AE  2F60               	decfsz	??_lcd_char& (0+255),f,b
  6835  0029B0  D7FC               	bra	u5867
  6836  0029B2  F000               	nop	
  6837  0029B4  0012               	return		;funcret
  6838  0029B6                     __end_of_lcd_char:
  6839                           	opt callstack 0
  6840                           
  6841 ;; *************** function _get_seconds *****************
  6842 ;; Defined at:
  6843 ;;		line 37 in file "timer.c"
  6844 ;; Parameters:    Size  Location     Type
  6845 ;;		None
  6846 ;; Auto vars:     Size  Location     Type
  6847 ;;  sec             1    8[BANK0 ] unsigned char 
  6848 ;; Return value:  Size  Location     Type
  6849 ;;                  1    wreg      unsigned char 
  6850 ;; Registers used:
  6851 ;;		wreg, status,2, status,0, prodl, prodh, cstack
  6852 ;; Tracked objects:
  6853 ;;		On entry : 0/0
  6854 ;;		On exit  : 0/0
  6855 ;;		Unchanged: 0/0
  6856 ;; Data sizes:     COMRAM   BANK0   BANK1   BANK2   BANK3   BANK4   BANK5   BANK6   BANK7
  6857 ;;      Params:         0       0       0       0       0       0       0       0       0
  6858 ;;      Locals:         0       1       0       0       0       0       0       0       0
  6859 ;;      Temps:          0       1       0       0       0       0       0       0       0
  6860 ;;      Totals:         0       2       0       0       0       0       0       0       0
  6861 ;;Total ram usage:        2 bytes
  6862 ;; Hardware stack levels used:    1
  6863 ;; Hardware stack levels required when called:    4
  6864 ;; This function calls:
  6865 ;;		_i2c_read
  6866 ;; This function is called by:
  6867 ;;		_lcdprint
  6868 ;; This function uses a non-reentrant model
  6869 ;;
  6870                           
  6871                           	psect	text32
  6872  003438                     __ptext32:
  6873                           	opt callstack 0
  6874  003438                     _get_seconds:
  6875                           	opt callstack 25
  6876  003438                     
  6877                           ;timer.c: 38:  unsigned char sec = i2c_read(104, 0x00);
  6878  003438  0E00               	movlw	0
  6879  00343A  0100               	movlb	0	; () banked
  6880  00343C  6F60               	movwf	i2c_read@registers& (0+255),b
  6881  00343E  0E68               	movlw	104
  6882  003440  EC6A  F011         	call	_i2c_read
  6883  003444  0100               	movlb	0	; () banked
  6884  003446  6F68               	movwf	get_seconds@sec& (0+255),b
  6885  003448                     
  6886                           ; BSR set to: 0
  6887                           ;timer.c: 41:  return (sec&0x0f)+(((sec>>4)&0x07)*10);
  6888  003448  C068  F067         	movff	get_seconds@sec,??_get_seconds
  6889  00344C  0E0F               	movlw	15
  6890  00344E  1767               	andwf	??_get_seconds& (0+255),f,b
  6891  003450  3968               	swapf	get_seconds@sec& (0+255),w,b
  6892  003452  0B0F               	andlw	15
  6893  003454  0B07               	andlw	7
  6894  003456  0D0A               	mullw	10
  6895  003458  50F3               	movf	243,w,c
  6896  00345A  2567               	addwf	??_get_seconds& (0+255),w,b
  6897  00345C                     
  6898                           ; BSR set to: 0
  6899  00345C  0012               	return		;funcret
  6900  00345E                     __end_of_get_seconds:
  6901                           	opt callstack 0
  6902                           
  6903 ;; *************** function _get_minutes *****************
  6904 ;; Defined at:
  6905 ;;		line 67 in file "timer.c"
  6906 ;; Parameters:    Size  Location     Type
  6907 ;;		None
  6908 ;; Auto vars:     Size  Location     Type
  6909 ;;  min             1    8[BANK0 ] unsigned char 
  6910 ;; Return value:  Size  Location     Type
  6911 ;;                  1    wreg      unsigned char 
  6912 ;; Registers used:
  6913 ;;		wreg, status,2, status,0, prodl, prodh, cstack
  6914 ;; Tracked objects:
  6915 ;;		On entry : 0/0
  6916 ;;		On exit  : 0/0
  6917 ;;		Unchanged: 0/0
  6918 ;; Data sizes:     COMRAM   BANK0   BANK1   BANK2   BANK3   BANK4   BANK5   BANK6   BANK7
  6919 ;;      Params:         0       0       0       0       0       0       0       0       0
  6920 ;;      Locals:         0       1       0       0       0       0       0       0       0
  6921 ;;      Temps:          0       1       0       0       0       0       0       0       0
  6922 ;;      Totals:         0       2       0       0       0       0       0       0       0
  6923 ;;Total ram usage:        2 bytes
  6924 ;; Hardware stack levels used:    1
  6925 ;; Hardware stack levels required when called:    4
  6926 ;; This function calls:
  6927 ;;		_i2c_read
  6928 ;; This function is called by:
  6929 ;;		_lcdprint
  6930 ;; This function uses a non-reentrant model
  6931 ;;
  6932                           
  6933                           	psect	text33
  6934  00345E                     __ptext33:
  6935                           	opt callstack 0
  6936  00345E                     _get_minutes:
  6937                           	opt callstack 25
  6938  00345E                     
  6939                           ;timer.c: 68:  unsigned char min = i2c_read(104, 0x01);
  6940  00345E  0E01               	movlw	1
  6941  003460  0100               	movlb	0	; () banked
  6942  003462  6F60               	movwf	i2c_read@registers& (0+255),b
  6943  003464  0E68               	movlw	104
  6944  003466  EC6A  F011         	call	_i2c_read
  6945  00346A  0100               	movlb	0	; () banked
  6946  00346C  6F68               	movwf	get_minutes@min& (0+255),b
  6947  00346E                     
  6948                           ; BSR set to: 0
  6949                           ;timer.c: 71:  return (min&0x0f)+((min >> 4)*10);
  6950  00346E  C068  F067         	movff	get_minutes@min,??_get_minutes
  6951  003472  0E0F               	movlw	15
  6952  003474  1767               	andwf	??_get_minutes& (0+255),f,b
  6953  003476  3968               	swapf	get_minutes@min& (0+255),w,b
  6954  003478  0B0F               	andlw	15
  6955  00347A  0D0A               	mullw	10
  6956  00347C  50F3               	movf	243,w,c
  6957  00347E  2567               	addwf	??_get_minutes& (0+255),w,b
  6958  003480                     
  6959                           ; BSR set to: 0
  6960  003480  0012               	return		;funcret
  6961  003482                     __end_of_get_minutes:
  6962                           	opt callstack 0
  6963                           
  6964 ;; *************** function _i2c_read *****************
  6965 ;; Defined at:
  6966 ;;		line 36 in file "i2c.c"
  6967 ;; Parameters:    Size  Location     Type
  6968 ;;  address         1    wreg     unsigned char 
  6969 ;;  registers       1    0[BANK0 ] unsigned char 
  6970 ;; Auto vars:     Size  Location     Type
  6971 ;;  address         1    6[BANK0 ] unsigned char 
  6972 ;;  num             4    1[BANK0 ] unsigned long 
  6973 ;;  read            1    5[BANK0 ] unsigned char 
  6974 ;; Return value:  Size  Location     Type
  6975 ;;                  1    wreg      unsigned char 
  6976 ;; Registers used:
  6977 ;;		wreg, status,2, status,0
  6978 ;; Tracked objects:
  6979 ;;		On entry : 0/0
  6980 ;;		On exit  : 0/0
  6981 ;;		Unchanged: 0/0
  6982 ;; Data sizes:     COMRAM   BANK0   BANK1   BANK2   BANK3   BANK4   BANK5   BANK6   BANK7
  6983 ;;      Params:         0       1       0       0       0       0       0       0       0
  6984 ;;      Locals:         0       6       0       0       0       0       0       0       0
  6985 ;;      Temps:          0       0       0       0       0       0       0       0       0
  6986 ;;      Totals:         0       7       0       0       0       0       0       0       0
  6987 ;;Total ram usage:        7 bytes
  6988 ;; Hardware stack levels used:    1
  6989 ;; Hardware stack levels required when called:    3
  6990 ;; This function calls:
  6991 ;;		Nothing
  6992 ;; This function is called by:
  6993 ;;		_rtc_init
  6994 ;;		_get_seconds
  6995 ;;		_set_seconds
  6996 ;;		_get_minutes
  6997 ;;		_get_hours
  6998 ;;		_set_hours
  6999 ;;		_get_dayname
  7000 ;;		_get_months
  7001 ;;		_get_days
  7002 ;;		_get_years
  7003 ;;		_get_Aseconds
  7004 ;;		_get_Aminutes
  7005 ;;		_get_Ahours
  7006 ;;		_set_Ahours
  7007 ;; This function uses a non-reentrant model
  7008 ;;
  7009                           
  7010                           	psect	text34
  7011  0022D4                     __ptext34:
  7012                           	opt callstack 0
  7013  0022D4                     _i2c_read:
  7014                           	opt callstack 26
  7015                           
  7016                           ; BSR set to: 0
  7017                           ;incstack = 0
  7018                           ;i2c_read@address stored from wreg
  7019  0022D4  0100               	movlb	0	; () banked
  7020  0022D6  6F66               	movwf	i2c_read@address& (0+255),b
  7021  0022D8                     
  7022                           ;i2c.c: 37:  SSP1CON2bits.SEN = 1;
  7023  0022D8  8096               	bsf	150,0,c	;volatile
  7024  0022DA                     l382:
  7025  0022DA  B096               	btfsc	150,0,c	;volatile
  7026  0022DC  EF72  F011         	goto	u3001
  7027  0022E0  EF74  F011         	goto	u3000
  7028  0022E4                     u3001:
  7029  0022E4  EF6D  F011         	goto	l382
  7030  0022E8                     u3000:
  7031  0022E8                     
  7032                           ;i2c.c: 40:  SSP1BUF = (address << 1) & 0xfe;
  7033  0022E8  0100               	movlb	0	; () banked
  7034  0022EA  5166               	movf	i2c_read@address& (0+255),w,b
  7035  0022EC  2566               	addwf	i2c_read@address& (0+255),w,b
  7036  0022EE  0BFE               	andlw	254
  7037  0022F0  6E91               	movwf	145,c	;volatile
  7038  0022F2                     l385:
  7039  0022F2  B494               	btfsc	148,2,c	;volatile
  7040  0022F4  EF7E  F011         	goto	u3011
  7041  0022F8  EF80  F011         	goto	u3010
  7042  0022FC                     u3011:
  7043  0022FC  EF79  F011         	goto	l385
  7044  002300                     u3010:
  7045  002300                     
  7046                           ;i2c.c: 45:  if (SSP1CON2bits.ACKSTAT == 1) {
  7047  002300  AC96               	btfss	150,6,c	;volatile
  7048  002302  EF85  F011         	goto	u3021
  7049  002306  EF87  F011         	goto	u3020
  7050  00230A                     u3021:
  7051  00230A  EF92  F011         	goto	l388
  7052  00230E                     u3020:
  7053  00230E                     
  7054                           ;i2c.c: 46:   SSP1CON2bits.PEN = 1;
  7055  00230E  8496               	bsf	150,2,c	;volatile
  7056  002310                     l389:
  7057  002310  B496               	btfsc	150,2,c	;volatile
  7058  002312  EF8D  F011         	goto	u3031
  7059  002316  EF8F  F011         	goto	u3030
  7060  00231A                     u3031:
  7061  00231A  EF88  F011         	goto	l389
  7062  00231E                     u3030:
  7063  00231E                     l3549:
  7064                           
  7065                           ;i2c.c: 48:   return 0;
  7066  00231E  0E00               	movlw	0
  7067  002320  EF12  F012         	goto	l392
  7068  002324                     l388:
  7069                           
  7070                           ;i2c.c: 51:  SSP1BUF = registers;
  7071  002324  C060  FF91         	movff	i2c_read@registers,3985	;volatile
  7072  002328                     l393:
  7073  002328  B494               	btfsc	148,2,c	;volatile
  7074  00232A  EF99  F011         	goto	u3041
  7075  00232E  EF9B  F011         	goto	u3040
  7076  002332                     u3041:
  7077  002332  EF94  F011         	goto	l393
  7078  002336                     u3040:
  7079  002336                     
  7080                           ;i2c.c: 56:  if (SSP1CON2bits.ACKSTAT == 1) {
  7081  002336  AC96               	btfss	150,6,c	;volatile
  7082  002338  EFA0  F011         	goto	u3051
  7083  00233C  EFA2  F011         	goto	u3050
  7084  002340                     u3051:
  7085  002340  EFAC  F011         	goto	l396
  7086  002344                     u3050:
  7087  002344                     
  7088                           ;i2c.c: 57:   SSP1CON2bits.PEN = 1;
  7089  002344  8496               	bsf	150,2,c	;volatile
  7090  002346                     l397:
  7091  002346  B496               	btfsc	150,2,c	;volatile
  7092  002348  EFA8  F011         	goto	u3061
  7093  00234C  EFAA  F011         	goto	u3060
  7094  002350                     u3061:
  7095  002350  EFA3  F011         	goto	l397
  7096  002354                     u3060:
  7097  002354  EF8F  F011         	goto	l3549
  7098  002358                     l396:
  7099                           
  7100                           ;i2c.c: 63:  SSP1CON2bits.RSEN = 1;
  7101  002358  8296               	bsf	150,1,c	;volatile
  7102  00235A                     l400:
  7103  00235A  B296               	btfsc	150,1,c	;volatile
  7104  00235C  EFB2  F011         	goto	u3071
  7105  002360  EFB4  F011         	goto	u3070
  7106  002364                     u3071:
  7107  002364  EFAD  F011         	goto	l400
  7108  002368                     u3070:
  7109  002368                     
  7110                           ;i2c.c: 66:  SSP1BUF = (address << 1) | 0x01;
  7111  002368  80D8               	bsf	status,0,c
  7112  00236A  0100               	movlb	0	; () banked
  7113  00236C  3566               	rlcf	i2c_read@address& (0+255),w,b
  7114  00236E  6E91               	movwf	145,c	;volatile
  7115  002370                     l403:
  7116  002370  B494               	btfsc	148,2,c	;volatile
  7117  002372  EFBD  F011         	goto	u3081
  7118  002376  EFBF  F011         	goto	u3080
  7119  00237A                     u3081:
  7120  00237A  EFB8  F011         	goto	l403
  7121  00237E                     u3080:
  7122  00237E                     
  7123                           ;i2c.c: 70:  if (SSP1CON2bits.ACKSTAT == 1) {
  7124  00237E  AC96               	btfss	150,6,c	;volatile
  7125  002380  EFC4  F011         	goto	u3091
  7126  002384  EFC6  F011         	goto	u3090
  7127  002388                     u3091:
  7128  002388  EFD0  F011         	goto	l406
  7129  00238C                     u3090:
  7130  00238C                     
  7131                           ;i2c.c: 71:   SSP1CON2bits.PEN = 1;
  7132  00238C  8496               	bsf	150,2,c	;volatile
  7133  00238E                     l407:
  7134  00238E  B496               	btfsc	150,2,c	;volatile
  7135  002390  EFCC  F011         	goto	u3101
  7136  002394  EFCE  F011         	goto	u3100
  7137  002398                     u3101:
  7138  002398  EFC7  F011         	goto	l407
  7139  00239C                     u3100:
  7140  00239C  EF8F  F011         	goto	l3549
  7141  0023A0                     l406:
  7142                           
  7143                           ;i2c.c: 76:  SSP1CON2bits.RCEN = 1;
  7144  0023A0  8696               	bsf	150,3,c	;volatile
  7145  0023A2                     
  7146                           ;i2c.c: 78:  unsigned long num = 10000L;
  7147  0023A2  0E10               	movlw	16
  7148  0023A4  0100               	movlb	0	; () banked
  7149  0023A6  6F61               	movwf	i2c_read@num& (0+255),b
  7150  0023A8  0E27               	movlw	39
  7151  0023AA  6F62               	movwf	(i2c_read@num+1)& (0+255),b
  7152  0023AC  0E00               	movlw	0
  7153  0023AE  6F63               	movwf	(i2c_read@num+2)& (0+255),b
  7154  0023B0  0E00               	movlw	0
  7155  0023B2  6F64               	movwf	(i2c_read@num+3)& (0+255),b
  7156                           
  7157                           ;i2c.c: 79:  while (SSP1STATbits.BF == 0) {
  7158  0023B4  EFF6  F011         	goto	l410
  7159  0023B8                     l3569:
  7160                           
  7161                           ; BSR set to: 0
  7162                           ;i2c.c: 80:         if (--num == 0) {
  7163  0023B8  0761               	decf	i2c_read@num& (0+255),f,b
  7164  0023BA  0E00               	movlw	0
  7165  0023BC  5B62               	subwfb	(i2c_read@num+1)& (0+255),f,b
  7166  0023BE  5B63               	subwfb	(i2c_read@num+2)& (0+255),f,b
  7167  0023C0  5B64               	subwfb	(i2c_read@num+3)& (0+255),f,b
  7168  0023C2  5161               	movf	i2c_read@num& (0+255),w,b
  7169  0023C4  1162               	iorwf	(i2c_read@num+1)& (0+255),w,b
  7170  0023C6  1163               	iorwf	(i2c_read@num+2)& (0+255),w,b
  7171  0023C8  1164               	iorwf	(i2c_read@num+3)& (0+255),w,b
  7172  0023CA  A4D8               	btfss	status,2,c
  7173  0023CC  EFEA  F011         	goto	u3111
  7174  0023D0  EFEC  F011         	goto	u3110
  7175  0023D4                     u3111:
  7176  0023D4  EFF6  F011         	goto	l410
  7177  0023D8                     u3110:
  7178  0023D8                     
  7179                           ; BSR set to: 0
  7180                           ;i2c.c: 81:             SSP1CON2bits.PEN = 1;
  7181  0023D8  8496               	bsf	150,2,c	;volatile
  7182  0023DA                     l413:
  7183  0023DA  B496               	btfsc	150,2,c	;volatile
  7184  0023DC  EFF2  F011         	goto	u3121
  7185  0023E0  EFF4  F011         	goto	u3120
  7186  0023E4                     u3121:
  7187  0023E4  EFED  F011         	goto	l413
  7188  0023E8                     u3120:
  7189  0023E8  EF8F  F011         	goto	l3549
  7190  0023EC                     l410:
  7191                           
  7192                           ; BSR set to: 0
  7193                           ;i2c.c: 79:  while (SSP1STATbits.BF == 0) {
  7194  0023EC  A094               	btfss	148,0,c	;volatile
  7195  0023EE  EFFB  F011         	goto	u3131
  7196  0023F2  EFFD  F011         	goto	u3130
  7197  0023F6                     u3131:
  7198  0023F6  EFDC  F011         	goto	l3569
  7199  0023FA                     u3130:
  7200  0023FA                     
  7201                           ; BSR set to: 0
  7202                           ;i2c.c: 87:  unsigned char read = SSP1BUF;
  7203  0023FA  CF91 F065          	movff	3985,i2c_read@read	;volatile
  7204                           
  7205                           ;i2c.c: 90:  SSP1CON2bits.ACKDT = 1;
  7206  0023FE  8A96               	bsf	150,5,c	;volatile
  7207                           
  7208                           ;i2c.c: 91:  SSP1CON2bits.ACKEN = 1;
  7209  002400  8896               	bsf	150,4,c	;volatile
  7210  002402                     l417:
  7211  002402  B896               	btfsc	150,4,c	;volatile
  7212  002404  EF06  F012         	goto	u3141
  7213  002408  EF08  F012         	goto	u3140
  7214  00240C                     u3141:
  7215  00240C  EF01  F012         	goto	l417
  7216  002410                     u3140:
  7217  002410                     
  7218                           ;i2c.c: 94:  SSP1CON2bits.PEN = 1;
  7219  002410  8496               	bsf	150,2,c	;volatile
  7220  002412                     l420:
  7221  002412  B496               	btfsc	150,2,c	;volatile
  7222  002414  EF0E  F012         	goto	u3151
  7223  002418  EF10  F012         	goto	u3150
  7224  00241C                     u3151:
  7225  00241C  EF09  F012         	goto	l420
  7226  002420                     u3150:
  7227  002420                     
  7228                           ;i2c.c: 97:  return read;
  7229  002420  0100               	movlb	0	; () banked
  7230  002422  5165               	movf	i2c_read@read& (0+255),w,b
  7231  002424                     l392:
  7232  002424  0012               	return		;funcret
  7233  002426                     __end_of_i2c_read:
  7234                           	opt callstack 0
  7235                           
  7236 ;; *************** function ___awmod *****************
  7237 ;; Defined at:
  7238 ;;		line 7 in file "C:\Program Files (x86)\Microchip\xc8\v2.10\pic\sources\c99\common\awmod.c"
  7239 ;; Parameters:    Size  Location     Type
  7240 ;;  dividend        2    8[BANK0 ] int 
  7241 ;;  divisor         2   10[BANK0 ] int 
  7242 ;; Auto vars:     Size  Location     Type
  7243 ;;  sign            1   13[BANK0 ] unsigned char 
  7244 ;;  counter         1   12[BANK0 ] unsigned char 
  7245 ;; Return value:  Size  Location     Type
  7246 ;;                  2    8[BANK0 ] int 
  7247 ;; Registers used:
  7248 ;;		wreg, status,2, status,0
  7249 ;; Tracked objects:
  7250 ;;		On entry : 0/0
  7251 ;;		On exit  : 0/0
  7252 ;;		Unchanged: 0/0
  7253 ;; Data sizes:     COMRAM   BANK0   BANK1   BANK2   BANK3   BANK4   BANK5   BANK6   BANK7
  7254 ;;      Params:         0       4       0       0       0       0       0       0       0
  7255 ;;      Locals:         0       2       0       0       0       0       0       0       0
  7256 ;;      Temps:          0       0       0       0       0       0       0       0       0
  7257 ;;      Totals:         0       6       0       0       0       0       0       0       0
  7258 ;;Total ram usage:        6 bytes
  7259 ;; Hardware stack levels used:    1
  7260 ;; Hardware stack levels required when called:    3
  7261 ;; This function calls:
  7262 ;;		Nothing
  7263 ;; This function is called by:
  7264 ;;		_lcdprint
  7265 ;;		_set_seconds
  7266 ;;		_set_minutes
  7267 ;;		_set_hours
  7268 ;;		_set_months
  7269 ;;		_set_days
  7270 ;;		_set_years
  7271 ;;		_set_Aseconds
  7272 ;;		_set_Aminutes
  7273 ;;		_set_Ahours
  7274 ;; This function uses a non-reentrant model
  7275 ;;
  7276                           
  7277                           	psect	text35
  7278  002CDA                     __ptext35:
  7279                           	opt callstack 0
  7280  002CDA                     ___awmod:
  7281                           	opt callstack 26
  7282  002CDA  0E00               	movlw	0
  7283  002CDC  0100               	movlb	0	; () banked
  7284  002CDE  6F6D               	movwf	___awmod@sign& (0+255),b
  7285  002CE0                     
  7286                           ; BSR set to: 0
  7287  002CE0  BF69               	btfsc	(___awmod@dividend+1)& (0+255),7,b
  7288  002CE2  EF77  F016         	goto	u3230
  7289  002CE6  EF75  F016         	goto	u3231
  7290  002CEA                     u3231:
  7291  002CEA  EF7D  F016         	goto	l3753
  7292  002CEE                     u3230:
  7293  002CEE                     
  7294                           ; BSR set to: 0
  7295  002CEE  6D68               	negf	___awmod@dividend& (0+255),b
  7296  002CF0  1F69               	comf	(___awmod@dividend+1)& (0+255),f,b
  7297  002CF2  B0D8               	btfsc	status,0,c
  7298  002CF4  2B69               	incf	(___awmod@dividend+1)& (0+255),f,b
  7299  002CF6                     
  7300                           ; BSR set to: 0
  7301  002CF6  0E01               	movlw	1
  7302  002CF8  6F6D               	movwf	___awmod@sign& (0+255),b
  7303  002CFA                     l3753:
  7304                           
  7305                           ; BSR set to: 0
  7306  002CFA  BF6B               	btfsc	(___awmod@divisor+1)& (0+255),7,b
  7307  002CFC  EF84  F016         	goto	u3240
  7308  002D00  EF82  F016         	goto	u3241
  7309  002D04                     u3241:
  7310  002D04  EF88  F016         	goto	l3757
  7311  002D08                     u3240:
  7312  002D08                     
  7313                           ; BSR set to: 0
  7314  002D08  6D6A               	negf	___awmod@divisor& (0+255),b
  7315  002D0A  1F6B               	comf	(___awmod@divisor+1)& (0+255),f,b
  7316  002D0C  B0D8               	btfsc	status,0,c
  7317  002D0E  2B6B               	incf	(___awmod@divisor+1)& (0+255),f,b
  7318  002D10                     l3757:
  7319                           
  7320                           ; BSR set to: 0
  7321  002D10  516A               	movf	___awmod@divisor& (0+255),w,b
  7322  002D12  116B               	iorwf	(___awmod@divisor+1)& (0+255),w,b
  7323  002D14  B4D8               	btfsc	status,2,c
  7324  002D16  EF8F  F016         	goto	u3251
  7325  002D1A  EF91  F016         	goto	u3250
  7326  002D1E                     u3251:
  7327  002D1E  EFB5  F016         	goto	l3773
  7328  002D22                     u3250:
  7329  002D22                     
  7330                           ; BSR set to: 0
  7331  002D22  0E01               	movlw	1
  7332  002D24  6F6C               	movwf	___awmod@counter& (0+255),b
  7333  002D26  EF99  F016         	goto	l3763
  7334  002D2A                     l3761:
  7335                           
  7336                           ; BSR set to: 0
  7337  002D2A  90D8               	bcf	status,0,c
  7338  002D2C  376A               	rlcf	___awmod@divisor& (0+255),f,b
  7339  002D2E  376B               	rlcf	(___awmod@divisor+1)& (0+255),f,b
  7340  002D30  2B6C               	incf	___awmod@counter& (0+255),f,b
  7341  002D32                     l3763:
  7342                           
  7343                           ; BSR set to: 0
  7344  002D32  AF6B               	btfss	(___awmod@divisor+1)& (0+255),7,b
  7345  002D34  EF9E  F016         	goto	u3261
  7346  002D38  EFA0  F016         	goto	u3260
  7347  002D3C                     u3261:
  7348  002D3C  EF95  F016         	goto	l3761
  7349  002D40                     u3260:
  7350  002D40                     l3765:
  7351                           
  7352                           ; BSR set to: 0
  7353  002D40  516A               	movf	___awmod@divisor& (0+255),w,b
  7354  002D42  5D68               	subwf	___awmod@dividend& (0+255),w,b
  7355  002D44  516B               	movf	(___awmod@divisor+1)& (0+255),w,b
  7356  002D46  5969               	subwfb	(___awmod@dividend+1)& (0+255),w,b
  7357  002D48  A0D8               	btfss	status,0,c
  7358  002D4A  EFA9  F016         	goto	u3271
  7359  002D4E  EFAB  F016         	goto	u3270
  7360  002D52                     u3271:
  7361  002D52  EFAF  F016         	goto	l3769
  7362  002D56                     u3270:
  7363  002D56                     
  7364                           ; BSR set to: 0
  7365  002D56  516A               	movf	___awmod@divisor& (0+255),w,b
  7366  002D58  5F68               	subwf	___awmod@dividend& (0+255),f,b
  7367  002D5A  516B               	movf	(___awmod@divisor+1)& (0+255),w,b
  7368  002D5C  5B69               	subwfb	(___awmod@dividend+1)& (0+255),f,b
  7369  002D5E                     l3769:
  7370                           
  7371                           ; BSR set to: 0
  7372  002D5E  90D8               	bcf	status,0,c
  7373  002D60  336B               	rrcf	(___awmod@divisor+1)& (0+255),f,b
  7374  002D62  336A               	rrcf	___awmod@divisor& (0+255),f,b
  7375  002D64                     
  7376                           ; BSR set to: 0
  7377  002D64  2F6C               	decfsz	___awmod@counter& (0+255),f,b
  7378  002D66  EFA0  F016         	goto	l3765
  7379  002D6A                     l3773:
  7380                           
  7381                           ; BSR set to: 0
  7382  002D6A  516D               	movf	___awmod@sign& (0+255),w,b
  7383  002D6C  B4D8               	btfsc	status,2,c
  7384  002D6E  EFBB  F016         	goto	u3281
  7385  002D72  EFBD  F016         	goto	u3280
  7386  002D76                     u3281:
  7387  002D76  EFC1  F016         	goto	l3777
  7388  002D7A                     u3280:
  7389  002D7A                     
  7390                           ; BSR set to: 0
  7391  002D7A  6D68               	negf	___awmod@dividend& (0+255),b
  7392  002D7C  1F69               	comf	(___awmod@dividend+1)& (0+255),f,b
  7393  002D7E  B0D8               	btfsc	status,0,c
  7394  002D80  2B69               	incf	(___awmod@dividend+1)& (0+255),f,b
  7395  002D82                     l3777:
  7396                           
  7397                           ; BSR set to: 0
  7398  002D82  C068  F068         	movff	___awmod@dividend,?___awmod
  7399  002D86  C069  F069         	movff	___awmod@dividend+1,?___awmod+1
  7400  002D8A                     
  7401                           ; BSR set to: 0
  7402  002D8A  0012               	return		;funcret
  7403  002D8C                     __end_of___awmod:
  7404                           	opt callstack 0
  7405                           
  7406 ;; *************** function ___awdiv *****************
  7407 ;; Defined at:
  7408 ;;		line 7 in file "C:\Program Files (x86)\Microchip\xc8\v2.10\pic\sources\c99\common\awdiv.c"
  7409 ;; Parameters:    Size  Location     Type
  7410 ;;  dividend        2    0[BANK0 ] int 
  7411 ;;  divisor         2    2[BANK0 ] int 
  7412 ;; Auto vars:     Size  Location     Type
  7413 ;;  quotient        2    6[BANK0 ] int 
  7414 ;;  sign            1    5[BANK0 ] unsigned char 
  7415 ;;  counter         1    4[BANK0 ] unsigned char 
  7416 ;; Return value:  Size  Location     Type
  7417 ;;                  2    0[BANK0 ] int 
  7418 ;; Registers used:
  7419 ;;		wreg, status,2, status,0
  7420 ;; Tracked objects:
  7421 ;;		On entry : 0/0
  7422 ;;		On exit  : 0/0
  7423 ;;		Unchanged: 0/0
  7424 ;; Data sizes:     COMRAM   BANK0   BANK1   BANK2   BANK3   BANK4   BANK5   BANK6   BANK7
  7425 ;;      Params:         0       4       0       0       0       0       0       0       0
  7426 ;;      Locals:         0       4       0       0       0       0       0       0       0
  7427 ;;      Temps:          0       0       0       0       0       0       0       0       0
  7428 ;;      Totals:         0       8       0       0       0       0       0       0       0
  7429 ;;Total ram usage:        8 bytes
  7430 ;; Hardware stack levels used:    1
  7431 ;; Hardware stack levels required when called:    3
  7432 ;; This function calls:
  7433 ;;		Nothing
  7434 ;; This function is called by:
  7435 ;;		_lcdprint
  7436 ;;		_set_seconds
  7437 ;;		_set_minutes
  7438 ;;		_set_hours
  7439 ;;		_set_months
  7440 ;;		_set_days
  7441 ;;		_set_years
  7442 ;;		_set_Aseconds
  7443 ;;		_set_Aminutes
  7444 ;;		_set_Ahours
  7445 ;; This function uses a non-reentrant model
  7446 ;;
  7447                           
  7448                           	psect	text36
  7449  002C14                     __ptext36:
  7450                           	opt callstack 0
  7451  002C14                     ___awdiv:
  7452                           	opt callstack 26
  7453  002C14  0E00               	movlw	0
  7454  002C16  0100               	movlb	0	; () banked
  7455  002C18  6F65               	movwf	___awdiv@sign& (0+255),b
  7456  002C1A                     
  7457                           ; BSR set to: 0
  7458  002C1A  BF63               	btfsc	(___awdiv@divisor+1)& (0+255),7,b
  7459  002C1C  EF14  F016         	goto	u3170
  7460  002C20  EF12  F016         	goto	u3171
  7461  002C24                     u3171:
  7462  002C24  EF1A  F016         	goto	l3709
  7463  002C28                     u3170:
  7464  002C28                     
  7465                           ; BSR set to: 0
  7466  002C28  6D62               	negf	___awdiv@divisor& (0+255),b
  7467  002C2A  1F63               	comf	(___awdiv@divisor+1)& (0+255),f,b
  7468  002C2C  B0D8               	btfsc	status,0,c
  7469  002C2E  2B63               	incf	(___awdiv@divisor+1)& (0+255),f,b
  7470  002C30                     
  7471                           ; BSR set to: 0
  7472  002C30  0E01               	movlw	1
  7473  002C32  6F65               	movwf	___awdiv@sign& (0+255),b
  7474  002C34                     l3709:
  7475                           
  7476                           ; BSR set to: 0
  7477  002C34  BF61               	btfsc	(___awdiv@dividend+1)& (0+255),7,b
  7478  002C36  EF21  F016         	goto	u3180
  7479  002C3A  EF1F  F016         	goto	u3181
  7480  002C3E                     u3181:
  7481  002C3E  EF27  F016         	goto	l3715
  7482  002C42                     u3180:
  7483  002C42                     
  7484                           ; BSR set to: 0
  7485  002C42  6D60               	negf	___awdiv@dividend& (0+255),b
  7486  002C44  1F61               	comf	(___awdiv@dividend+1)& (0+255),f,b
  7487  002C46  B0D8               	btfsc	status,0,c
  7488  002C48  2B61               	incf	(___awdiv@dividend+1)& (0+255),f,b
  7489  002C4A                     
  7490                           ; BSR set to: 0
  7491  002C4A  0E01               	movlw	1
  7492  002C4C  1B65               	xorwf	___awdiv@sign& (0+255),f,b
  7493  002C4E                     l3715:
  7494                           
  7495                           ; BSR set to: 0
  7496  002C4E  0E00               	movlw	0
  7497  002C50  6F67               	movwf	(___awdiv@quotient+1)& (0+255),b
  7498  002C52  0E00               	movlw	0
  7499  002C54  6F66               	movwf	___awdiv@quotient& (0+255),b
  7500  002C56                     
  7501                           ; BSR set to: 0
  7502  002C56  5162               	movf	___awdiv@divisor& (0+255),w,b
  7503  002C58  1163               	iorwf	(___awdiv@divisor+1)& (0+255),w,b
  7504  002C5A  B4D8               	btfsc	status,2,c
  7505  002C5C  EF32  F016         	goto	u3191
  7506  002C60  EF34  F016         	goto	u3190
  7507  002C64                     u3191:
  7508  002C64  EF5C  F016         	goto	l3737
  7509  002C68                     u3190:
  7510  002C68                     
  7511                           ; BSR set to: 0
  7512  002C68  0E01               	movlw	1
  7513  002C6A  6F64               	movwf	___awdiv@counter& (0+255),b
  7514  002C6C  EF3C  F016         	goto	l3723
  7515  002C70                     l3721:
  7516                           
  7517                           ; BSR set to: 0
  7518  002C70  90D8               	bcf	status,0,c
  7519  002C72  3762               	rlcf	___awdiv@divisor& (0+255),f,b
  7520  002C74  3763               	rlcf	(___awdiv@divisor+1)& (0+255),f,b
  7521  002C76  2B64               	incf	___awdiv@counter& (0+255),f,b
  7522  002C78                     l3723:
  7523                           
  7524                           ; BSR set to: 0
  7525  002C78  AF63               	btfss	(___awdiv@divisor+1)& (0+255),7,b
  7526  002C7A  EF41  F016         	goto	u3201
  7527  002C7E  EF43  F016         	goto	u3200
  7528  002C82                     u3201:
  7529  002C82  EF38  F016         	goto	l3721
  7530  002C86                     u3200:
  7531  002C86                     l3725:
  7532                           
  7533                           ; BSR set to: 0
  7534  002C86  90D8               	bcf	status,0,c
  7535  002C88  3766               	rlcf	___awdiv@quotient& (0+255),f,b
  7536  002C8A  3767               	rlcf	(___awdiv@quotient+1)& (0+255),f,b
  7537  002C8C                     
  7538                           ; BSR set to: 0
  7539  002C8C  5162               	movf	___awdiv@divisor& (0+255),w,b
  7540  002C8E  5D60               	subwf	___awdiv@dividend& (0+255),w,b
  7541  002C90  5163               	movf	(___awdiv@divisor+1)& (0+255),w,b
  7542  002C92  5961               	subwfb	(___awdiv@dividend+1)& (0+255),w,b
  7543  002C94  A0D8               	btfss	status,0,c
  7544  002C96  EF4F  F016         	goto	u3211
  7545  002C9A  EF51  F016         	goto	u3210
  7546  002C9E                     u3211:
  7547  002C9E  EF56  F016         	goto	l3733
  7548  002CA2                     u3210:
  7549  002CA2                     
  7550                           ; BSR set to: 0
  7551  002CA2  5162               	movf	___awdiv@divisor& (0+255),w,b
  7552  002CA4  5F60               	subwf	___awdiv@dividend& (0+255),f,b
  7553  002CA6  5163               	movf	(___awdiv@divisor+1)& (0+255),w,b
  7554  002CA8  5B61               	subwfb	(___awdiv@dividend+1)& (0+255),f,b
  7555  002CAA                     
  7556                           ; BSR set to: 0
  7557  002CAA  8166               	bsf	___awdiv@quotient& (0+255),0,b
  7558  002CAC                     l3733:
  7559                           
  7560                           ; BSR set to: 0
  7561  002CAC  90D8               	bcf	status,0,c
  7562  002CAE  3363               	rrcf	(___awdiv@divisor+1)& (0+255),f,b
  7563  002CB0  3362               	rrcf	___awdiv@divisor& (0+255),f,b
  7564  002CB2                     
  7565                           ; BSR set to: 0
  7566  002CB2  2F64               	decfsz	___awdiv@counter& (0+255),f,b
  7567  002CB4  EF43  F016         	goto	l3725
  7568  002CB8                     l3737:
  7569                           
  7570                           ; BSR set to: 0
  7571  002CB8  5165               	movf	___awdiv@sign& (0+255),w,b
  7572  002CBA  B4D8               	btfsc	status,2,c
  7573  002CBC  EF62  F016         	goto	u3221
  7574  002CC0  EF64  F016         	goto	u3220
  7575  002CC4                     u3221:
  7576  002CC4  EF68  F016         	goto	l3741
  7577  002CC8                     u3220:
  7578  002CC8                     
  7579                           ; BSR set to: 0
  7580  002CC8  6D66               	negf	___awdiv@quotient& (0+255),b
  7581  002CCA  1F67               	comf	(___awdiv@quotient+1)& (0+255),f,b
  7582  002CCC  B0D8               	btfsc	status,0,c
  7583  002CCE  2B67               	incf	(___awdiv@quotient+1)& (0+255),f,b
  7584  002CD0                     l3741:
  7585                           
  7586                           ; BSR set to: 0
  7587  002CD0  C066  F060         	movff	___awdiv@quotient,?___awdiv
  7588  002CD4  C067  F061         	movff	___awdiv@quotient+1,?___awdiv+1
  7589  002CD8                     
  7590                           ; BSR set to: 0
  7591  002CD8  0012               	return		;funcret
  7592  002CDA                     __end_of___awdiv:
  7593                           	opt callstack 0
  7594                           
  7595 ;; *************** function _forward *****************
  7596 ;; Defined at:
  7597 ;;		line 10 in file "movement.c"
  7598 ;; Parameters:    Size  Location     Type
  7599 ;;  gostop          2    0[BANK0 ] int 
  7600 ;; Auto vars:     Size  Location     Type
  7601 ;;		None
  7602 ;; Return value:  Size  Location     Type
  7603 ;;                  1    wreg      void 
  7604 ;; Registers used:
  7605 ;;		None
  7606 ;; Tracked objects:
  7607 ;;		On entry : 0/0
  7608 ;;		On exit  : 0/0
  7609 ;;		Unchanged: 0/0
  7610 ;; Data sizes:     COMRAM   BANK0   BANK1   BANK2   BANK3   BANK4   BANK5   BANK6   BANK7
  7611 ;;      Params:         0       2       0       0       0       0       0       0       0
  7612 ;;      Locals:         0       0       0       0       0       0       0       0       0
  7613 ;;      Temps:          0       0       0       0       0       0       0       0       0
  7614 ;;      Totals:         0       2       0       0       0       0       0       0       0
  7615 ;;Total ram usage:        2 bytes
  7616 ;; Hardware stack levels used:    1
  7617 ;; Hardware stack levels required when called:    3
  7618 ;; This function calls:
  7619 ;;		Nothing
  7620 ;; This function is called by:
  7621 ;;		_IRpath1
  7622 ;;		_main
  7623 ;;		_IRpath2
  7624 ;; This function uses a non-reentrant model
  7625 ;;
  7626                           
  7627                           	psect	text37
  7628  0033B6                     __ptext37:
  7629                           	opt callstack 0
  7630  0033B6                     _forward:
  7631                           	opt callstack 27
  7632  0033B6  9090               	bcf	3984,0,c	;volatile
  7633                           
  7634                           ;movement.c: 12:     RC2=gostop;
  7635  0033B8  0100               	movlb	0	; () banked
  7636  0033BA  B160               	btfsc	forward@gostop& (0+255),0,b
  7637  0033BC  EFE2  F019         	goto	u3291
  7638  0033C0  EFE5  F019         	goto	u3290
  7639  0033C4                     u3291:
  7640  0033C4  848E               	bsf	3982,2,c	;volatile
  7641  0033C6  EFE6  F019         	goto	u3305
  7642  0033CA                     u3290:
  7643  0033CA  948E               	bcf	3982,2,c	;volatile
  7644  0033CC                     u3305:
  7645  0033CC  908E               	bcf	3982,0,c	;volatile
  7646                           
  7647                           ;movement.c: 14:     RC1=gostop;
  7648  0033CE  0100               	movlb	0	; () banked
  7649  0033D0  B160               	btfsc	forward@gostop& (0+255),0,b
  7650  0033D2  EFED  F019         	goto	u3311
  7651  0033D6  EFF0  F019         	goto	u3310
  7652  0033DA                     u3311:
  7653  0033DA  828E               	bsf	3982,1,c	;volatile
  7654  0033DC  EFF1  F019         	goto	u3325
  7655  0033E0                     u3310:
  7656  0033E0  928E               	bcf	3982,1,c	;volatile
  7657  0033E2                     u3325:
  7658  0033E2  0012               	return		;funcret
  7659  0033E4                     __end_of_forward:
  7660                           	opt callstack 0
  7661                           
  7662 ;; *************** function _backward *****************
  7663 ;; Defined at:
  7664 ;;		line 20 in file "movement.c"
  7665 ;; Parameters:    Size  Location     Type
  7666 ;;		None
  7667 ;; Auto vars:     Size  Location     Type
  7668 ;;		None
  7669 ;; Return value:  Size  Location     Type
  7670 ;;                  1    wreg      void 
  7671 ;; Registers used:
  7672 ;;		wreg, status,2
  7673 ;; Tracked objects:
  7674 ;;		On entry : 0/0
  7675 ;;		On exit  : 0/0
  7676 ;;		Unchanged: 0/0
  7677 ;; Data sizes:     COMRAM   BANK0   BANK1   BANK2   BANK3   BANK4   BANK5   BANK6   BANK7
  7678 ;;      Params:         0       0       0       0       0       0       0       0       0
  7679 ;;      Locals:         0       0       0       0       0       0       0       0       0
  7680 ;;      Temps:          0       2       0       0       0       0       0       0       0
  7681 ;;      Totals:         0       2       0       0       0       0       0       0       0
  7682 ;;Total ram usage:        2 bytes
  7683 ;; Hardware stack levels used:    1
  7684 ;; Hardware stack levels required when called:    3
  7685 ;; This function calls:
  7686 ;;		Nothing
  7687 ;; This function is called by:
  7688 ;;		_IRpath1
  7689 ;;		_main
  7690 ;;		_IRpath2
  7691 ;; This function uses a non-reentrant model
  7692 ;;
  7693                           
  7694                           	psect	text38
  7695  0032AA                     __ptext38:
  7696                           	opt callstack 0
  7697  0032AA                     _backward:
  7698                           	opt callstack 27
  7699  0032AA                     
  7700                           ;movement.c: 21:     CCPR1H = 0x00;
  7701  0032AA  0E00               	movlw	0
  7702  0032AC  6EAA               	movwf	170,c	;volatile
  7703                           
  7704                           ;movement.c: 22:     CCPR1L = 0x50;
  7705  0032AE  0E50               	movlw	80
  7706  0032B0  6EA9               	movwf	169,c	;volatile
  7707                           
  7708                           ;movement.c: 23:     CCPR2H = 0x00;
  7709  0032B2  0E00               	movlw	0
  7710  0032B4  6EA6               	movwf	166,c	;volatile
  7711                           
  7712                           ;movement.c: 24:     CCPR2L = 0x50;
  7713  0032B6  0E50               	movlw	80
  7714  0032B8  6EA5               	movwf	165,c	;volatile
  7715  0032BA  948E               	bcf	3982,2,c	;volatile
  7716  0032BC  8090               	bsf	3984,0,c	;volatile
  7717  0032BE  928E               	bcf	3982,1,c	;volatile
  7718  0032C0  808E               	bsf	3982,0,c	;volatile
  7719  0032C2                     
  7720                           ;movement.c: 29:     _delay((unsigned long)((110)*(8000000/4000.0)));
  7721  0032C2  0E02               	movlw	2
  7722  0032C4  0100               	movlb	0	; () banked
  7723  0032C6  6F61               	movwf	(??_backward+1)& (0+255),b
  7724  0032C8  0E1E               	movlw	30
  7725  0032CA  6F60               	movwf	??_backward& (0+255),b
  7726  0032CC  0EB3               	movlw	179
  7727  0032CE                     u5877:
  7728  0032CE  2EE8               	decfsz	wreg,f,c
  7729  0032D0  D7FE               	bra	u5877
  7730  0032D2  2F60               	decfsz	??_backward& (0+255),f,b
  7731  0032D4  D7FC               	bra	u5877
  7732  0032D6  2F61               	decfsz	(??_backward+1)& (0+255),f,b
  7733  0032D8  D7FA               	bra	u5877
  7734  0032DA  D000               	nop2	
  7735  0032DC  948E               	bcf	3982,2,c	;volatile
  7736  0032DE  9090               	bcf	3984,0,c	;volatile
  7737  0032E0  928E               	bcf	3982,1,c	;volatile
  7738  0032E2  908E               	bcf	3982,0,c	;volatile
  7739  0032E4  0012               	return		;funcret
  7740  0032E6                     __end_of_backward:
  7741                           	opt callstack 0
  7742                           
  7743 ;; *************** function _echo *****************
  7744 ;; Defined at:
  7745 ;;		line 141 in file "senior_main.c"
  7746 ;; Parameters:    Size  Location     Type
  7747 ;;		None
  7748 ;; Auto vars:     Size  Location     Type
  7749 ;;		None
  7750 ;; Return value:  Size  Location     Type
  7751 ;;                  1    wreg      void 
  7752 ;; Registers used:
  7753 ;;		wreg, status,2, status,0, cstack
  7754 ;; Tracked objects:
  7755 ;;		On entry : 0/0
  7756 ;;		On exit  : 0/0
  7757 ;;		Unchanged: 0/0
  7758 ;; Data sizes:     COMRAM   BANK0   BANK1   BANK2   BANK3   BANK4   BANK5   BANK6   BANK7
  7759 ;;      Params:         0       0       0       0       0       0       0       0       0
  7760 ;;      Locals:         0       0       0       0       0       0       0       0       0
  7761 ;;      Temps:          0       0       0       0       0       0       0       0       0
  7762 ;;      Totals:         0       0       0       0       0       0       0       0       0
  7763 ;;Total ram usage:        0 bytes
  7764 ;; Hardware stack levels used:    1
  7765 ;; Hardware stack levels required when called:    2
  7766 ;; This function calls:
  7767 ;;		_IRL
  7768 ;;		_IRR
  7769 ;;		_us_irs
  7770 ;; This function is called by:
  7771 ;;		Interrupt level 2
  7772 ;; This function uses a non-reentrant model
  7773 ;;
  7774                           
  7775                           	psect	intcode
  7776  000008                     __pintcode:
  7777                           	opt callstack 0
  7778  000008                     _echo:
  7779                           	opt callstack 18
  7780                           
  7781                           ;incstack = 0
  7782  000008  8248               	bsf	int$flags,1,c	;set compiler interrupt flag (level 2)
  7783  00000A                     
  7784                           ;senior_main.c: 142:             IOCBNbits.IOCBN0 = 0;
  7785  00000A  010F               	movlb	15	; () banked
  7786  00000C  A50D               	btfss	13,2,b	;volatile
  7787  00000E  EF0B  F000         	goto	i2u473_41
  7788  000012  EF0D  F000         	goto	i2u473_40
  7789  000016                     i2u473_41:
  7790  000016  EF13  F000         	goto	i2l4775
  7791  00001A                     i2u473_40:
  7792  00001A                     
  7793                           ; BSR set to: 15
  7794                           ;senior_main.c: 143:             IOCBFbits.IOCBF0 = 0;
  7795  00001A  950F               	bcf	15,2,b	;volatile
  7796  00001C                     
  7797                           ; BSR set to: 15
  7798                           ;senior_main.c: 144:         }
  7799  00001C  EC13  F012         	call	_us_irs	;wreg free
  7800  000020                     
  7801                           ;senior_main.c: 146:         IOCBNbits.IOCBN5 = 1;
  7802  000020  010F               	movlb	15	; () banked
  7803  000022  950D               	bcf	13,2,b	;volatile
  7804  000024                     
  7805                           ; BSR set to: 15
  7806                           ;senior_main.c: 147:         IOCBNbits.IOCBN0 = 1;
  7807  000024  850F               	bsf	15,2,b	;volatile
  7808  000026                     i2l4775:
  7809                           
  7810                           ; BSR set to: 15
  7811                           ;senior_main.c: 152: 
  7812  000026  A90D               	btfss	13,4,b	;volatile
  7813  000028  EF18  F000         	goto	i2u474_41
  7814  00002C  EF1A  F000         	goto	i2u474_40
  7815  000030                     i2u474_41:
  7816  000030  EF28  F000         	goto	i2l213
  7817  000034                     i2u474_40:
  7818  000034                     
  7819                           ; BSR set to: 15
  7820  000034  A90E               	btfss	14,4,b	;volatile
  7821  000036  EF1F  F000         	goto	i2u475_41
  7822  00003A  EF21  F000         	goto	i2u475_40
  7823  00003E                     i2u475_41:
  7824  00003E  EF28  F000         	goto	i2l213
  7825  000042                     i2u475_40:
  7826  000042                     
  7827                           ; BSR set to: 15
  7828  000042  A50D               	btfss	13,2,b	;volatile
  7829  000044  EF26  F000         	goto	i2u476_41
  7830  000048  EF28  F000         	goto	i2u476_40
  7831  00004C                     i2u476_41:
  7832  00004C  EF3D  F000         	goto	i2l211
  7833  000050                     i2u476_40:
  7834  000050                     i2l213:
  7835                           
  7836                           ; BSR set to: 15
  7837  000050  A30D               	btfss	13,1,b	;volatile
  7838  000052  EF2D  F000         	goto	i2u477_41
  7839  000056  EF2F  F000         	goto	i2u477_40
  7840  00005A                     i2u477_41:
  7841  00005A  EF64  F000         	goto	i2l4799
  7842  00005E                     i2u477_40:
  7843  00005E                     
  7844                           ; BSR set to: 15
  7845  00005E  A30E               	btfss	14,1,b	;volatile
  7846  000060  EF34  F000         	goto	i2u478_41
  7847  000064  EF36  F000         	goto	i2u478_40
  7848  000068                     i2u478_41:
  7849  000068  EF64  F000         	goto	i2l4799
  7850  00006C                     i2u478_40:
  7851  00006C                     
  7852                           ; BSR set to: 15
  7853  00006C  B50D               	btfsc	13,2,b	;volatile
  7854  00006E  EF3B  F000         	goto	i2u479_41
  7855  000072  EF3D  F000         	goto	i2u479_40
  7856  000076                     i2u479_41:
  7857  000076  EF64  F000         	goto	i2l4799
  7858  00007A                     i2u479_40:
  7859  00007A                     i2l211:
  7860                           
  7861                           ; BSR set to: 15
  7862                           ;senior_main.c: 153: 
  7863  00007A  A90D               	btfss	13,4,b	;volatile
  7864  00007C  EF42  F000         	goto	i2u480_41
  7865  000080  EF44  F000         	goto	i2u480_40
  7866  000084                     i2u480_41:
  7867  000084  EF4F  F000         	goto	i2l214
  7868  000088                     i2u480_40:
  7869  000088                     
  7870                           ; BSR set to: 15
  7871  000088  A90E               	btfss	14,4,b	;volatile
  7872  00008A  EF49  F000         	goto	i2u481_41
  7873  00008E  EF4B  F000         	goto	i2u481_40
  7874  000092                     i2u481_41:
  7875  000092  EF4F  F000         	goto	i2l214
  7876  000096                     i2u481_40:
  7877  000096                     
  7878                           ; BSR set to: 15
  7879                           ;senior_main.c: 154: void pwm_init(){
  7880  000096  990E               	bcf	14,4,b	;volatile
  7881                           
  7882                           ;senior_main.c: 155:     RA4PPS = 0x07;
  7883  000098  990D               	bcf	13,4,b	;volatile
  7884                           
  7885                           ;senior_main.c: 156: 
  7886  00009A  EF5F  F000         	goto	i2l4793
  7887  00009E                     i2l214:
  7888                           
  7889                           ; BSR set to: 15
  7890  00009E  A30D               	btfss	13,1,b	;volatile
  7891  0000A0  EF54  F000         	goto	i2u482_41
  7892  0000A4  EF56  F000         	goto	i2u482_40
  7893  0000A8                     i2u482_41:
  7894  0000A8  EF5F  F000         	goto	i2l4793
  7895  0000AC                     i2u482_40:
  7896  0000AC                     
  7897                           ; BSR set to: 15
  7898  0000AC  A30E               	btfss	14,1,b	;volatile
  7899  0000AE  EF5B  F000         	goto	i2u483_41
  7900  0000B2  EF5D  F000         	goto	i2u483_40
  7901  0000B6                     i2u483_41:
  7902  0000B6  EF5F  F000         	goto	i2l4793
  7903  0000BA                     i2u483_40:
  7904  0000BA                     
  7905                           ; BSR set to: 15
  7906                           ;senior_main.c: 158:     OSCCON3 = 0x00;
  7907  0000BA  930E               	bcf	14,1,b	;volatile
  7908                           
  7909                           ;senior_main.c: 159: 
  7910  0000BC  930D               	bcf	13,1,b	;volatile
  7911  0000BE                     i2l4793:
  7912                           
  7913                           ; BSR set to: 15
  7914                           ;senior_main.c: 161: 
  7915  0000BE  ECAB  F017         	call	_IRR	;wreg free
  7916  0000C2                     
  7917                           ;senior_main.c: 162:     OSCTUNE = 0x00;
  7918  0000C2  010F               	movlb	15	; () banked
  7919  0000C4  890E               	bsf	14,4,b	;volatile
  7920  0000C6                     
  7921                           ; BSR set to: 15
  7922                           ;senior_main.c: 163: 
  7923  0000C6  830E               	bsf	14,1,b	;volatile
  7924  0000C8                     i2l4799:
  7925                           
  7926                           ; BSR set to: 15
  7927                           ;senior_main.c: 166: 
  7928  0000C8  AB0D               	btfss	13,5,b	;volatile
  7929  0000CA  EF69  F000         	goto	i2u484_41
  7930  0000CE  EF6B  F000         	goto	i2u484_40
  7931  0000D2                     i2u484_41:
  7932  0000D2  EF79  F000         	goto	i2l221
  7933  0000D6                     i2u484_40:
  7934  0000D6                     
  7935                           ; BSR set to: 15
  7936  0000D6  AB0E               	btfss	14,5,b	;volatile
  7937  0000D8  EF70  F000         	goto	i2u485_41
  7938  0000DC  EF72  F000         	goto	i2u485_40
  7939  0000E0                     i2u485_41:
  7940  0000E0  EF79  F000         	goto	i2l221
  7941  0000E4                     i2u485_40:
  7942  0000E4                     
  7943                           ; BSR set to: 15
  7944  0000E4  A50D               	btfss	13,2,b	;volatile
  7945  0000E6  EF77  F000         	goto	i2u486_41
  7946  0000EA  EF79  F000         	goto	i2u486_40
  7947  0000EE                     i2u486_41:
  7948  0000EE  EF8E  F000         	goto	i2l219
  7949  0000F2                     i2u486_40:
  7950  0000F2                     i2l221:
  7951                           
  7952                           ; BSR set to: 15
  7953  0000F2  A10D               	btfss	13,0,b	;volatile
  7954  0000F4  EF7E  F000         	goto	i2u487_41
  7955  0000F8  EF80  F000         	goto	i2u487_40
  7956  0000FC                     i2u487_41:
  7957  0000FC  EFB5  F000         	goto	i2l225
  7958  000100                     i2u487_40:
  7959  000100                     
  7960                           ; BSR set to: 15
  7961  000100  A10E               	btfss	14,0,b	;volatile
  7962  000102  EF85  F000         	goto	i2u488_41
  7963  000106  EF87  F000         	goto	i2u488_40
  7964  00010A                     i2u488_41:
  7965  00010A  EFB5  F000         	goto	i2l225
  7966  00010E                     i2u488_40:
  7967  00010E                     
  7968                           ; BSR set to: 15
  7969  00010E  B50D               	btfsc	13,2,b	;volatile
  7970  000110  EF8C  F000         	goto	i2u489_41
  7971  000114  EF8E  F000         	goto	i2u489_40
  7972  000118                     i2u489_41:
  7973  000118  EFB5  F000         	goto	i2l225
  7974  00011C                     i2u489_40:
  7975  00011C                     i2l219:
  7976                           
  7977                           ; BSR set to: 15
  7978                           ;senior_main.c: 167: 
  7979  00011C  AB0D               	btfss	13,5,b	;volatile
  7980  00011E  EF93  F000         	goto	i2u490_41
  7981  000122  EF95  F000         	goto	i2u490_40
  7982  000126                     i2u490_41:
  7983  000126  EFA0  F000         	goto	i2l222
  7984  00012A                     i2u490_40:
  7985  00012A                     
  7986                           ; BSR set to: 15
  7987  00012A  AB0E               	btfss	14,5,b	;volatile
  7988  00012C  EF9A  F000         	goto	i2u491_41
  7989  000130  EF9C  F000         	goto	i2u491_40
  7990  000134                     i2u491_41:
  7991  000134  EFA0  F000         	goto	i2l222
  7992  000138                     i2u491_40:
  7993  000138                     
  7994                           ; BSR set to: 15
  7995                           ;senior_main.c: 168:     PMD1 = 0x00;
  7996  000138  9B0E               	bcf	14,5,b	;volatile
  7997                           
  7998                           ;senior_main.c: 169: 
  7999  00013A  9B0D               	bcf	13,5,b	;volatile
  8000                           
  8001                           ;senior_main.c: 170:     PMD3 = 0x00;
  8002  00013C  EFB0  F000         	goto	i2l4817
  8003  000140                     i2l222:
  8004                           
  8005                           ; BSR set to: 15
  8006  000140  A10D               	btfss	13,0,b	;volatile
  8007  000142  EFA5  F000         	goto	i2u492_41
  8008  000146  EFA7  F000         	goto	i2u492_40
  8009  00014A                     i2u492_41:
  8010  00014A  EFB0  F000         	goto	i2l4817
  8011  00014E                     i2u492_40:
  8012  00014E                     
  8013                           ; BSR set to: 15
  8014  00014E  A10E               	btfss	14,0,b	;volatile
  8015  000150  EFAC  F000         	goto	i2u493_41
  8016  000154  EFAE  F000         	goto	i2u493_40
  8017  000158                     i2u493_41:
  8018  000158  EFB0  F000         	goto	i2l4817
  8019  00015C                     i2u493_40:
  8020  00015C                     
  8021                           ; BSR set to: 15
  8022                           ;senior_main.c: 172: 
  8023  00015C  910E               	bcf	14,0,b	;volatile
  8024                           
  8025                           ;senior_main.c: 173: 
  8026  00015E  910D               	bcf	13,0,b	;volatile
  8027  000160                     i2l4817:
  8028                           
  8029                           ; BSR set to: 15
  8030                           ;senior_main.c: 175:     T2CLKCON = 0x01;
  8031  000160  ECDA  F017         	call	_IRL	;wreg free
  8032  000164                     
  8033                           ;senior_main.c: 176: 
  8034  000164  010F               	movlb	15	; () banked
  8035  000166  8B0E               	bsf	14,5,b	;volatile
  8036  000168                     
  8037                           ; BSR set to: 15
  8038                           ;senior_main.c: 177:     T2HLT = 0xA0;
  8039  000168  810E               	bsf	14,0,b	;volatile
  8040  00016A                     i2l225:
  8041                           
  8042                           ; BSR set to: 15
  8043  00016A  9248               	bcf	int$flags,1,c	;clear compiler interrupt flag (level 2)
  8044  00016C  0011               	retfie		f
  8045  00016E                     __end_of_echo:
  8046                           	opt callstack 0
  8047                           
  8048 ;; *************** function _us_irs *****************
  8049 ;; Defined at:
  8050 ;;		line 80 in file "senior_main.c"
  8051 ;; Parameters:    Size  Location     Type
  8052 ;;		None
  8053 ;; Auto vars:     Size  Location     Type
  8054 ;;  time_taken      2   69[COMRAM] int 
  8055 ;; Return value:  Size  Location     Type
  8056 ;;                  1    wreg      void 
  8057 ;; Registers used:
  8058 ;;		wreg, status,2, status,0, cstack
  8059 ;; Tracked objects:
  8060 ;;		On entry : 0/0
  8061 ;;		On exit  : 0/0
  8062 ;;		Unchanged: 0/0
  8063 ;; Data sizes:     COMRAM   BANK0   BANK1   BANK2   BANK3   BANK4   BANK5   BANK6   BANK7
  8064 ;;      Params:         0       0       0       0       0       0       0       0       0
  8065 ;;      Locals:         2       0       0       0       0       0       0       0       0
  8066 ;;      Temps:          4       0       0       0       0       0       0       0       0
  8067 ;;      Totals:         6       0       0       0       0       0       0       0       0
  8068 ;;Total ram usage:        6 bytes
  8069 ;; Hardware stack levels used:    1
  8070 ;; Hardware stack levels required when called:    1
  8071 ;; This function calls:
  8072 ;;		___fladd
  8073 ;;		___fldiv
  8074 ;;		___fltol
  8075 ;;		___xxtofl
  8076 ;;		i2_forward
  8077 ;; This function is called by:
  8078 ;;		_echo
  8079 ;; This function uses a non-reentrant model
  8080 ;;
  8081                           
  8082                           	psect	text40
  8083  002426                     __ptext40:
  8084                           	opt callstack 0
  8085  002426                     _us_irs:
  8086                           	opt callstack 18
  8087  002426                     i2l175:
  8088  002426  A48D               	btfss	3981,2,c	;volatile
  8089  002428  EF18  F012         	goto	i2u436_41
  8090  00242C  EF1A  F012         	goto	i2u436_40
  8091  002430                     i2u436_41:
  8092  002430  EF13  F012         	goto	i2l175
  8093  002434                     i2u436_40:
  8094  002434                     
  8095                           ;senior_main.c: 82: 
  8096  002434  80CE               	bsf	4046,0,c	;volatile
  8097  002436                     i2l178:
  8098  002436  B48D               	btfsc	3981,2,c	;volatile
  8099  002438  EF20  F012         	goto	i2u437_41
  8100  00243C  EF22  F012         	goto	i2u437_40
  8101  002440                     i2u437_41:
  8102  002440  EF1B  F012         	goto	i2l178
  8103  002444                     i2u437_40:
  8104  002444                     
  8105                           ;senior_main.c: 84:     CCPR1L = 0x50;
  8106  002444  90CE               	bcf	4046,0,c	;volatile
  8107  002446                     
  8108                           ;senior_main.c: 87: }
  8109  002446  50CD               	movf	205,w,c	;volatile
  8110  002448  6E43               	movwf	(??_us_irs+1)^0,c
  8111  00244A  6A42               	clrf	??_us_irs^0,c
  8112  00244C  50CC               	movf	204,w,c	;volatile
  8113  00244E  6E44               	movwf	(??_us_irs+2)^0,c
  8114  002450  6A45               	clrf	(??_us_irs+3)^0,c
  8115  002452  5042               	movf	??_us_irs^0,w,c
  8116  002454  1044               	iorwf	(??_us_irs+2)^0,w,c
  8117  002456  6E46               	movwf	us_irs@time_taken^0,c
  8118  002458  5043               	movf	(??_us_irs+1)^0,w,c
  8119  00245A  1045               	iorwf	(??_us_irs+3)^0,w,c
  8120  00245C  6E47               	movwf	(us_irs@time_taken+1)^0,c
  8121  00245E                     
  8122                           ;senior_main.c: 88: 
  8123  00245E  0E00               	movlw	0
  8124  002460  6E2C               	movwf	___fladd@a^0,c
  8125  002462  0E00               	movlw	0
  8126  002464  6E2D               	movwf	(___fladd@a+1)^0,c
  8127  002466  0E80               	movlw	128
  8128  002468  6E2E               	movwf	(___fladd@a+2)^0,c
  8129  00246A  0E3F               	movlw	63
  8130  00246C  6E2F               	movwf	(___fladd@a+3)^0,c
  8131  00246E  0EAE               	movlw	174
  8132  002470  6E13               	movwf	___fldiv@a^0,c
  8133  002472  0E47               	movlw	71
  8134  002474  6E14               	movwf	(___fldiv@a+1)^0,c
  8135  002476  0E6B               	movlw	107
  8136  002478  6E15               	movwf	(___fldiv@a+2)^0,c
  8137  00247A  0E42               	movlw	66
  8138  00247C  6E16               	movwf	(___fldiv@a+3)^0,c
  8139  00247E  C046  F001         	movff	us_irs@time_taken,___xxtofl@val
  8140  002482  C047  F002         	movff	us_irs@time_taken+1,___xxtofl@val+1
  8141  002486  0E00               	movlw	0
  8142  002488  BE02               	btfsc	(___xxtofl@val+1)^0,7,c
  8143  00248A  0EFF               	movlw	-1
  8144  00248C  6E03               	movwf	(___xxtofl@val+2)^0,c
  8145  00248E  6E04               	movwf	(___xxtofl@val+3)^0,c
  8146  002490  0E01               	movlw	1
  8147  002492  ECC5  F00F         	call	___xxtofl
  8148  002496  C001  F00F         	movff	?___xxtofl,___fldiv@b
  8149  00249A  C002  F010         	movff	?___xxtofl+1,___fldiv@b+1
  8150  00249E  C003  F011         	movff	?___xxtofl+2,___fldiv@b+2
  8151  0024A2  C004  F012         	movff	?___xxtofl+3,___fldiv@b+3
  8152  0024A6  ECB3  F00B         	call	___fldiv	;wreg free
  8153  0024AA  C00F  F028         	movff	?___fldiv,___fladd@b
  8154  0024AE  C010  F029         	movff	?___fldiv+1,___fladd@b+1
  8155  0024B2  C011  F02A         	movff	?___fldiv+2,___fladd@b+2
  8156  0024B6  C012  F02B         	movff	?___fldiv+3,___fladd@b+3
  8157  0024BA  EC16  F007         	call	___fladd	;wreg free
  8158  0024BE  C028  F038         	movff	?___fladd,___fltol@f1
  8159  0024C2  C029  F039         	movff	?___fladd+1,___fltol@f1+1
  8160  0024C6  C02A  F03A         	movff	?___fladd+2,___fltol@f1+2
  8161  0024CA  C02B  F03B         	movff	?___fladd+3,___fltol@f1+3
  8162  0024CE  ECA6  F012         	call	___fltol	;wreg free
  8163  0024D2  C038  F0EF         	movff	?___fltol,_distance
  8164  0024D6  C039  F0F0         	movff	?___fltol+1,_distance+1
  8165  0024DA                     
  8166                           ;senior_main.c: 90: 
  8167  0024DA  0100               	movlb	0	; () banked
  8168  0024DC  BFF0               	btfsc	(_distance+1)& (0+255),7,b
  8169  0024DE  EF7C  F012         	goto	i2u438_40
  8170  0024E2  51F0               	movf	(_distance+1)& (0+255),w,b
  8171  0024E4  E107               	bnz	i2u438_41
  8172  0024E6  0E1A               	movlw	26
  8173  0024E8  5DEF               	subwf	_distance& (0+255),w,b
  8174  0024EA  B0D8               	btfsc	status,0,c
  8175  0024EC  EF7A  F012         	goto	i2u438_41
  8176  0024F0  EF7C  F012         	goto	i2u438_40
  8177  0024F4                     i2u438_41:
  8178  0024F4  EF89  F012         	goto	i2l4475
  8179  0024F8                     i2u438_40:
  8180  0024F8                     
  8181                           ; BSR set to: 0
  8182  0024F8  B28C               	btfsc	140,1,c	;volatile
  8183  0024FA  EF81  F012         	goto	i2u439_41
  8184  0024FE  EF83  F012         	goto	i2u439_40
  8185  002502                     i2u439_41:
  8186  002502  EF89  F012         	goto	i2l4475
  8187  002506                     i2u439_40:
  8188  002506                     
  8189                           ; BSR set to: 0
  8190  002506  0E00               	movlw	0
  8191  002508  6E02               	movwf	(i2forward@gostop+1)^0,c
  8192  00250A  0E00               	movlw	0
  8193  00250C  6E01               	movwf	i2forward@gostop^0,c
  8194  00250E  EC07  F01A         	call	i2_forward	;wreg free
  8195  002512                     i2l4475:
  8196                           
  8197                           ;senior_main.c: 94: 
  8198  002512  0100               	movlb	0	; () banked
  8199  002514  BFF0               	btfsc	(_distance+1)& (0+255),7,b
  8200  002516  EF96  F012         	goto	i2u440_41
  8201  00251A  51F0               	movf	(_distance+1)& (0+255),w,b
  8202  00251C  E109               	bnz	i2u440_40
  8203  00251E  0E19               	movlw	25
  8204  002520  5DEF               	subwf	_distance& (0+255),w,b
  8205  002522  A0D8               	btfss	status,0,c
  8206  002524  EF96  F012         	goto	i2u440_41
  8207  002528  EF98  F012         	goto	i2u440_40
  8208  00252C                     i2u440_41:
  8209  00252C  EFA5  F012         	goto	i2l183
  8210  002530                     i2u440_40:
  8211  002530                     
  8212                           ; BSR set to: 0
  8213  002530  A28C               	btfss	140,1,c	;volatile
  8214  002532  EF9D  F012         	goto	i2u441_41
  8215  002536  EF9F  F012         	goto	i2u441_40
  8216  00253A                     i2u441_41:
  8217  00253A  EFA5  F012         	goto	i2l183
  8218  00253E                     i2u441_40:
  8219  00253E                     
  8220                           ; BSR set to: 0
  8221  00253E  0E00               	movlw	0
  8222  002540  6E02               	movwf	(i2forward@gostop+1)^0,c
  8223  002542  0E00               	movlw	0
  8224  002544  6E01               	movwf	i2forward@gostop^0,c
  8225  002546  EC07  F01A         	call	i2_forward	;wreg free
  8226  00254A                     i2l183:
  8227  00254A  0012               	return		;funcret
  8228  00254C                     __end_of_us_irs:
  8229                           	opt callstack 0
  8230                           
  8231 ;; *************** function ___xxtofl *****************
  8232 ;; Defined at:
  8233 ;;		line 10 in file "C:\Program Files (x86)\Microchip\xc8\v2.10\pic\sources\c99\common\xxtofl.c"
  8234 ;; Parameters:    Size  Location     Type
  8235 ;;  sign            1    wreg     unsigned char 
  8236 ;;  val             4    0[COMRAM] long 
  8237 ;; Auto vars:     Size  Location     Type
  8238 ;;  sign            1    8[COMRAM] unsigned char 
  8239 ;;  arg             4   10[COMRAM] unsigned long 
  8240 ;;  exp             1    9[COMRAM] unsigned char 
  8241 ;; Return value:  Size  Location     Type
  8242 ;;                  4    0[COMRAM] unsigned char 
  8243 ;; Registers used:
  8244 ;;		wreg, status,2, status,0
  8245 ;; Tracked objects:
  8246 ;;		On entry : 0/0
  8247 ;;		On exit  : 0/0
  8248 ;;		Unchanged: 0/0
  8249 ;; Data sizes:     COMRAM   BANK0   BANK1   BANK2   BANK3   BANK4   BANK5   BANK6   BANK7
  8250 ;;      Params:         4       0       0       0       0       0       0       0       0
  8251 ;;      Locals:         6       0       0       0       0       0       0       0       0
  8252 ;;      Temps:          4       0       0       0       0       0       0       0       0
  8253 ;;      Totals:        14       0       0       0       0       0       0       0       0
  8254 ;;Total ram usage:       14 bytes
  8255 ;; Hardware stack levels used:    1
  8256 ;; This function calls:
  8257 ;;		Nothing
  8258 ;; This function is called by:
  8259 ;;		_us_irs
  8260 ;; This function uses a non-reentrant model
  8261 ;;
  8262                           
  8263                           	psect	text41
  8264  001F8A                     __ptext41:
  8265                           	opt callstack 0
  8266  001F8A                     ___xxtofl:
  8267                           	opt callstack 18
  8268                           
  8269                           ;incstack = 0
  8270                           ;___xxtofl@sign stored from wreg
  8271  001F8A  6E09               	movwf	___xxtofl@sign^0,c
  8272  001F8C  5009               	movf	___xxtofl@sign^0,w,c
  8273  001F8E  B4D8               	btfsc	status,2,c
  8274  001F90  EFCC  F00F         	goto	i2u422_41
  8275  001F94  EFCE  F00F         	goto	i2u422_40
  8276  001F98                     i2u422_41:
  8277  001F98  EFF0  F00F         	goto	i2l1305
  8278  001F9C                     i2u422_40:
  8279  001F9C  BE04               	btfsc	(___xxtofl@val+3)^0,7,c
  8280  001F9E  EFD5  F00F         	goto	i2u423_40
  8281  001FA2  EFD3  F00F         	goto	i2u423_41
  8282  001FA6                     i2u423_41:
  8283  001FA6  EFF0  F00F         	goto	i2l1305
  8284  001FAA                     i2u423_40:
  8285  001FAA  C001  F005         	movff	___xxtofl@val,??___xxtofl
  8286  001FAE  C002  F006         	movff	___xxtofl@val+1,??___xxtofl+1
  8287  001FB2  C003  F007         	movff	___xxtofl@val+2,??___xxtofl+2
  8288  001FB6  C004  F008         	movff	___xxtofl@val+3,??___xxtofl+3
  8289  001FBA  1E05               	comf	??___xxtofl^0,f,c
  8290  001FBC  1E06               	comf	(??___xxtofl+1)^0,f,c
  8291  001FBE  1E07               	comf	(??___xxtofl+2)^0,f,c
  8292  001FC0  1E08               	comf	(??___xxtofl+3)^0,f,c
  8293  001FC2  2A05               	incf	??___xxtofl^0,f,c
  8294  001FC4  0E00               	movlw	0
  8295  001FC6  2206               	addwfc	(??___xxtofl+1)^0,f,c
  8296  001FC8  2207               	addwfc	(??___xxtofl+2)^0,f,c
  8297  001FCA  2208               	addwfc	(??___xxtofl+3)^0,f,c
  8298  001FCC  C005  F00B         	movff	??___xxtofl,___xxtofl@arg
  8299  001FD0  C006  F00C         	movff	??___xxtofl+1,___xxtofl@arg+1
  8300  001FD4  C007  F00D         	movff	??___xxtofl+2,___xxtofl@arg+2
  8301  001FD8  C008  F00E         	movff	??___xxtofl+3,___xxtofl@arg+3
  8302  001FDC  EFF8  F00F         	goto	i2l4407
  8303  001FE0                     i2l1305:
  8304  001FE0  C001  F00B         	movff	___xxtofl@val,___xxtofl@arg
  8305  001FE4  C002  F00C         	movff	___xxtofl@val+1,___xxtofl@arg+1
  8306  001FE8  C003  F00D         	movff	___xxtofl@val+2,___xxtofl@arg+2
  8307  001FEC  C004  F00E         	movff	___xxtofl@val+3,___xxtofl@arg+3
  8308  001FF0                     i2l4407:
  8309  001FF0  5001               	movf	___xxtofl@val^0,w,c
  8310  001FF2  1002               	iorwf	(___xxtofl@val+1)^0,w,c
  8311  001FF4  1003               	iorwf	(___xxtofl@val+2)^0,w,c
  8312  001FF6  1004               	iorwf	(___xxtofl@val+3)^0,w,c
  8313  001FF8  A4D8               	btfss	status,2,c
  8314  001FFA  EF01  F010         	goto	i2u424_41
  8315  001FFE  EF03  F010         	goto	i2u424_40
  8316  002002                     i2u424_41:
  8317  002002  EF0D  F010         	goto	i2l4413
  8318  002006                     i2u424_40:
  8319  002006  0E00               	movlw	0
  8320  002008  6E01               	movwf	?___xxtofl^0,c
  8321  00200A  0E00               	movlw	0
  8322  00200C  6E02               	movwf	(?___xxtofl+1)^0,c
  8323  00200E  0E00               	movlw	0
  8324  002010  6E03               	movwf	(?___xxtofl+2)^0,c
  8325  002012  0E00               	movlw	0
  8326  002014  6E04               	movwf	(?___xxtofl+3)^0,c
  8327  002016  EF9E  F010         	goto	i2l1308
  8328  00201A                     i2l4413:
  8329  00201A  0E96               	movlw	150
  8330  00201C  6E0A               	movwf	___xxtofl@exp^0,c
  8331  00201E  EF17  F010         	goto	i2l4417
  8332  002022                     i2l4415:
  8333  002022  2A0A               	incf	___xxtofl@exp^0,f,c
  8334  002024  90D8               	bcf	status,0,c
  8335  002026  320E               	rrcf	(___xxtofl@arg+3)^0,f,c
  8336  002028  320D               	rrcf	(___xxtofl@arg+2)^0,f,c
  8337  00202A  320C               	rrcf	(___xxtofl@arg+1)^0,f,c
  8338  00202C  320B               	rrcf	___xxtofl@arg^0,f,c
  8339  00202E                     i2l4417:
  8340  00202E  0E00               	movlw	0
  8341  002030  140B               	andwf	___xxtofl@arg^0,w,c
  8342  002032  6E05               	movwf	??___xxtofl^0,c
  8343  002034  0E00               	movlw	0
  8344  002036  140C               	andwf	(___xxtofl@arg+1)^0,w,c
  8345  002038  6E06               	movwf	(??___xxtofl+1)^0,c
  8346  00203A  0E00               	movlw	0
  8347  00203C  140D               	andwf	(___xxtofl@arg+2)^0,w,c
  8348  00203E  6E07               	movwf	(??___xxtofl+2)^0,c
  8349  002040  0EFE               	movlw	254
  8350  002042  140E               	andwf	(___xxtofl@arg+3)^0,w,c
  8351  002044  6E08               	movwf	(??___xxtofl+3)^0,c
  8352  002046  5005               	movf	??___xxtofl^0,w,c
  8353  002048  1006               	iorwf	(??___xxtofl+1)^0,w,c
  8354  00204A  1007               	iorwf	(??___xxtofl+2)^0,w,c
  8355  00204C  1008               	iorwf	(??___xxtofl+3)^0,w,c
  8356  00204E  A4D8               	btfss	status,2,c
  8357  002050  EF2C  F010         	goto	i2u425_41
  8358  002054  EF2E  F010         	goto	i2u425_40
  8359  002058                     i2u425_41:
  8360  002058  EF11  F010         	goto	i2l4415
  8361  00205C                     i2u425_40:
  8362  00205C  EF3C  F010         	goto	i2l1312
  8363  002060                     i2l4419:
  8364  002060  2A0A               	incf	___xxtofl@exp^0,f,c
  8365  002062  0E01               	movlw	1
  8366  002064  260B               	addwf	___xxtofl@arg^0,f,c
  8367  002066  0E00               	movlw	0
  8368  002068  220C               	addwfc	(___xxtofl@arg+1)^0,f,c
  8369  00206A  220D               	addwfc	(___xxtofl@arg+2)^0,f,c
  8370  00206C  220E               	addwfc	(___xxtofl@arg+3)^0,f,c
  8371  00206E  90D8               	bcf	status,0,c
  8372  002070  320E               	rrcf	(___xxtofl@arg+3)^0,f,c
  8373  002072  320D               	rrcf	(___xxtofl@arg+2)^0,f,c
  8374  002074  320C               	rrcf	(___xxtofl@arg+1)^0,f,c
  8375  002076  320B               	rrcf	___xxtofl@arg^0,f,c
  8376  002078                     i2l1312:
  8377  002078  0E00               	movlw	0
  8378  00207A  140B               	andwf	___xxtofl@arg^0,w,c
  8379  00207C  6E05               	movwf	??___xxtofl^0,c
  8380  00207E  0E00               	movlw	0
  8381  002080  140C               	andwf	(___xxtofl@arg+1)^0,w,c
  8382  002082  6E06               	movwf	(??___xxtofl+1)^0,c
  8383  002084  0E00               	movlw	0
  8384  002086  140D               	andwf	(___xxtofl@arg+2)^0,w,c
  8385  002088  6E07               	movwf	(??___xxtofl+2)^0,c
  8386  00208A  0EFF               	movlw	255
  8387  00208C  140E               	andwf	(___xxtofl@arg+3)^0,w,c
  8388  00208E  6E08               	movwf	(??___xxtofl+3)^0,c
  8389  002090  5005               	movf	??___xxtofl^0,w,c
  8390  002092  1006               	iorwf	(??___xxtofl+1)^0,w,c
  8391  002094  1007               	iorwf	(??___xxtofl+2)^0,w,c
  8392  002096  1008               	iorwf	(??___xxtofl+3)^0,w,c
  8393  002098  A4D8               	btfss	status,2,c
  8394  00209A  EF51  F010         	goto	i2u426_41
  8395  00209E  EF53  F010         	goto	i2u426_40
  8396  0020A2                     i2u426_41:
  8397  0020A2  EF30  F010         	goto	i2l4419
  8398  0020A6                     i2u426_40:
  8399  0020A6  EF5B  F010         	goto	i2l4427
  8400  0020AA                     i2l4425:
  8401  0020AA  060A               	decf	___xxtofl@exp^0,f,c
  8402  0020AC  90D8               	bcf	status,0,c
  8403  0020AE  360B               	rlcf	___xxtofl@arg^0,f,c
  8404  0020B0  360C               	rlcf	(___xxtofl@arg+1)^0,f,c
  8405  0020B2  360D               	rlcf	(___xxtofl@arg+2)^0,f,c
  8406  0020B4  360E               	rlcf	(___xxtofl@arg+3)^0,f,c
  8407  0020B6                     i2l4427:
  8408  0020B6  BE0D               	btfsc	(___xxtofl@arg+2)^0,7,c
  8409  0020B8  EF60  F010         	goto	i2u427_41
  8410  0020BC  EF62  F010         	goto	i2u427_40
  8411  0020C0                     i2u427_41:
  8412  0020C0  EF6A  F010         	goto	i2l1319
  8413  0020C4                     i2u427_40:
  8414  0020C4  0E02               	movlw	2
  8415  0020C6  600A               	cpfslt	___xxtofl@exp^0,c
  8416  0020C8  EF68  F010         	goto	i2u428_41
  8417  0020CC  EF6A  F010         	goto	i2u428_40
  8418  0020D0                     i2u428_41:
  8419  0020D0  EF55  F010         	goto	i2l4425
  8420  0020D4                     i2u428_40:
  8421  0020D4                     i2l1319:
  8422  0020D4  B00A               	btfsc	___xxtofl@exp^0,0,c
  8423  0020D6  EF6F  F010         	goto	i2u429_41
  8424  0020DA  EF71  F010         	goto	i2u429_40
  8425  0020DE                     i2u429_41:
  8426  0020DE  EF72  F010         	goto	i2l4433
  8427  0020E2                     i2u429_40:
  8428  0020E2  9E0D               	bcf	(___xxtofl@arg+2)^0,7,c
  8429  0020E4                     i2l4433:
  8430  0020E4  90D8               	bcf	status,0,c
  8431  0020E6  320A               	rrcf	___xxtofl@exp^0,f,c
  8432  0020E8  C00A  F005         	movff	___xxtofl@exp,??___xxtofl
  8433  0020EC  6A06               	clrf	(??___xxtofl+1)^0,c
  8434  0020EE  6A07               	clrf	(??___xxtofl+2)^0,c
  8435  0020F0  6A08               	clrf	(??___xxtofl+3)^0,c
  8436  0020F2  C005  F008         	movff	??___xxtofl,??___xxtofl+3
  8437  0020F6  6A07               	clrf	(??___xxtofl+2)^0,c
  8438  0020F8  6A06               	clrf	(??___xxtofl+1)^0,c
  8439  0020FA  6A05               	clrf	??___xxtofl^0,c
  8440  0020FC  5005               	movf	??___xxtofl^0,w,c
  8441  0020FE  120B               	iorwf	___xxtofl@arg^0,f,c
  8442  002100  5006               	movf	(??___xxtofl+1)^0,w,c
  8443  002102  120C               	iorwf	(___xxtofl@arg+1)^0,f,c
  8444  002104  5007               	movf	(??___xxtofl+2)^0,w,c
  8445  002106  120D               	iorwf	(___xxtofl@arg+2)^0,f,c
  8446  002108  5008               	movf	(??___xxtofl+3)^0,w,c
  8447  00210A  120E               	iorwf	(___xxtofl@arg+3)^0,f,c
  8448  00210C  5009               	movf	___xxtofl@sign^0,w,c
  8449  00210E  B4D8               	btfsc	status,2,c
  8450  002110  EF8C  F010         	goto	i2u430_41
  8451  002114  EF8E  F010         	goto	i2u430_40
  8452  002118                     i2u430_41:
  8453  002118  EF96  F010         	goto	i2l4443
  8454  00211C                     i2u430_40:
  8455  00211C  BE04               	btfsc	(___xxtofl@val+3)^0,7,c
  8456  00211E  EF95  F010         	goto	i2u431_40
  8457  002122  EF93  F010         	goto	i2u431_41
  8458  002126                     i2u431_41:
  8459  002126  EF96  F010         	goto	i2l4443
  8460  00212A                     i2u431_40:
  8461  00212A  8E0E               	bsf	(___xxtofl@arg+3)^0,7,c
  8462  00212C                     i2l4443:
  8463  00212C  C00B  F001         	movff	___xxtofl@arg,?___xxtofl
  8464  002130  C00C  F002         	movff	___xxtofl@arg+1,?___xxtofl+1
  8465  002134  C00D  F003         	movff	___xxtofl@arg+2,?___xxtofl+2
  8466  002138  C00E  F004         	movff	___xxtofl@arg+3,?___xxtofl+3
  8467  00213C                     i2l1308:
  8468  00213C  0012               	return		;funcret
  8469  00213E                     __end_of___xxtofl:
  8470                           	opt callstack 0
  8471                           
  8472 ;; *************** function ___fltol *****************
  8473 ;; Defined at:
  8474 ;;		line 43 in file "C:\Program Files (x86)\Microchip\xc8\v2.10\pic\sources\c99\common\fltol.c"
  8475 ;; Parameters:    Size  Location     Type
  8476 ;;  f1              4   55[COMRAM] unsigned char 
  8477 ;; Auto vars:     Size  Location     Type
  8478 ;;  exp1            1   64[COMRAM] unsigned char 
  8479 ;;  sign1           1   63[COMRAM] unsigned char 
  8480 ;; Return value:  Size  Location     Type
  8481 ;;                  4   55[COMRAM] long 
  8482 ;; Registers used:
  8483 ;;		wreg, status,2, status,0
  8484 ;; Tracked objects:
  8485 ;;		On entry : 0/0
  8486 ;;		On exit  : 0/0
  8487 ;;		Unchanged: 0/0
  8488 ;; Data sizes:     COMRAM   BANK0   BANK1   BANK2   BANK3   BANK4   BANK5   BANK6   BANK7
  8489 ;;      Params:         4       0       0       0       0       0       0       0       0
  8490 ;;      Locals:         2       0       0       0       0       0       0       0       0
  8491 ;;      Temps:          4       0       0       0       0       0       0       0       0
  8492 ;;      Totals:        10       0       0       0       0       0       0       0       0
  8493 ;;Total ram usage:       10 bytes
  8494 ;; Hardware stack levels used:    1
  8495 ;; This function calls:
  8496 ;;		Nothing
  8497 ;; This function is called by:
  8498 ;;		_us_irs
  8499 ;; This function uses a non-reentrant model
  8500 ;;
  8501                           
  8502                           	psect	text42
  8503  00254C                     __ptext42:
  8504                           	opt callstack 0
  8505  00254C                     ___fltol:
  8506                           	opt callstack 18
  8507  00254C  343A               	rlcf	(___fltol@f1+2)^0,w,c
  8508  00254E  343B               	rlcf	(___fltol@f1+3)^0,w,c
  8509  002550  6E41               	movwf	___fltol@exp1^0,c
  8510  002552  5041               	movf	___fltol@exp1^0,w,c
  8511  002554  A4D8               	btfss	status,2,c
  8512  002556  EFAF  F012         	goto	i2u415_41
  8513  00255A  EFB1  F012         	goto	i2u415_40
  8514  00255E                     i2u415_41:
  8515  00255E  EFBB  F012         	goto	i2l4363
  8516  002562                     i2u415_40:
  8517  002562                     i2l4359:
  8518  002562  0E00               	movlw	0
  8519  002564  6E38               	movwf	?___fltol^0,c
  8520  002566  0E00               	movlw	0
  8521  002568  6E39               	movwf	(?___fltol+1)^0,c
  8522  00256A  0E00               	movlw	0
  8523  00256C  6E3A               	movwf	(?___fltol+2)^0,c
  8524  00256E  0E00               	movlw	0
  8525  002570  6E3B               	movwf	(?___fltol+3)^0,c
  8526  002572  EF28  F013         	goto	i2l947
  8527  002576                     i2l4363:
  8528  002576  C038  F03C         	movff	___fltol@f1,??___fltol
  8529  00257A  C039  F03D         	movff	___fltol@f1+1,??___fltol+1
  8530  00257E  C03A  F03E         	movff	___fltol@f1+2,??___fltol+2
  8531  002582  C03B  F03F         	movff	___fltol@f1+3,??___fltol+3
  8532  002586  0E20               	movlw	32
  8533  002588  EFCB  F012         	goto	i2u416_40
  8534  00258C                     i2u416_45:
  8535  00258C  90D8               	bcf	status,0,c
  8536  00258E  323F               	rrcf	(??___fltol+3)^0,f,c
  8537  002590  323E               	rrcf	(??___fltol+2)^0,f,c
  8538  002592  323D               	rrcf	(??___fltol+1)^0,f,c
  8539  002594  323C               	rrcf	??___fltol^0,f,c
  8540  002596                     i2u416_40:
  8541  002596  2EE8               	decfsz	wreg,f,c
  8542  002598  EFC6  F012         	goto	i2u416_45
  8543  00259C  503C               	movf	??___fltol^0,w,c
  8544  00259E  6E40               	movwf	___fltol@sign1^0,c
  8545  0025A0  8E3A               	bsf	(___fltol@f1+2)^0,7,c
  8546  0025A2  0EFF               	movlw	255
  8547  0025A4  1638               	andwf	___fltol@f1^0,f,c
  8548  0025A6  0EFF               	movlw	255
  8549  0025A8  1639               	andwf	(___fltol@f1+1)^0,f,c
  8550  0025AA  0EFF               	movlw	255
  8551  0025AC  163A               	andwf	(___fltol@f1+2)^0,f,c
  8552  0025AE  0E00               	movlw	0
  8553  0025B0  163B               	andwf	(___fltol@f1+3)^0,f,c
  8554  0025B2  0E96               	movlw	150
  8555  0025B4  5E41               	subwf	___fltol@exp1^0,f,c
  8556  0025B6  BE41               	btfsc	___fltol@exp1^0,7,c
  8557  0025B8  EFE2  F012         	goto	i2u417_40
  8558  0025BC  EFE0  F012         	goto	i2u417_41
  8559  0025C0                     i2u417_41:
  8560  0025C0  EFF8  F012         	goto	i2l4383
  8561  0025C4                     i2u417_40:
  8562  0025C4  5041               	movf	___fltol@exp1^0,w,c
  8563  0025C6  0A80               	xorlw	128
  8564  0025C8  0F97               	addlw	151
  8565  0025CA  B0D8               	btfsc	status,0,c
  8566  0025CC  EFEA  F012         	goto	i2u418_41
  8567  0025D0  EFEC  F012         	goto	i2u418_40
  8568  0025D4                     i2u418_41:
  8569  0025D4  EFEE  F012         	goto	i2l4379
  8570  0025D8                     i2u418_40:
  8571  0025D8  EFB1  F012         	goto	i2l4359
  8572  0025DC                     i2l4379:
  8573  0025DC  90D8               	bcf	status,0,c
  8574  0025DE  323B               	rrcf	(___fltol@f1+3)^0,f,c
  8575  0025E0  323A               	rrcf	(___fltol@f1+2)^0,f,c
  8576  0025E2  3239               	rrcf	(___fltol@f1+1)^0,f,c
  8577  0025E4  3238               	rrcf	___fltol@f1^0,f,c
  8578  0025E6  3E41               	incfsz	___fltol@exp1^0,f,c
  8579  0025E8  EFEE  F012         	goto	i2l4379
  8580  0025EC  EF10  F013         	goto	i2l4393
  8581  0025F0                     i2l4383:
  8582  0025F0  0E1F               	movlw	31
  8583  0025F2  6441               	cpfsgt	___fltol@exp1^0,c
  8584  0025F4  EFFE  F012         	goto	i2u419_41
  8585  0025F8  EF00  F013         	goto	i2u419_40
  8586  0025FC                     i2u419_41:
  8587  0025FC  EF08  F013         	goto	i2l4391
  8588  002600                     i2u419_40:
  8589  002600  EFB1  F012         	goto	i2l4359
  8590  002604                     i2l4389:
  8591  002604  90D8               	bcf	status,0,c
  8592  002606  3638               	rlcf	___fltol@f1^0,f,c
  8593  002608  3639               	rlcf	(___fltol@f1+1)^0,f,c
  8594  00260A  363A               	rlcf	(___fltol@f1+2)^0,f,c
  8595  00260C  363B               	rlcf	(___fltol@f1+3)^0,f,c
  8596  00260E  0641               	decf	___fltol@exp1^0,f,c
  8597  002610                     i2l4391:
  8598  002610  5041               	movf	___fltol@exp1^0,w,c
  8599  002612  A4D8               	btfss	status,2,c
  8600  002614  EF0E  F013         	goto	i2u420_41
  8601  002618  EF10  F013         	goto	i2u420_40
  8602  00261C                     i2u420_41:
  8603  00261C  EF02  F013         	goto	i2l4389
  8604  002620                     i2u420_40:
  8605  002620                     i2l4393:
  8606  002620  5040               	movf	___fltol@sign1^0,w,c
  8607  002622  B4D8               	btfsc	status,2,c
  8608  002624  EF16  F013         	goto	i2u421_41
  8609  002628  EF18  F013         	goto	i2u421_40
  8610  00262C                     i2u421_41:
  8611  00262C  EF20  F013         	goto	i2l4397
  8612  002630                     i2u421_40:
  8613  002630  1E3B               	comf	(___fltol@f1+3)^0,f,c
  8614  002632  1E3A               	comf	(___fltol@f1+2)^0,f,c
  8615  002634  1E39               	comf	(___fltol@f1+1)^0,f,c
  8616  002636  6C38               	negf	___fltol@f1^0,c
  8617  002638  0E00               	movlw	0
  8618  00263A  2239               	addwfc	(___fltol@f1+1)^0,f,c
  8619  00263C  223A               	addwfc	(___fltol@f1+2)^0,f,c
  8620  00263E  223B               	addwfc	(___fltol@f1+3)^0,f,c
  8621  002640                     i2l4397:
  8622  002640  C038  F038         	movff	___fltol@f1,?___fltol
  8623  002644  C039  F039         	movff	___fltol@f1+1,?___fltol+1
  8624  002648  C03A  F03A         	movff	___fltol@f1+2,?___fltol+2
  8625  00264C  C03B  F03B         	movff	___fltol@f1+3,?___fltol+3
  8626  002650                     i2l947:
  8627  002650  0012               	return		;funcret
  8628  002652                     __end_of___fltol:
  8629                           	opt callstack 0
  8630                           
  8631 ;; *************** function ___fldiv *****************
  8632 ;; Defined at:
  8633 ;;		line 11 in file "C:\Program Files (x86)\Microchip\xc8\v2.10\pic\sources\c99\common\sprcdiv.c"
  8634 ;; Parameters:    Size  Location     Type
  8635 ;;  b               4   14[COMRAM] long 
  8636 ;;  a               4   18[COMRAM] long 
  8637 ;; Auto vars:     Size  Location     Type
  8638 ;;  grs             4   33[COMRAM] unsigned long 
  8639 ;;  rem             4   26[COMRAM] unsigned long 
  8640 ;;  new_exp         2   31[COMRAM] short 
  8641 ;;  aexp            1   38[COMRAM] unsigned char 
  8642 ;;  bexp            1   37[COMRAM] unsigned char 
  8643 ;;  sign            1   30[COMRAM] unsigned char 
  8644 ;; Return value:  Size  Location     Type
  8645 ;;                  4   14[COMRAM] unsigned char 
  8646 ;; Registers used:
  8647 ;;		wreg, status,2, status,0
  8648 ;; Tracked objects:
  8649 ;;		On entry : 0/0
  8650 ;;		On exit  : 0/0
  8651 ;;		Unchanged: 0/0
  8652 ;; Data sizes:     COMRAM   BANK0   BANK1   BANK2   BANK3   BANK4   BANK5   BANK6   BANK7
  8653 ;;      Params:         8       0       0       0       0       0       0       0       0
  8654 ;;      Locals:        13       0       0       0       0       0       0       0       0
  8655 ;;      Temps:          4       0       0       0       0       0       0       0       0
  8656 ;;      Totals:        25       0       0       0       0       0       0       0       0
  8657 ;;Total ram usage:       25 bytes
  8658 ;; Hardware stack levels used:    1
  8659 ;; This function calls:
  8660 ;;		Nothing
  8661 ;; This function is called by:
  8662 ;;		_us_irs
  8663 ;; This function uses a non-reentrant model
  8664 ;;
  8665                           
  8666                           	psect	text43
  8667  001766                     __ptext43:
  8668                           	opt callstack 0
  8669  001766                     ___fldiv:
  8670                           	opt callstack 18
  8671  001766  5012               	movf	(___fldiv@b+3)^0,w,c
  8672  001768  0B80               	andlw	128
  8673  00176A  6E1F               	movwf	___fldiv@sign^0,c
  8674  00176C  5012               	movf	(___fldiv@b+3)^0,w,c
  8675  00176E  2412               	addwf	(___fldiv@b+3)^0,w,c
  8676  001770  6E26               	movwf	___fldiv@bexp^0,c
  8677  001772  AE11               	btfss	(___fldiv@b+2)^0,7,c
  8678  001774  EFBE  F00B         	goto	i2u392_41
  8679  001778  EFC0  F00B         	goto	i2u392_40
  8680  00177C                     i2u392_41:
  8681  00177C  EFC1  F00B         	goto	i2l4225
  8682  001780                     i2u392_40:
  8683  001780  8026               	bsf	___fldiv@bexp^0,0,c
  8684  001782                     i2l4225:
  8685  001782  5026               	movf	___fldiv@bexp^0,w,c
  8686  001784  B4D8               	btfsc	status,2,c
  8687  001786  EFC7  F00B         	goto	i2u393_41
  8688  00178A  EFC9  F00B         	goto	i2u393_40
  8689  00178E                     i2u393_41:
  8690  00178E  EFDE  F00B         	goto	i2l4235
  8691  001792                     i2u393_40:
  8692  001792  2826               	incf	___fldiv@bexp^0,w,c
  8693  001794  A4D8               	btfss	status,2,c
  8694  001796  EFCF  F00B         	goto	i2u394_41
  8695  00179A  EFD1  F00B         	goto	i2u394_40
  8696  00179E                     i2u394_41:
  8697  00179E  EFD9  F00B         	goto	i2l4231
  8698  0017A2                     i2u394_40:
  8699  0017A2  0E00               	movlw	0
  8700  0017A4  6E0F               	movwf	___fldiv@b^0,c
  8701  0017A6  0E00               	movlw	0
  8702  0017A8  6E10               	movwf	(___fldiv@b+1)^0,c
  8703  0017AA  0E00               	movlw	0
  8704  0017AC  6E11               	movwf	(___fldiv@b+2)^0,c
  8705  0017AE  0E00               	movlw	0
  8706  0017B0  6E12               	movwf	(___fldiv@b+3)^0,c
  8707  0017B2                     i2l4231:
  8708  0017B2  8E11               	bsf	(___fldiv@b+2)^0,7,c
  8709  0017B4  0E00               	movlw	0
  8710  0017B6  6E12               	movwf	(___fldiv@b+3)^0,c
  8711  0017B8  EFE6  F00B         	goto	i2l4237
  8712  0017BC                     i2l4235:
  8713  0017BC  0E00               	movlw	0
  8714  0017BE  6E0F               	movwf	___fldiv@b^0,c
  8715  0017C0  0E00               	movlw	0
  8716  0017C2  6E10               	movwf	(___fldiv@b+1)^0,c
  8717  0017C4  0E00               	movlw	0
  8718  0017C6  6E11               	movwf	(___fldiv@b+2)^0,c
  8719  0017C8  0E00               	movlw	0
  8720  0017CA  6E12               	movwf	(___fldiv@b+3)^0,c
  8721  0017CC                     i2l4237:
  8722  0017CC  5016               	movf	(___fldiv@a+3)^0,w,c
  8723  0017CE  0B80               	andlw	128
  8724  0017D0  1A1F               	xorwf	___fldiv@sign^0,f,c
  8725  0017D2  5016               	movf	(___fldiv@a+3)^0,w,c
  8726  0017D4  2416               	addwf	(___fldiv@a+3)^0,w,c
  8727  0017D6  6E27               	movwf	___fldiv@aexp^0,c
  8728  0017D8  AE15               	btfss	(___fldiv@a+2)^0,7,c
  8729  0017DA  EFF1  F00B         	goto	i2u395_41
  8730  0017DE  EFF3  F00B         	goto	i2u395_40
  8731  0017E2                     i2u395_41:
  8732  0017E2  EFF4  F00B         	goto	i2l4245
  8733  0017E6                     i2u395_40:
  8734  0017E6  8027               	bsf	___fldiv@aexp^0,0,c
  8735  0017E8                     i2l4245:
  8736  0017E8  5027               	movf	___fldiv@aexp^0,w,c
  8737  0017EA  B4D8               	btfsc	status,2,c
  8738  0017EC  EFFA  F00B         	goto	i2u396_41
  8739  0017F0  EFFC  F00B         	goto	i2u396_40
  8740  0017F4                     i2u396_41:
  8741  0017F4  EF11  F00C         	goto	i2l4255
  8742  0017F8                     i2u396_40:
  8743  0017F8  2827               	incf	___fldiv@aexp^0,w,c
  8744  0017FA  A4D8               	btfss	status,2,c
  8745  0017FC  EF02  F00C         	goto	i2u397_41
  8746  001800  EF04  F00C         	goto	i2u397_40
  8747  001804                     i2u397_41:
  8748  001804  EF0C  F00C         	goto	i2l4251
  8749  001808                     i2u397_40:
  8750  001808  0E00               	movlw	0
  8751  00180A  6E13               	movwf	___fldiv@a^0,c
  8752  00180C  0E00               	movlw	0
  8753  00180E  6E14               	movwf	(___fldiv@a+1)^0,c
  8754  001810  0E00               	movlw	0
  8755  001812  6E15               	movwf	(___fldiv@a+2)^0,c
  8756  001814  0E00               	movlw	0
  8757  001816  6E16               	movwf	(___fldiv@a+3)^0,c
  8758  001818                     i2l4251:
  8759  001818  8E15               	bsf	(___fldiv@a+2)^0,7,c
  8760  00181A  0E00               	movlw	0
  8761  00181C  6E16               	movwf	(___fldiv@a+3)^0,c
  8762  00181E  EF19  F00C         	goto	i2l4257
  8763  001822                     i2l4255:
  8764  001822  0E00               	movlw	0
  8765  001824  6E13               	movwf	___fldiv@a^0,c
  8766  001826  0E00               	movlw	0
  8767  001828  6E14               	movwf	(___fldiv@a+1)^0,c
  8768  00182A  0E00               	movlw	0
  8769  00182C  6E15               	movwf	(___fldiv@a+2)^0,c
  8770  00182E  0E00               	movlw	0
  8771  001830  6E16               	movwf	(___fldiv@a+3)^0,c
  8772  001832                     i2l4257:
  8773  001832  5013               	movf	___fldiv@a^0,w,c
  8774  001834  1014               	iorwf	(___fldiv@a+1)^0,w,c
  8775  001836  1015               	iorwf	(___fldiv@a+2)^0,w,c
  8776  001838  1016               	iorwf	(___fldiv@a+3)^0,w,c
  8777  00183A  A4D8               	btfss	status,2,c
  8778  00183C  EF22  F00C         	goto	i2u398_41
  8779  001840  EF24  F00C         	goto	i2u398_40
  8780  001844                     i2u398_41:
  8781  001844  EF3C  F00C         	goto	i2l4269
  8782  001848                     i2u398_40:
  8783  001848  0E00               	movlw	0
  8784  00184A  6E0F               	movwf	___fldiv@b^0,c
  8785  00184C  0E00               	movlw	0
  8786  00184E  6E10               	movwf	(___fldiv@b+1)^0,c
  8787  001850  0E00               	movlw	0
  8788  001852  6E11               	movwf	(___fldiv@b+2)^0,c
  8789  001854  0E00               	movlw	0
  8790  001856  6E12               	movwf	(___fldiv@b+3)^0,c
  8791  001858  0E80               	movlw	128
  8792  00185A  1211               	iorwf	(___fldiv@b+2)^0,f,c
  8793  00185C  0E7F               	movlw	127
  8794  00185E  1212               	iorwf	(___fldiv@b+3)^0,f,c
  8795  001860                     i2l4263:
  8796  001860  501F               	movf	___fldiv@sign^0,w,c
  8797  001862  1212               	iorwf	(___fldiv@b+3)^0,f,c
  8798  001864  C00F  F00F         	movff	___fldiv@b,?___fldiv
  8799  001868  C010  F010         	movff	___fldiv@b+1,?___fldiv+1
  8800  00186C  C011  F011         	movff	___fldiv@b+2,?___fldiv+2
  8801  001870  C012  F012         	movff	___fldiv@b+3,?___fldiv+3
  8802  001874  EF7F  F00D         	goto	i2l1232
  8803  001878                     i2l4269:
  8804  001878  5026               	movf	___fldiv@bexp^0,w,c
  8805  00187A  A4D8               	btfss	status,2,c
  8806  00187C  EF42  F00C         	goto	i2u399_41
  8807  001880  EF44  F00C         	goto	i2u399_40
  8808  001884                     i2u399_41:
  8809  001884  EF4E  F00C         	goto	i2l4277
  8810  001888                     i2u399_40:
  8811  001888  0E00               	movlw	0
  8812  00188A  6E0F               	movwf	?___fldiv^0,c
  8813  00188C  0E00               	movlw	0
  8814  00188E  6E10               	movwf	(?___fldiv+1)^0,c
  8815  001890  0E00               	movlw	0
  8816  001892  6E11               	movwf	(?___fldiv+2)^0,c
  8817  001894  0E00               	movlw	0
  8818  001896  6E12               	movwf	(?___fldiv+3)^0,c
  8819  001898  EF7F  F00D         	goto	i2l1232
  8820  00189C                     i2l4277:
  8821  00189C  5027               	movf	___fldiv@aexp^0,w,c
  8822  00189E  C026  F017         	movff	___fldiv@bexp,??___fldiv
  8823  0018A2  6A18               	clrf	(??___fldiv+1)^0,c
  8824  0018A4  5E17               	subwf	??___fldiv^0,f,c
  8825  0018A6  0E00               	movlw	0
  8826  0018A8  5A18               	subwfb	(??___fldiv+1)^0,f,c
  8827  0018AA  0E7F               	movlw	127
  8828  0018AC  2417               	addwf	??___fldiv^0,w,c
  8829  0018AE  6E20               	movwf	___fldiv@new_exp^0,c
  8830  0018B0  0E00               	movlw	0
  8831  0018B2  2018               	addwfc	(??___fldiv+1)^0,w,c
  8832  0018B4  6E21               	movwf	(___fldiv@new_exp+1)^0,c
  8833  0018B6  C00F  F01B         	movff	___fldiv@b,___fldiv@rem
  8834  0018BA  C010  F01C         	movff	___fldiv@b+1,___fldiv@rem+1
  8835  0018BE  C011  F01D         	movff	___fldiv@b+2,___fldiv@rem+2
  8836  0018C2  C012  F01E         	movff	___fldiv@b+3,___fldiv@rem+3
  8837  0018C6  0E00               	movlw	0
  8838  0018C8  6E0F               	movwf	___fldiv@b^0,c
  8839  0018CA  0E00               	movlw	0
  8840  0018CC  6E10               	movwf	(___fldiv@b+1)^0,c
  8841  0018CE  0E00               	movlw	0
  8842  0018D0  6E11               	movwf	(___fldiv@b+2)^0,c
  8843  0018D2  0E00               	movlw	0
  8844  0018D4  6E12               	movwf	(___fldiv@b+3)^0,c
  8845  0018D6  0E00               	movlw	0
  8846  0018D8  6E22               	movwf	___fldiv@grs^0,c
  8847  0018DA  0E00               	movlw	0
  8848  0018DC  6E23               	movwf	(___fldiv@grs+1)^0,c
  8849  0018DE  0E00               	movlw	0
  8850  0018E0  6E24               	movwf	(___fldiv@grs+2)^0,c
  8851  0018E2  0E00               	movlw	0
  8852  0018E4  6E25               	movwf	(___fldiv@grs+3)^0,c
  8853  0018E6  0E00               	movlw	0
  8854  0018E8  6E27               	movwf	___fldiv@aexp^0,c
  8855  0018EA  EFAF  F00C         	goto	i2l1234
  8856  0018EE                     i2l4287:
  8857  0018EE  5027               	movf	___fldiv@aexp^0,w,c
  8858  0018F0  B4D8               	btfsc	status,2,c
  8859  0018F2  EF7D  F00C         	goto	i2u400_41
  8860  0018F6  EF7F  F00C         	goto	i2u400_40
  8861  0018FA                     i2u400_41:
  8862  0018FA  EF96  F00C         	goto	i2l4295
  8863  0018FE                     i2u400_40:
  8864  0018FE  90D8               	bcf	status,0,c
  8865  001900  361B               	rlcf	___fldiv@rem^0,f,c
  8866  001902  361C               	rlcf	(___fldiv@rem+1)^0,f,c
  8867  001904  361D               	rlcf	(___fldiv@rem+2)^0,f,c
  8868  001906  361E               	rlcf	(___fldiv@rem+3)^0,f,c
  8869  001908  90D8               	bcf	status,0,c
  8870  00190A  360F               	rlcf	___fldiv@b^0,f,c
  8871  00190C  3610               	rlcf	(___fldiv@b+1)^0,f,c
  8872  00190E  3611               	rlcf	(___fldiv@b+2)^0,f,c
  8873  001910  3612               	rlcf	(___fldiv@b+3)^0,f,c
  8874  001912  AE25               	btfss	(___fldiv@grs+3)^0,7,c
  8875  001914  EF8E  F00C         	goto	i2u401_41
  8876  001918  EF90  F00C         	goto	i2u401_40
  8877  00191C                     i2u401_41:
  8878  00191C  EF91  F00C         	goto	i2l1237
  8879  001920                     i2u401_40:
  8880  001920  800F               	bsf	___fldiv@b^0,0,c
  8881  001922                     i2l1237:
  8882  001922  90D8               	bcf	status,0,c
  8883  001924  3622               	rlcf	___fldiv@grs^0,f,c
  8884  001926  3623               	rlcf	(___fldiv@grs+1)^0,f,c
  8885  001928  3624               	rlcf	(___fldiv@grs+2)^0,f,c
  8886  00192A  3625               	rlcf	(___fldiv@grs+3)^0,f,c
  8887  00192C                     i2l4295:
  8888  00192C  5013               	movf	___fldiv@a^0,w,c
  8889  00192E  5C1B               	subwf	___fldiv@rem^0,w,c
  8890  001930  5014               	movf	(___fldiv@a+1)^0,w,c
  8891  001932  581C               	subwfb	(___fldiv@rem+1)^0,w,c
  8892  001934  5015               	movf	(___fldiv@a+2)^0,w,c
  8893  001936  581D               	subwfb	(___fldiv@rem+2)^0,w,c
  8894  001938  5016               	movf	(___fldiv@a+3)^0,w,c
  8895  00193A  581E               	subwfb	(___fldiv@rem+3)^0,w,c
  8896  00193C  A0D8               	btfss	status,0,c
  8897  00193E  EFA3  F00C         	goto	i2u402_41
  8898  001942  EFA5  F00C         	goto	i2u402_40
  8899  001946                     i2u402_41:
  8900  001946  EFAE  F00C         	goto	i2l4301
  8901  00194A                     i2u402_40:
  8902  00194A  8C25               	bsf	(___fldiv@grs+3)^0,6,c
  8903  00194C  5013               	movf	___fldiv@a^0,w,c
  8904  00194E  5E1B               	subwf	___fldiv@rem^0,f,c
  8905  001950  5014               	movf	(___fldiv@a+1)^0,w,c
  8906  001952  5A1C               	subwfb	(___fldiv@rem+1)^0,f,c
  8907  001954  5015               	movf	(___fldiv@a+2)^0,w,c
  8908  001956  5A1D               	subwfb	(___fldiv@rem+2)^0,f,c
  8909  001958  5016               	movf	(___fldiv@a+3)^0,w,c
  8910  00195A  5A1E               	subwfb	(___fldiv@rem+3)^0,f,c
  8911  00195C                     i2l4301:
  8912  00195C  2A27               	incf	___fldiv@aexp^0,f,c
  8913  00195E                     i2l1234:
  8914  00195E  0E19               	movlw	25
  8915  001960  6427               	cpfsgt	___fldiv@aexp^0,c
  8916  001962  EFB5  F00C         	goto	i2u403_41
  8917  001966  EFB7  F00C         	goto	i2u403_40
  8918  00196A                     i2u403_41:
  8919  00196A  EF77  F00C         	goto	i2l4287
  8920  00196E                     i2u403_40:
  8921  00196E  501B               	movf	___fldiv@rem^0,w,c
  8922  001970  101C               	iorwf	(___fldiv@rem+1)^0,w,c
  8923  001972  101D               	iorwf	(___fldiv@rem+2)^0,w,c
  8924  001974  101E               	iorwf	(___fldiv@rem+3)^0,w,c
  8925  001976  B4D8               	btfsc	status,2,c
  8926  001978  EFC0  F00C         	goto	i2u404_41
  8927  00197C  EFC2  F00C         	goto	i2u404_40
  8928  001980                     i2u404_41:
  8929  001980  EFDA  F00C         	goto	i2l4313
  8930  001984                     i2u404_40:
  8931  001984  8022               	bsf	___fldiv@grs^0,0,c
  8932  001986  EFDA  F00C         	goto	i2l4313
  8933  00198A                     i2l4307:
  8934  00198A  90D8               	bcf	status,0,c
  8935  00198C  360F               	rlcf	___fldiv@b^0,f,c
  8936  00198E  3610               	rlcf	(___fldiv@b+1)^0,f,c
  8937  001990  3611               	rlcf	(___fldiv@b+2)^0,f,c
  8938  001992  3612               	rlcf	(___fldiv@b+3)^0,f,c
  8939  001994  AE25               	btfss	(___fldiv@grs+3)^0,7,c
  8940  001996  EFCF  F00C         	goto	i2u405_41
  8941  00199A  EFD1  F00C         	goto	i2u405_40
  8942  00199E                     i2u405_41:
  8943  00199E  EFD2  F00C         	goto	i2l1243
  8944  0019A2                     i2u405_40:
  8945  0019A2  800F               	bsf	___fldiv@b^0,0,c
  8946  0019A4                     i2l1243:
  8947  0019A4  90D8               	bcf	status,0,c
  8948  0019A6  3622               	rlcf	___fldiv@grs^0,f,c
  8949  0019A8  3623               	rlcf	(___fldiv@grs+1)^0,f,c
  8950  0019AA  3624               	rlcf	(___fldiv@grs+2)^0,f,c
  8951  0019AC  3625               	rlcf	(___fldiv@grs+3)^0,f,c
  8952  0019AE  0620               	decf	___fldiv@new_exp^0,f,c
  8953  0019B0  A0D8               	btfss	status,0,c
  8954  0019B2  0621               	decf	(___fldiv@new_exp+1)^0,f,c
  8955  0019B4                     i2l4313:
  8956  0019B4  AE11               	btfss	(___fldiv@b+2)^0,7,c
  8957  0019B6  EFDF  F00C         	goto	i2u406_41
  8958  0019BA  EFE1  F00C         	goto	i2u406_40
  8959  0019BE                     i2u406_41:
  8960  0019BE  EFC5  F00C         	goto	i2l4307
  8961  0019C2                     i2u406_40:
  8962  0019C2  0E00               	movlw	0
  8963  0019C4  6E27               	movwf	___fldiv@aexp^0,c
  8964  0019C6  AE25               	btfss	(___fldiv@grs+3)^0,7,c
  8965  0019C8  EFE8  F00C         	goto	i2u407_41
  8966  0019CC  EFEA  F00C         	goto	i2u407_40
  8967  0019D0                     i2u407_41:
  8968  0019D0  EF0E  F00D         	goto	i2l1245
  8969  0019D4                     i2u407_40:
  8970  0019D4  0EFF               	movlw	255
  8971  0019D6  1422               	andwf	___fldiv@grs^0,w,c
  8972  0019D8  6E17               	movwf	??___fldiv^0,c
  8973  0019DA  0EFF               	movlw	255
  8974  0019DC  1423               	andwf	(___fldiv@grs+1)^0,w,c
  8975  0019DE  6E18               	movwf	(??___fldiv+1)^0,c
  8976  0019E0  0EFF               	movlw	255
  8977  0019E2  1424               	andwf	(___fldiv@grs+2)^0,w,c
  8978  0019E4  6E19               	movwf	(??___fldiv+2)^0,c
  8979  0019E6  0E7F               	movlw	127
  8980  0019E8  1425               	andwf	(___fldiv@grs+3)^0,w,c
  8981  0019EA  6E1A               	movwf	(??___fldiv+3)^0,c
  8982  0019EC  5017               	movf	??___fldiv^0,w,c
  8983  0019EE  1018               	iorwf	(??___fldiv+1)^0,w,c
  8984  0019F0  1019               	iorwf	(??___fldiv+2)^0,w,c
  8985  0019F2  101A               	iorwf	(??___fldiv+3)^0,w,c
  8986  0019F4  B4D8               	btfsc	status,2,c
  8987  0019F6  EFFF  F00C         	goto	i2u408_41
  8988  0019FA  EF01  F00D         	goto	i2u408_40
  8989  0019FE                     i2u408_41:
  8990  0019FE  EF05  F00D         	goto	i2l1246
  8991  001A02                     i2u408_40:
  8992  001A02                     i2l4321:
  8993  001A02  0E01               	movlw	1
  8994  001A04  6E27               	movwf	___fldiv@aexp^0,c
  8995  001A06  EF0E  F00D         	goto	i2l1245
  8996  001A0A                     i2l1246:
  8997  001A0A  A00F               	btfss	___fldiv@b^0,0,c
  8998  001A0C  EF0A  F00D         	goto	i2u409_41
  8999  001A10  EF0C  F00D         	goto	i2u409_40
  9000  001A14                     i2u409_41:
  9001  001A14  EF0E  F00D         	goto	i2l1245
  9002  001A18                     i2u409_40:
  9003  001A18  EF01  F00D         	goto	i2l4321
  9004  001A1C                     i2l1245:
  9005  001A1C  5027               	movf	___fldiv@aexp^0,w,c
  9006  001A1E  B4D8               	btfsc	status,2,c
  9007  001A20  EF14  F00D         	goto	i2u410_41
  9008  001A24  EF16  F00D         	goto	i2u410_40
  9009  001A28                     i2u410_41:
  9010  001A28  EF3A  F00D         	goto	i2l4333
  9011  001A2C                     i2u410_40:
  9012  001A2C  0E01               	movlw	1
  9013  001A2E  260F               	addwf	___fldiv@b^0,f,c
  9014  001A30  0E00               	movlw	0
  9015  001A32  2210               	addwfc	(___fldiv@b+1)^0,f,c
  9016  001A34  2211               	addwfc	(___fldiv@b+2)^0,f,c
  9017  001A36  2212               	addwfc	(___fldiv@b+3)^0,f,c
  9018  001A38  A012               	btfss	(___fldiv@b+3)^0,0,c
  9019  001A3A  EF21  F00D         	goto	i2u411_41
  9020  001A3E  EF23  F00D         	goto	i2u411_40
  9021  001A42                     i2u411_41:
  9022  001A42  EF3A  F00D         	goto	i2l4333
  9023  001A46                     i2u411_40:
  9024  001A46  C00F  F017         	movff	___fldiv@b,??___fldiv
  9025  001A4A  C010  F018         	movff	___fldiv@b+1,??___fldiv+1
  9026  001A4E  C011  F019         	movff	___fldiv@b+2,??___fldiv+2
  9027  001A52  C012  F01A         	movff	___fldiv@b+3,??___fldiv+3
  9028  001A56  341A               	rlcf	(??___fldiv+3)^0,w,c
  9029  001A58  321A               	rrcf	(??___fldiv+3)^0,f,c
  9030  001A5A  3219               	rrcf	(??___fldiv+2)^0,f,c
  9031  001A5C  3218               	rrcf	(??___fldiv+1)^0,f,c
  9032  001A5E  3217               	rrcf	??___fldiv^0,f,c
  9033  001A60  C017  F00F         	movff	??___fldiv,___fldiv@b
  9034  001A64  C018  F010         	movff	??___fldiv+1,___fldiv@b+1
  9035  001A68  C019  F011         	movff	??___fldiv+2,___fldiv@b+2
  9036  001A6C  C01A  F012         	movff	??___fldiv+3,___fldiv@b+3
  9037  001A70  4A20               	infsnz	___fldiv@new_exp^0,f,c
  9038  001A72  2A21               	incf	(___fldiv@new_exp+1)^0,f,c
  9039  001A74                     i2l4333:
  9040  001A74  BE21               	btfsc	(___fldiv@new_exp+1)^0,7,c
  9041  001A76  EF45  F00D         	goto	i2u412_41
  9042  001A7A  5021               	movf	(___fldiv@new_exp+1)^0,w,c
  9043  001A7C  E108               	bnz	i2u412_40
  9044  001A7E  2820               	incf	___fldiv@new_exp^0,w,c
  9045  001A80  A0D8               	btfss	status,0,c
  9046  001A82  EF45  F00D         	goto	i2u412_41
  9047  001A86  EF47  F00D         	goto	i2u412_40
  9048  001A8A                     i2u412_41:
  9049  001A8A  EF52  F00D         	goto	i2l4337
  9050  001A8E                     i2u412_40:
  9051  001A8E  0E00               	movlw	0
  9052  001A90  6E21               	movwf	(___fldiv@new_exp+1)^0,c
  9053  001A92  6820               	setf	___fldiv@new_exp^0,c
  9054  001A94  0E00               	movlw	0
  9055  001A96  6E0F               	movwf	___fldiv@b^0,c
  9056  001A98  0E00               	movlw	0
  9057  001A9A  6E10               	movwf	(___fldiv@b+1)^0,c
  9058  001A9C  0E00               	movlw	0
  9059  001A9E  6E11               	movwf	(___fldiv@b+2)^0,c
  9060  001AA0  0E00               	movlw	0
  9061  001AA2  6E12               	movwf	(___fldiv@b+3)^0,c
  9062  001AA4                     i2l4337:
  9063  001AA4  BE21               	btfsc	(___fldiv@new_exp+1)^0,7,c
  9064  001AA6  EF5F  F00D         	goto	i2u413_40
  9065  001AAA  5021               	movf	(___fldiv@new_exp+1)^0,w,c
  9066  001AAC  E106               	bnz	i2u413_41
  9067  001AAE  0420               	decf	___fldiv@new_exp^0,w,c
  9068  001AB0  B0D8               	btfsc	status,0,c
  9069  001AB2  EF5D  F00D         	goto	i2u413_41
  9070  001AB6  EF5F  F00D         	goto	i2u413_40
  9071  001ABA                     i2u413_41:
  9072  001ABA  EF6D  F00D         	goto	i2l4341
  9073  001ABE                     i2u413_40:
  9074  001ABE  0E00               	movlw	0
  9075  001AC0  6E21               	movwf	(___fldiv@new_exp+1)^0,c
  9076  001AC2  0E00               	movlw	0
  9077  001AC4  6E20               	movwf	___fldiv@new_exp^0,c
  9078  001AC6  0E00               	movlw	0
  9079  001AC8  6E0F               	movwf	___fldiv@b^0,c
  9080  001ACA  0E00               	movlw	0
  9081  001ACC  6E10               	movwf	(___fldiv@b+1)^0,c
  9082  001ACE  0E00               	movlw	0
  9083  001AD0  6E11               	movwf	(___fldiv@b+2)^0,c
  9084  001AD2  0E00               	movlw	0
  9085  001AD4  6E12               	movwf	(___fldiv@b+3)^0,c
  9086  001AD6  0E00               	movlw	0
  9087  001AD8  6E1F               	movwf	___fldiv@sign^0,c
  9088  001ADA                     i2l4341:
  9089  001ADA  C020  F026         	movff	___fldiv@new_exp,___fldiv@bexp
  9090  001ADE  A026               	btfss	___fldiv@bexp^0,0,c
  9091  001AE0  EF74  F00D         	goto	i2u414_41
  9092  001AE4  EF76  F00D         	goto	i2u414_40
  9093  001AE8                     i2u414_41:
  9094  001AE8  EF79  F00D         	goto	i2l4347
  9095  001AEC                     i2u414_40:
  9096  001AEC  8E11               	bsf	(___fldiv@b+2)^0,7,c
  9097  001AEE  EF7A  F00D         	goto	i2l4349
  9098  001AF2                     i2l4347:
  9099  001AF2  9E11               	bcf	(___fldiv@b+2)^0,7,c
  9100  001AF4                     i2l4349:
  9101  001AF4  90D8               	bcf	status,0,c
  9102  001AF6  3026               	rrcf	___fldiv@bexp^0,w,c
  9103  001AF8  6E12               	movwf	(___fldiv@b+3)^0,c
  9104  001AFA  EF30  F00C         	goto	i2l4263
  9105  001AFE                     i2l1232:
  9106  001AFE  0012               	return		;funcret
  9107  001B00                     __end_of___fldiv:
  9108                           	opt callstack 0
  9109                           
  9110 ;; *************** function ___fladd *****************
  9111 ;; Defined at:
  9112 ;;		line 10 in file "C:\Program Files (x86)\Microchip\xc8\v2.10\pic\sources\c99\common\sprcadd.c"
  9113 ;; Parameters:    Size  Location     Type
  9114 ;;  b               4   39[COMRAM] unsigned char 
  9115 ;;  a               4   43[COMRAM] unsigned char 
  9116 ;; Auto vars:     Size  Location     Type
  9117 ;;  grs             1   54[COMRAM] unsigned char 
  9118 ;;  bexp            1   53[COMRAM] unsigned char 
  9119 ;;  aexp            1   52[COMRAM] unsigned char 
  9120 ;;  signs           1   51[COMRAM] unsigned char 
  9121 ;; Return value:  Size  Location     Type
  9122 ;;                  4   39[COMRAM] unsigned char 
  9123 ;; Registers used:
  9124 ;;		wreg, status,2, status,0
  9125 ;; Tracked objects:
  9126 ;;		On entry : 0/0
  9127 ;;		On exit  : 0/0
  9128 ;;		Unchanged: 0/0
  9129 ;; Data sizes:     COMRAM   BANK0   BANK1   BANK2   BANK3   BANK4   BANK5   BANK6   BANK7
  9130 ;;      Params:         8       0       0       0       0       0       0       0       0
  9131 ;;      Locals:         4       0       0       0       0       0       0       0       0
  9132 ;;      Temps:          4       0       0       0       0       0       0       0       0
  9133 ;;      Totals:        16       0       0       0       0       0       0       0       0
  9134 ;;Total ram usage:       16 bytes
  9135 ;; Hardware stack levels used:    1
  9136 ;; This function calls:
  9137 ;;		Nothing
  9138 ;; This function is called by:
  9139 ;;		_us_irs
  9140 ;; This function uses a non-reentrant model
  9141 ;;
  9142                           
  9143                           	psect	text44
  9144  000E2C                     __ptext44:
  9145                           	opt callstack 0
  9146  000E2C                     ___fladd:
  9147                           	opt callstack 18
  9148  000E2C  502B               	movf	(___fladd@b+3)^0,w,c
  9149  000E2E  0B80               	andlw	128
  9150  000E30  6E34               	movwf	___fladd@signs^0,c
  9151  000E32  502B               	movf	(___fladd@b+3)^0,w,c
  9152  000E34  242B               	addwf	(___fladd@b+3)^0,w,c
  9153  000E36  6E36               	movwf	___fladd@bexp^0,c
  9154  000E38  AE2A               	btfss	(___fladd@b+2)^0,7,c
  9155  000E3A  EF21  F007         	goto	i2u353_41
  9156  000E3E  EF23  F007         	goto	i2u353_40
  9157  000E42                     i2u353_41:
  9158  000E42  EF24  F007         	goto	i2l4023
  9159  000E46                     i2u353_40:
  9160  000E46  8036               	bsf	___fladd@bexp^0,0,c
  9161  000E48                     i2l4023:
  9162  000E48  5036               	movf	___fladd@bexp^0,w,c
  9163  000E4A  B4D8               	btfsc	status,2,c
  9164  000E4C  EF2A  F007         	goto	i2u354_41
  9165  000E50  EF2C  F007         	goto	i2u354_40
  9166  000E54                     i2u354_41:
  9167  000E54  EF41  F007         	goto	i2l4033
  9168  000E58                     i2u354_40:
  9169  000E58  2836               	incf	___fladd@bexp^0,w,c
  9170  000E5A  A4D8               	btfss	status,2,c
  9171  000E5C  EF32  F007         	goto	i2u355_41
  9172  000E60  EF34  F007         	goto	i2u355_40
  9173  000E64                     i2u355_41:
  9174  000E64  EF3C  F007         	goto	i2l4029
  9175  000E68                     i2u355_40:
  9176  000E68  0E00               	movlw	0
  9177  000E6A  6E28               	movwf	___fladd@b^0,c
  9178  000E6C  0E00               	movlw	0
  9179  000E6E  6E29               	movwf	(___fladd@b+1)^0,c
  9180  000E70  0E00               	movlw	0
  9181  000E72  6E2A               	movwf	(___fladd@b+2)^0,c
  9182  000E74  0E00               	movlw	0
  9183  000E76  6E2B               	movwf	(___fladd@b+3)^0,c
  9184  000E78                     i2l4029:
  9185  000E78  8E2A               	bsf	(___fladd@b+2)^0,7,c
  9186  000E7A  0E00               	movlw	0
  9187  000E7C  6E2B               	movwf	(___fladd@b+3)^0,c
  9188  000E7E  EF49  F007         	goto	i2l4035
  9189  000E82                     i2l4033:
  9190  000E82  0E00               	movlw	0
  9191  000E84  6E28               	movwf	___fladd@b^0,c
  9192  000E86  0E00               	movlw	0
  9193  000E88  6E29               	movwf	(___fladd@b+1)^0,c
  9194  000E8A  0E00               	movlw	0
  9195  000E8C  6E2A               	movwf	(___fladd@b+2)^0,c
  9196  000E8E  0E00               	movlw	0
  9197  000E90  6E2B               	movwf	(___fladd@b+3)^0,c
  9198  000E92                     i2l4035:
  9199  000E92  502F               	movf	(___fladd@a+3)^0,w,c
  9200  000E94  0B80               	andlw	128
  9201  000E96  6E35               	movwf	___fladd@aexp^0,c
  9202  000E98  5034               	movf	___fladd@signs^0,w,c
  9203  000E9A  1835               	xorwf	___fladd@aexp^0,w,c
  9204  000E9C  B4D8               	btfsc	status,2,c
  9205  000E9E  EF53  F007         	goto	i2u356_41
  9206  000EA2  EF55  F007         	goto	i2u356_40
  9207  000EA6                     i2u356_41:
  9208  000EA6  EF56  F007         	goto	i2l4041
  9209  000EAA                     i2u356_40:
  9210  000EAA  8C34               	bsf	___fladd@signs^0,6,c
  9211  000EAC                     i2l4041:
  9212  000EAC  502F               	movf	(___fladd@a+3)^0,w,c
  9213  000EAE  242F               	addwf	(___fladd@a+3)^0,w,c
  9214  000EB0  6E35               	movwf	___fladd@aexp^0,c
  9215  000EB2  AE2E               	btfss	(___fladd@a+2)^0,7,c
  9216  000EB4  EF5E  F007         	goto	i2u357_41
  9217  000EB8  EF60  F007         	goto	i2u357_40
  9218  000EBC                     i2u357_41:
  9219  000EBC  EF61  F007         	goto	i2l4047
  9220  000EC0                     i2u357_40:
  9221  000EC0  8035               	bsf	___fladd@aexp^0,0,c
  9222  000EC2                     i2l4047:
  9223  000EC2  5035               	movf	___fladd@aexp^0,w,c
  9224  000EC4  B4D8               	btfsc	status,2,c
  9225  000EC6  EF67  F007         	goto	i2u358_41
  9226  000ECA  EF69  F007         	goto	i2u358_40
  9227  000ECE                     i2u358_41:
  9228  000ECE  EF7E  F007         	goto	i2l4057
  9229  000ED2                     i2u358_40:
  9230  000ED2  2835               	incf	___fladd@aexp^0,w,c
  9231  000ED4  A4D8               	btfss	status,2,c
  9232  000ED6  EF6F  F007         	goto	i2u359_41
  9233  000EDA  EF71  F007         	goto	i2u359_40
  9234  000EDE                     i2u359_41:
  9235  000EDE  EF79  F007         	goto	i2l4053
  9236  000EE2                     i2u359_40:
  9237  000EE2  0E00               	movlw	0
  9238  000EE4  6E2C               	movwf	___fladd@a^0,c
  9239  000EE6  0E00               	movlw	0
  9240  000EE8  6E2D               	movwf	(___fladd@a+1)^0,c
  9241  000EEA  0E00               	movlw	0
  9242  000EEC  6E2E               	movwf	(___fladd@a+2)^0,c
  9243  000EEE  0E00               	movlw	0
  9244  000EF0  6E2F               	movwf	(___fladd@a+3)^0,c
  9245  000EF2                     i2l4053:
  9246  000EF2  8E2E               	bsf	(___fladd@a+2)^0,7,c
  9247  000EF4  0E00               	movlw	0
  9248  000EF6  6E2F               	movwf	(___fladd@a+3)^0,c
  9249  000EF8  EF86  F007         	goto	i2l4059
  9250  000EFC                     i2l4057:
  9251  000EFC  0E00               	movlw	0
  9252  000EFE  6E2C               	movwf	___fladd@a^0,c
  9253  000F00  0E00               	movlw	0
  9254  000F02  6E2D               	movwf	(___fladd@a+1)^0,c
  9255  000F04  0E00               	movlw	0
  9256  000F06  6E2E               	movwf	(___fladd@a+2)^0,c
  9257  000F08  0E00               	movlw	0
  9258  000F0A  6E2F               	movwf	(___fladd@a+3)^0,c
  9259  000F0C                     i2l4059:
  9260  000F0C  5036               	movf	___fladd@bexp^0,w,c
  9261  000F0E  5C35               	subwf	___fladd@aexp^0,w,c
  9262  000F10  B0D8               	btfsc	status,0,c
  9263  000F12  EF8D  F007         	goto	i2u360_41
  9264  000F16  EF8F  F007         	goto	i2u360_40
  9265  000F1A                     i2u360_41:
  9266  000F1A  EFB6  F007         	goto	i2l4095
  9267  000F1E                     i2u360_40:
  9268  000F1E  AC34               	btfss	___fladd@signs^0,6,c
  9269  000F20  EF94  F007         	goto	i2u361_41
  9270  000F24  EF96  F007         	goto	i2u361_40
  9271  000F28                     i2u361_41:
  9272  000F28  EF98  F007         	goto	i2l4065
  9273  000F2C                     i2u361_40:
  9274  000F2C  0E80               	movlw	128
  9275  000F2E  1A34               	xorwf	___fladd@signs^0,f,c
  9276  000F30                     i2l4065:
  9277  000F30  C036  F037         	movff	___fladd@bexp,___fladd@grs
  9278  000F34  C035  F036         	movff	___fladd@aexp,___fladd@bexp
  9279  000F38  C037  F035         	movff	___fladd@grs,___fladd@aexp
  9280  000F3C  C028  F037         	movff	___fladd@b,___fladd@grs
  9281  000F40  C02C  F028         	movff	___fladd@a,___fladd@b
  9282  000F44  C037  F02C         	movff	___fladd@grs,___fladd@a
  9283  000F48  C029  F037         	movff	___fladd@b+1,___fladd@grs
  9284  000F4C  C02D  F029         	movff	___fladd@a+1,___fladd@b+1
  9285  000F50  C037  F02D         	movff	___fladd@grs,___fladd@a+1
  9286  000F54  C02A  F037         	movff	___fladd@b+2,___fladd@grs
  9287  000F58  C02E  F02A         	movff	___fladd@a+2,___fladd@b+2
  9288  000F5C  C037  F02E         	movff	___fladd@grs,___fladd@a+2
  9289  000F60  C02B  F037         	movff	___fladd@b+3,___fladd@grs
  9290  000F64  C02F  F02B         	movff	___fladd@a+3,___fladd@b+3
  9291  000F68  C037  F02F         	movff	___fladd@grs,___fladd@a+3
  9292  000F6C                     i2l4095:
  9293  000F6C  0E00               	movlw	0
  9294  000F6E  6E37               	movwf	___fladd@grs^0,c
  9295  000F70  5036               	movf	___fladd@bexp^0,w,c
  9296  000F72  C035  F030         	movff	___fladd@aexp,??___fladd
  9297  000F76  6A31               	clrf	(??___fladd+1)^0,c
  9298  000F78  5E30               	subwf	??___fladd^0,f,c
  9299  000F7A  0E00               	movlw	0
  9300  000F7C  5A31               	subwfb	(??___fladd+1)^0,f,c
  9301  000F7E  BE31               	btfsc	(??___fladd+1)^0,7,c
  9302  000F80  EFCB  F007         	goto	i2u362_41
  9303  000F84  5031               	movf	(??___fladd+1)^0,w,c
  9304  000F86  E109               	bnz	i2u362_40
  9305  000F88  0E1A               	movlw	26
  9306  000F8A  5C30               	subwf	??___fladd^0,w,c
  9307  000F8C  A0D8               	btfss	status,0,c
  9308  000F8E  EFCB  F007         	goto	i2u362_41
  9309  000F92  EFCD  F007         	goto	i2u362_40
  9310  000F96                     i2u362_41:
  9311  000F96  EF04  F008         	goto	i2l1179
  9312  000F9A                     i2u362_40:
  9313  000F9A  5028               	movf	___fladd@b^0,w,c
  9314  000F9C  1029               	iorwf	(___fladd@b+1)^0,w,c
  9315  000F9E  102A               	iorwf	(___fladd@b+2)^0,w,c
  9316  000FA0  102B               	iorwf	(___fladd@b+3)^0,w,c
  9317  000FA2  A4D8               	btfss	status,2,c
  9318  000FA4  EFD6  F007         	goto	i2u363_41
  9319  000FA8  EFD9  F007         	goto	i2u363_40
  9320  000FAC                     i2u363_41:
  9321  000FAC  0E01               	movlw	1
  9322  000FAE  EFDA  F007         	goto	i2u364_40
  9323  000FB2                     i2u363_40:
  9324  000FB2  0E00               	movlw	0
  9325  000FB4                     i2u364_40:
  9326  000FB4  6E37               	movwf	___fladd@grs^0,c
  9327  000FB6  0E00               	movlw	0
  9328  000FB8  6E28               	movwf	___fladd@b^0,c
  9329  000FBA  0E00               	movlw	0
  9330  000FBC  6E29               	movwf	(___fladd@b+1)^0,c
  9331  000FBE  0E00               	movlw	0
  9332  000FC0  6E2A               	movwf	(___fladd@b+2)^0,c
  9333  000FC2  0E00               	movlw	0
  9334  000FC4  6E2B               	movwf	(___fladd@b+3)^0,c
  9335  000FC6  C035  F036         	movff	___fladd@aexp,___fladd@bexp
  9336  000FCA  EF0D  F008         	goto	i2l1178
  9337  000FCE                     i2l1180:
  9338  000FCE  A037               	btfss	___fladd@grs^0,0,c
  9339  000FD0  EFEC  F007         	goto	i2u365_41
  9340  000FD4  EFEE  F007         	goto	i2u365_40
  9341  000FD8                     i2u365_41:
  9342  000FD8  EFF4  F007         	goto	i2l4107
  9343  000FDC                     i2u365_40:
  9344  000FDC  90D8               	bcf	status,0,c
  9345  000FDE  3037               	rrcf	___fladd@grs^0,w,c
  9346  000FE0  0901               	iorlw	1
  9347  000FE2  6E37               	movwf	___fladd@grs^0,c
  9348  000FE4  EFF6  F007         	goto	i2l4109
  9349  000FE8                     i2l4107:
  9350  000FE8  90D8               	bcf	status,0,c
  9351  000FEA  3237               	rrcf	___fladd@grs^0,f,c
  9352  000FEC                     i2l4109:
  9353  000FEC  A028               	btfss	___fladd@b^0,0,c
  9354  000FEE  EFFB  F007         	goto	i2u366_41
  9355  000FF2  EFFD  F007         	goto	i2u366_40
  9356  000FF6                     i2u366_41:
  9357  000FF6  EFFE  F007         	goto	i2l4113
  9358  000FFA                     i2u366_40:
  9359  000FFA  8E37               	bsf	___fladd@grs^0,7,c
  9360  000FFC                     i2l4113:
  9361  000FFC  342B               	rlcf	(___fladd@b+3)^0,w,c
  9362  000FFE  322B               	rrcf	(___fladd@b+3)^0,f,c
  9363  001000  322A               	rrcf	(___fladd@b+2)^0,f,c
  9364  001002  3229               	rrcf	(___fladd@b+1)^0,f,c
  9365  001004  3228               	rrcf	___fladd@b^0,f,c
  9366  001006  2A36               	incf	___fladd@bexp^0,f,c
  9367  001008                     i2l1179:
  9368  001008  5035               	movf	___fladd@aexp^0,w,c
  9369  00100A  5C36               	subwf	___fladd@bexp^0,w,c
  9370  00100C  A0D8               	btfss	status,0,c
  9371  00100E  EF0B  F008         	goto	i2u367_41
  9372  001012  EF0D  F008         	goto	i2u367_40
  9373  001016                     i2u367_41:
  9374  001016  EFE7  F007         	goto	i2l1180
  9375  00101A                     i2u367_40:
  9376  00101A                     i2l1178:
  9377  00101A  BC34               	btfsc	___fladd@signs^0,6,c
  9378  00101C  EF12  F008         	goto	i2u368_41
  9379  001020  EF14  F008         	goto	i2u368_40
  9380  001024                     i2u368_41:
  9381  001024  EF54  F008         	goto	i2l4141
  9382  001028                     i2u368_40:
  9383  001028  5036               	movf	___fladd@bexp^0,w,c
  9384  00102A  A4D8               	btfss	status,2,c
  9385  00102C  EF1A  F008         	goto	i2u369_41
  9386  001030  EF1C  F008         	goto	i2u369_40
  9387  001034                     i2u369_41:
  9388  001034  EF26  F008         	goto	i2l4123
  9389  001038                     i2u369_40:
  9390  001038  0E00               	movlw	0
  9391  00103A  6E28               	movwf	?___fladd^0,c
  9392  00103C  0E00               	movlw	0
  9393  00103E  6E29               	movwf	(?___fladd+1)^0,c
  9394  001040  0E00               	movlw	0
  9395  001042  6E2A               	movwf	(?___fladd+2)^0,c
  9396  001044  0E00               	movlw	0
  9397  001046  6E2B               	movwf	(?___fladd+3)^0,c
  9398  001048  EF75  F009         	goto	i2l1187
  9399  00104C                     i2l4123:
  9400  00104C  502C               	movf	___fladd@a^0,w,c
  9401  00104E  2628               	addwf	___fladd@b^0,f,c
  9402  001050  502D               	movf	(___fladd@a+1)^0,w,c
  9403  001052  2229               	addwfc	(___fladd@b+1)^0,f,c
  9404  001054  502E               	movf	(___fladd@a+2)^0,w,c
  9405  001056  222A               	addwfc	(___fladd@b+2)^0,f,c
  9406  001058  502F               	movf	(___fladd@a+3)^0,w,c
  9407  00105A  222B               	addwfc	(___fladd@b+3)^0,f,c
  9408  00105C  A02B               	btfss	(___fladd@b+3)^0,0,c
  9409  00105E  EF33  F008         	goto	i2u370_41
  9410  001062  EF35  F008         	goto	i2u370_40
  9411  001066                     i2u370_41:
  9412  001066  EFE1  F008         	goto	i2l4177
  9413  00106A                     i2u370_40:
  9414  00106A  A037               	btfss	___fladd@grs^0,0,c
  9415  00106C  EF3A  F008         	goto	i2u371_41
  9416  001070  EF3C  F008         	goto	i2u371_40
  9417  001074                     i2u371_41:
  9418  001074  EF42  F008         	goto	i2l4131
  9419  001078                     i2u371_40:
  9420  001078  90D8               	bcf	status,0,c
  9421  00107A  3037               	rrcf	___fladd@grs^0,w,c
  9422  00107C  0901               	iorlw	1
  9423  00107E  6E37               	movwf	___fladd@grs^0,c
  9424  001080  EF44  F008         	goto	i2l4133
  9425  001084                     i2l4131:
  9426  001084  90D8               	bcf	status,0,c
  9427  001086  3237               	rrcf	___fladd@grs^0,f,c
  9428  001088                     i2l4133:
  9429  001088  A028               	btfss	___fladd@b^0,0,c
  9430  00108A  EF49  F008         	goto	i2u372_41
  9431  00108E  EF4B  F008         	goto	i2u372_40
  9432  001092                     i2u372_41:
  9433  001092  EF4C  F008         	goto	i2l4137
  9434  001096                     i2u372_40:
  9435  001096  8E37               	bsf	___fladd@grs^0,7,c
  9436  001098                     i2l4137:
  9437  001098  342B               	rlcf	(___fladd@b+3)^0,w,c
  9438  00109A  322B               	rrcf	(___fladd@b+3)^0,f,c
  9439  00109C  322A               	rrcf	(___fladd@b+2)^0,f,c
  9440  00109E  3229               	rrcf	(___fladd@b+1)^0,f,c
  9441  0010A0  3228               	rrcf	___fladd@b^0,f,c
  9442  0010A2  2A36               	incf	___fladd@bexp^0,f,c
  9443  0010A4  EFE1  F008         	goto	i2l4177
  9444  0010A8                     i2l4141:
  9445  0010A8  502C               	movf	___fladd@a^0,w,c
  9446  0010AA  5C28               	subwf	___fladd@b^0,w,c
  9447  0010AC  502D               	movf	(___fladd@a+1)^0,w,c
  9448  0010AE  5829               	subwfb	(___fladd@b+1)^0,w,c
  9449  0010B0  502E               	movf	(___fladd@a+2)^0,w,c
  9450  0010B2  582A               	subwfb	(___fladd@b+2)^0,w,c
  9451  0010B4  502B               	movf	(___fladd@b+3)^0,w,c
  9452  0010B6  0A80               	xorlw	128
  9453  0010B8  6E30               	movwf	??___fladd^0,c
  9454  0010BA  502F               	movf	(___fladd@a+3)^0,w,c
  9455  0010BC  0A80               	xorlw	128
  9456  0010BE  5830               	subwfb	??___fladd^0,w,c
  9457  0010C0  B0D8               	btfsc	status,0,c
  9458  0010C2  EF65  F008         	goto	i2u373_41
  9459  0010C6  EF67  F008         	goto	i2u373_40
  9460  0010CA                     i2u373_41:
  9461  0010CA  EF92  F008         	goto	i2l4151
  9462  0010CE                     i2u373_40:
  9463  0010CE  5028               	movf	___fladd@b^0,w,c
  9464  0010D0  5C2C               	subwf	___fladd@a^0,w,c
  9465  0010D2  6E30               	movwf	??___fladd^0,c
  9466  0010D4  5029               	movf	(___fladd@b+1)^0,w,c
  9467  0010D6  582D               	subwfb	(___fladd@a+1)^0,w,c
  9468  0010D8  6E31               	movwf	(??___fladd+1)^0,c
  9469  0010DA  502A               	movf	(___fladd@b+2)^0,w,c
  9470  0010DC  582E               	subwfb	(___fladd@a+2)^0,w,c
  9471  0010DE  6E32               	movwf	(??___fladd+2)^0,c
  9472  0010E0  502B               	movf	(___fladd@b+3)^0,w,c
  9473  0010E2  582F               	subwfb	(___fladd@a+3)^0,w,c
  9474  0010E4  6E33               	movwf	(??___fladd+3)^0,c
  9475  0010E6  0EFF               	movlw	255
  9476  0010E8  2430               	addwf	??___fladd^0,w,c
  9477  0010EA  6E28               	movwf	___fladd@b^0,c
  9478  0010EC  0EFF               	movlw	255
  9479  0010EE  2031               	addwfc	(??___fladd+1)^0,w,c
  9480  0010F0  6E29               	movwf	(___fladd@b+1)^0,c
  9481  0010F2  0EFF               	movlw	255
  9482  0010F4  2032               	addwfc	(??___fladd+2)^0,w,c
  9483  0010F6  6E2A               	movwf	(___fladd@b+2)^0,c
  9484  0010F8  0EFF               	movlw	255
  9485  0010FA  2033               	addwfc	(??___fladd+3)^0,w,c
  9486  0010FC  6E2B               	movwf	(___fladd@b+3)^0,c
  9487  0010FE  0E80               	movlw	128
  9488  001100  1A34               	xorwf	___fladd@signs^0,f,c
  9489  001102  6C37               	negf	___fladd@grs^0,c
  9490  001104  5037               	movf	___fladd@grs^0,w,c
  9491  001106  A4D8               	btfss	status,2,c
  9492  001108  EF88  F008         	goto	i2u374_41
  9493  00110C  EF8A  F008         	goto	i2u374_40
  9494  001110                     i2u374_41:
  9495  001110  EF9A  F008         	goto	i2l1195
  9496  001114                     i2u374_40:
  9497  001114  0E01               	movlw	1
  9498  001116  2628               	addwf	___fladd@b^0,f,c
  9499  001118  0E00               	movlw	0
  9500  00111A  2229               	addwfc	(___fladd@b+1)^0,f,c
  9501  00111C  222A               	addwfc	(___fladd@b+2)^0,f,c
  9502  00111E  222B               	addwfc	(___fladd@b+3)^0,f,c
  9503  001120  EF9A  F008         	goto	i2l1195
  9504  001124                     i2l4151:
  9505  001124  502C               	movf	___fladd@a^0,w,c
  9506  001126  5E28               	subwf	___fladd@b^0,f,c
  9507  001128  502D               	movf	(___fladd@a+1)^0,w,c
  9508  00112A  5A29               	subwfb	(___fladd@b+1)^0,f,c
  9509  00112C  502E               	movf	(___fladd@a+2)^0,w,c
  9510  00112E  5A2A               	subwfb	(___fladd@b+2)^0,f,c
  9511  001130  502F               	movf	(___fladd@a+3)^0,w,c
  9512  001132  5A2B               	subwfb	(___fladd@b+3)^0,f,c
  9513  001134                     i2l1195:
  9514  001134  5028               	movf	___fladd@b^0,w,c
  9515  001136  1029               	iorwf	(___fladd@b+1)^0,w,c
  9516  001138  102A               	iorwf	(___fladd@b+2)^0,w,c
  9517  00113A  102B               	iorwf	(___fladd@b+3)^0,w,c
  9518  00113C  A4D8               	btfss	status,2,c
  9519  00113E  EFA3  F008         	goto	i2u375_41
  9520  001142  EFA5  F008         	goto	i2u375_40
  9521  001146                     i2u375_41:
  9522  001146  EFDA  F008         	goto	i2l4175
  9523  00114A                     i2u375_40:
  9524  00114A  5037               	movf	___fladd@grs^0,w,c
  9525  00114C  A4D8               	btfss	status,2,c
  9526  00114E  EFAB  F008         	goto	i2u376_41
  9527  001152  EFAD  F008         	goto	i2u376_40
  9528  001156                     i2u376_41:
  9529  001156  EFDA  F008         	goto	i2l4175
  9530  00115A                     i2u376_40:
  9531  00115A  0E00               	movlw	0
  9532  00115C  6E28               	movwf	?___fladd^0,c
  9533  00115E  0E00               	movlw	0
  9534  001160  6E29               	movwf	(?___fladd+1)^0,c
  9535  001162  0E00               	movlw	0
  9536  001164  6E2A               	movwf	(?___fladd+2)^0,c
  9537  001166  0E00               	movlw	0
  9538  001168  6E2B               	movwf	(?___fladd+3)^0,c
  9539  00116A  EF75  F009         	goto	i2l1187
  9540  00116E                     i2l4159:
  9541  00116E  90D8               	bcf	status,0,c
  9542  001170  3628               	rlcf	___fladd@b^0,f,c
  9543  001172  3629               	rlcf	(___fladd@b+1)^0,f,c
  9544  001174  362A               	rlcf	(___fladd@b+2)^0,f,c
  9545  001176  362B               	rlcf	(___fladd@b+3)^0,f,c
  9546  001178  AE37               	btfss	___fladd@grs^0,7,c
  9547  00117A  EFC1  F008         	goto	i2u377_41
  9548  00117E  EFC3  F008         	goto	i2u377_40
  9549  001182                     i2u377_41:
  9550  001182  EFC4  F008         	goto	i2l4165
  9551  001186                     i2u377_40:
  9552  001186  8028               	bsf	___fladd@b^0,0,c
  9553  001188                     i2l4165:
  9554  001188  A037               	btfss	___fladd@grs^0,0,c
  9555  00118A  EFC9  F008         	goto	i2u378_41
  9556  00118E  EFCB  F008         	goto	i2u378_40
  9557  001192                     i2u378_41:
  9558  001192  EFCF  F008         	goto	i2l4169
  9559  001196                     i2u378_40:
  9560  001196  80D8               	bsf	status,0,c
  9561  001198  3637               	rlcf	___fladd@grs^0,f,c
  9562  00119A  EFD1  F008         	goto	i2l4171
  9563  00119E                     i2l4169:
  9564  00119E  90D8               	bcf	status,0,c
  9565  0011A0  3637               	rlcf	___fladd@grs^0,f,c
  9566  0011A2                     i2l4171:
  9567  0011A2  5036               	movf	___fladd@bexp^0,w,c
  9568  0011A4  B4D8               	btfsc	status,2,c
  9569  0011A6  EFD7  F008         	goto	i2u379_41
  9570  0011AA  EFD9  F008         	goto	i2u379_40
  9571  0011AE                     i2u379_41:
  9572  0011AE  EFDA  F008         	goto	i2l4175
  9573  0011B2                     i2u379_40:
  9574  0011B2  0636               	decf	___fladd@bexp^0,f,c
  9575  0011B4                     i2l4175:
  9576  0011B4  AE2A               	btfss	(___fladd@b+2)^0,7,c
  9577  0011B6  EFDF  F008         	goto	i2u380_41
  9578  0011BA  EFE1  F008         	goto	i2u380_40
  9579  0011BE                     i2u380_41:
  9580  0011BE  EFB7  F008         	goto	i2l4159
  9581  0011C2                     i2u380_40:
  9582  0011C2                     i2l4177:
  9583  0011C2  0E00               	movlw	0
  9584  0011C4  6E35               	movwf	___fladd@aexp^0,c
  9585  0011C6  AE37               	btfss	___fladd@grs^0,7,c
  9586  0011C8  EFE8  F008         	goto	i2u381_41
  9587  0011CC  EFEA  F008         	goto	i2u381_40
  9588  0011D0                     i2u381_41:
  9589  0011D0  EF02  F009         	goto	i2l1204
  9590  0011D4                     i2u381_40:
  9591  0011D4  C037  F030         	movff	___fladd@grs,??___fladd
  9592  0011D8  0E7F               	movlw	127
  9593  0011DA  1630               	andwf	??___fladd^0,f,c
  9594  0011DC  B4D8               	btfsc	status,2,c
  9595  0011DE  EFF3  F008         	goto	i2u382_41
  9596  0011E2  EFF5  F008         	goto	i2u382_40
  9597  0011E6                     i2u382_41:
  9598  0011E6  EFF9  F008         	goto	i2l1205
  9599  0011EA                     i2u382_40:
  9600  0011EA                     i2l4183:
  9601  0011EA  0E01               	movlw	1
  9602  0011EC  6E35               	movwf	___fladd@aexp^0,c
  9603  0011EE  EF02  F009         	goto	i2l1204
  9604  0011F2                     i2l1205:
  9605  0011F2  A028               	btfss	___fladd@b^0,0,c
  9606  0011F4  EFFE  F008         	goto	i2u383_41
  9607  0011F8  EF00  F009         	goto	i2u383_40
  9608  0011FC                     i2u383_41:
  9609  0011FC  EF02  F009         	goto	i2l1204
  9610  001200                     i2u383_40:
  9611  001200  EFF5  F008         	goto	i2l4183
  9612  001204                     i2l1204:
  9613  001204  5035               	movf	___fladd@aexp^0,w,c
  9614  001206  B4D8               	btfsc	status,2,c
  9615  001208  EF08  F009         	goto	i2u384_41
  9616  00120C  EF0A  F009         	goto	i2u384_40
  9617  001210                     i2u384_41:
  9618  001210  EF35  F009         	goto	i2l4195
  9619  001214                     i2u384_40:
  9620  001214  0E01               	movlw	1
  9621  001216  2628               	addwf	___fladd@b^0,f,c
  9622  001218  0E00               	movlw	0
  9623  00121A  2229               	addwfc	(___fladd@b+1)^0,f,c
  9624  00121C  222A               	addwfc	(___fladd@b+2)^0,f,c
  9625  00121E  222B               	addwfc	(___fladd@b+3)^0,f,c
  9626  001220  A02B               	btfss	(___fladd@b+3)^0,0,c
  9627  001222  EF15  F009         	goto	i2u385_41
  9628  001226  EF17  F009         	goto	i2u385_40
  9629  00122A                     i2u385_41:
  9630  00122A  EF35  F009         	goto	i2l4195
  9631  00122E                     i2u385_40:
  9632  00122E  C028  F030         	movff	___fladd@b,??___fladd
  9633  001232  C029  F031         	movff	___fladd@b+1,??___fladd+1
  9634  001236  C02A  F032         	movff	___fladd@b+2,??___fladd+2
  9635  00123A  C02B  F033         	movff	___fladd@b+3,??___fladd+3
  9636  00123E  3433               	rlcf	(??___fladd+3)^0,w,c
  9637  001240  3233               	rrcf	(??___fladd+3)^0,f,c
  9638  001242  3232               	rrcf	(??___fladd+2)^0,f,c
  9639  001244  3231               	rrcf	(??___fladd+1)^0,f,c
  9640  001246  3230               	rrcf	??___fladd^0,f,c
  9641  001248  C030  F028         	movff	??___fladd,___fladd@b
  9642  00124C  C031  F029         	movff	??___fladd+1,___fladd@b+1
  9643  001250  C032  F02A         	movff	??___fladd+2,___fladd@b+2
  9644  001254  C033  F02B         	movff	??___fladd+3,___fladd@b+3
  9645  001258  2836               	incf	___fladd@bexp^0,w,c
  9646  00125A  B4D8               	btfsc	status,2,c
  9647  00125C  EF32  F009         	goto	i2u386_41
  9648  001260  EF34  F009         	goto	i2u386_40
  9649  001264                     i2u386_41:
  9650  001264  EF35  F009         	goto	i2l4195
  9651  001268                     i2u386_40:
  9652  001268  2A36               	incf	___fladd@bexp^0,f,c
  9653  00126A                     i2l4195:
  9654  00126A  2836               	incf	___fladd@bexp^0,w,c
  9655  00126C  B4D8               	btfsc	status,2,c
  9656  00126E  EF3B  F009         	goto	i2u387_41
  9657  001272  EF3D  F009         	goto	i2u387_40
  9658  001276                     i2u387_41:
  9659  001276  EF45  F009         	goto	i2l4199
  9660  00127A                     i2u387_40:
  9661  00127A  5036               	movf	___fladd@bexp^0,w,c
  9662  00127C  A4D8               	btfss	status,2,c
  9663  00127E  EF43  F009         	goto	i2u388_41
  9664  001282  EF45  F009         	goto	i2u388_40
  9665  001286                     i2u388_41:
  9666  001286  EF57  F009         	goto	i2l4203
  9667  00128A                     i2u388_40:
  9668  00128A                     i2l4199:
  9669  00128A  0E00               	movlw	0
  9670  00128C  6E28               	movwf	___fladd@b^0,c
  9671  00128E  0E00               	movlw	0
  9672  001290  6E29               	movwf	(___fladd@b+1)^0,c
  9673  001292  0E00               	movlw	0
  9674  001294  6E2A               	movwf	(___fladd@b+2)^0,c
  9675  001296  0E00               	movlw	0
  9676  001298  6E2B               	movwf	(___fladd@b+3)^0,c
  9677  00129A  5036               	movf	___fladd@bexp^0,w,c
  9678  00129C  A4D8               	btfss	status,2,c
  9679  00129E  EF53  F009         	goto	i2u389_41
  9680  0012A2  EF55  F009         	goto	i2u389_40
  9681  0012A6                     i2u389_41:
  9682  0012A6  EF57  F009         	goto	i2l4203
  9683  0012AA                     i2u389_40:
  9684  0012AA  0E00               	movlw	0
  9685  0012AC  6E34               	movwf	___fladd@signs^0,c
  9686  0012AE                     i2l4203:
  9687  0012AE  A036               	btfss	___fladd@bexp^0,0,c
  9688  0012B0  EF5C  F009         	goto	i2u390_41
  9689  0012B4  EF5E  F009         	goto	i2u390_40
  9690  0012B8                     i2u390_41:
  9691  0012B8  EF61  F009         	goto	i2l4207
  9692  0012BC                     i2u390_40:
  9693  0012BC  8E2A               	bsf	(___fladd@b+2)^0,7,c
  9694  0012BE  EF62  F009         	goto	i2l4209
  9695  0012C2                     i2l4207:
  9696  0012C2  9E2A               	bcf	(___fladd@b+2)^0,7,c
  9697  0012C4                     i2l4209:
  9698  0012C4  90D8               	bcf	status,0,c
  9699  0012C6  3036               	rrcf	___fladd@bexp^0,w,c
  9700  0012C8  6E2B               	movwf	(___fladd@b+3)^0,c
  9701  0012CA  AE34               	btfss	___fladd@signs^0,7,c
  9702  0012CC  EF6A  F009         	goto	i2u391_41
  9703  0012D0  EF6C  F009         	goto	i2u391_40
  9704  0012D4                     i2u391_41:
  9705  0012D4  EF6D  F009         	goto	i2l4215
  9706  0012D8                     i2u391_40:
  9707  0012D8  8E2B               	bsf	(___fladd@b+3)^0,7,c
  9708  0012DA                     i2l4215:
  9709  0012DA  C028  F028         	movff	___fladd@b,?___fladd
  9710  0012DE  C029  F029         	movff	___fladd@b+1,?___fladd+1
  9711  0012E2  C02A  F02A         	movff	___fladd@b+2,?___fladd+2
  9712  0012E6  C02B  F02B         	movff	___fladd@b+3,?___fladd+3
  9713  0012EA                     i2l1187:
  9714  0012EA  0012               	return		;funcret
  9715  0012EC                     __end_of___fladd:
  9716                           	opt callstack 0
  9717                           
  9718 ;; *************** function _IRR *****************
  9719 ;; Defined at:
  9720 ;;		line 122 in file "senior_main.c"
  9721 ;; Parameters:    Size  Location     Type
  9722 ;;		None
  9723 ;; Auto vars:     Size  Location     Type
  9724 ;;		None
  9725 ;; Return value:  Size  Location     Type
  9726 ;;                  1    wreg      void 
  9727 ;; Registers used:
  9728 ;;		wreg, status,2, cstack
  9729 ;; Tracked objects:
  9730 ;;		On entry : 0/0
  9731 ;;		On exit  : 0/0
  9732 ;;		Unchanged: 0/0
  9733 ;; Data sizes:     COMRAM   BANK0   BANK1   BANK2   BANK3   BANK4   BANK5   BANK6   BANK7
  9734 ;;      Params:         0       0       0       0       0       0       0       0       0
  9735 ;;      Locals:         0       0       0       0       0       0       0       0       0
  9736 ;;      Temps:          0       0       0       0       0       0       0       0       0
  9737 ;;      Totals:         0       0       0       0       0       0       0       0       0
  9738 ;;Total ram usage:        0 bytes
  9739 ;; Hardware stack levels used:    1
  9740 ;; Hardware stack levels required when called:    1
  9741 ;; This function calls:
  9742 ;;		i2_forward
  9743 ;; This function is called by:
  9744 ;;		_echo
  9745 ;; This function uses a non-reentrant model
  9746 ;;
  9747                           
  9748                           	psect	text45
  9749  002F56                     __ptext45:
  9750                           	opt callstack 0
  9751  002F56                     _IRR:
  9752                           	opt callstack 18
  9753  002F56                     
  9754                           ;senior_main.c: 123:         if(IOCBFbits.IOCBF4 == 1 && IOCBNbits.IOCBN4 == 1){
  9755  002F56  EFBB  F017         	goto	i2l4499
  9756  002F5A                     i2l4495:
  9757                           
  9758                           ; BSR set to: 15
  9759                           ;senior_main.c: 125:             IOCBFbits.IOCBF4 = 0;
  9760  002F5A  0E00               	movlw	0
  9761  002F5C  6EA6               	movwf	166,c	;volatile
  9762                           
  9763                           ;senior_main.c: 126:         }
  9764  002F5E  0E50               	movlw	80
  9765  002F60  6EA5               	movwf	165,c	;volatile
  9766                           
  9767                           ;senior_main.c: 128:             IOCBNbits.IOCBN1 = 0;
  9768  002F62  0E00               	movlw	0
  9769  002F64  6EAA               	movwf	170,c	;volatile
  9770                           
  9771                           ;senior_main.c: 129:             IOCBFbits.IOCBF1 = 0;
  9772  002F66  0E00               	movlw	0
  9773  002F68  6EA9               	movwf	169,c	;volatile
  9774  002F6A                     
  9775                           ; BSR set to: 15
  9776  002F6A  0E00               	movlw	0
  9777  002F6C  6E02               	movwf	(i2forward@gostop+1)^0,c
  9778  002F6E  0E01               	movlw	1
  9779  002F70  6E01               	movwf	i2forward@gostop^0,c
  9780  002F72  EC07  F01A         	call	i2_forward	;wreg free
  9781  002F76                     i2l4499:
  9782                           
  9783                           ;senior_main.c: 123:         if(IOCBFbits.IOCBF4 == 1 && IOCBNbits.IOCBN4 == 1){
  9784  002F76  A88D               	btfss	141,4,c	;volatile
  9785  002F78  EFC0  F017         	goto	i2u445_41
  9786  002F7C  EFC2  F017         	goto	i2u445_40
  9787  002F80                     i2u445_41:
  9788  002F80  EFC9  F017         	goto	i2l201
  9789  002F84                     i2u445_40:
  9790  002F84  B28D               	btfsc	141,1,c	;volatile
  9791  002F86  EFC7  F017         	goto	i2u446_41
  9792  002F8A  EFC9  F017         	goto	i2u446_40
  9793  002F8E                     i2u446_41:
  9794  002F8E  EFD1  F017         	goto	i2l4503
  9795  002F92                     i2u446_40:
  9796  002F92                     i2l201:
  9797  002F92  010F               	movlb	15	; () banked
  9798  002F94  A50D               	btfss	13,2,b	;volatile
  9799  002F96  EFCF  F017         	goto	i2u447_41
  9800  002F9A  EFD1  F017         	goto	i2u447_40
  9801  002F9E                     i2u447_41:
  9802  002F9E  EFAD  F017         	goto	i2l4495
  9803  002FA2                     i2u447_40:
  9804  002FA2                     i2l4503:
  9805                           
  9806                           ;senior_main.c: 132:         IOCBNbits.IOCBN4 = 1;
  9807  002FA2  0E00               	movlw	0
  9808  002FA4  6EAA               	movwf	170,c	;volatile
  9809                           
  9810                           ;senior_main.c: 133:         IOCBNbits.IOCBN1 = 1;
  9811  002FA6  0E50               	movlw	80
  9812  002FA8  6EA9               	movwf	169,c	;volatile
  9813                           
  9814                           ;senior_main.c: 134:     }
  9815  002FAA  0E00               	movlw	0
  9816  002FAC  6EA6               	movwf	166,c	;volatile
  9817                           
  9818                           ;senior_main.c: 135: 
  9819  002FAE  0E50               	movlw	80
  9820  002FB0  6EA5               	movwf	165,c	;volatile
  9821  002FB2  0012               	return		;funcret
  9822  002FB4                     __end_of_IRR:
  9823                           	opt callstack 0
  9824                           
  9825 ;; *************** function _IRL *****************
  9826 ;; Defined at:
  9827 ;;		line 102 in file "senior_main.c"
  9828 ;; Parameters:    Size  Location     Type
  9829 ;;		None
  9830 ;; Auto vars:     Size  Location     Type
  9831 ;;		None
  9832 ;; Return value:  Size  Location     Type
  9833 ;;                  1    wreg      void 
  9834 ;; Registers used:
  9835 ;;		wreg, status,2, cstack
  9836 ;; Tracked objects:
  9837 ;;		On entry : 0/0
  9838 ;;		On exit  : 0/0
  9839 ;;		Unchanged: 0/0
  9840 ;; Data sizes:     COMRAM   BANK0   BANK1   BANK2   BANK3   BANK4   BANK5   BANK6   BANK7
  9841 ;;      Params:         0       0       0       0       0       0       0       0       0
  9842 ;;      Locals:         0       0       0       0       0       0       0       0       0
  9843 ;;      Temps:          0       0       0       0       0       0       0       0       0
  9844 ;;      Totals:         0       0       0       0       0       0       0       0       0
  9845 ;;Total ram usage:        0 bytes
  9846 ;; Hardware stack levels used:    1
  9847 ;; Hardware stack levels required when called:    1
  9848 ;; This function calls:
  9849 ;;		i2_forward
  9850 ;; This function is called by:
  9851 ;;		_echo
  9852 ;; This function uses a non-reentrant model
  9853 ;;
  9854                           
  9855                           	psect	text46
  9856  002FB4                     __ptext46:
  9857                           	opt callstack 0
  9858  002FB4                     _IRL:
  9859                           	opt callstack 18
  9860  002FB4                     
  9861                           ;senior_main.c: 103:     CCPR1L = 0x50;
  9862  002FB4  EFEA  F017         	goto	i2l4487
  9863  002FB8                     i2l4483:
  9864                           
  9865                           ; BSR set to: 15
  9866                           ;senior_main.c: 105:     CCPR2L = 0x50;
  9867  002FB8  0E00               	movlw	0
  9868  002FBA  6EAA               	movwf	170,c	;volatile
  9869                           
  9870                           ;senior_main.c: 106: }
  9871  002FBC  0E50               	movlw	80
  9872  002FBE  6EA9               	movwf	169,c	;volatile
  9873                           
  9874                           ;senior_main.c: 108: 
  9875  002FC0  0E00               	movlw	0
  9876  002FC2  6EA6               	movwf	166,c	;volatile
  9877                           
  9878                           ;senior_main.c: 109: 
  9879  002FC4  0E00               	movlw	0
  9880  002FC6  6EA5               	movwf	165,c	;volatile
  9881  002FC8                     
  9882                           ; BSR set to: 15
  9883  002FC8  0E00               	movlw	0
  9884  002FCA  6E02               	movwf	(i2forward@gostop+1)^0,c
  9885  002FCC  0E01               	movlw	1
  9886  002FCE  6E01               	movwf	i2forward@gostop^0,c
  9887  002FD0  EC07  F01A         	call	i2_forward	;wreg free
  9888  002FD4                     i2l4487:
  9889                           
  9890                           ;senior_main.c: 103:     CCPR1L = 0x50;
  9891  002FD4  AA8D               	btfss	141,5,c	;volatile
  9892  002FD6  EFEF  F017         	goto	i2u442_41
  9893  002FDA  EFF1  F017         	goto	i2u442_40
  9894  002FDE                     i2u442_41:
  9895  002FDE  EFF8  F017         	goto	i2l191
  9896  002FE2                     i2u442_40:
  9897  002FE2  B08D               	btfsc	141,0,c	;volatile
  9898  002FE4  EFF6  F017         	goto	i2u443_41
  9899  002FE8  EFF8  F017         	goto	i2u443_40
  9900  002FEC                     i2u443_41:
  9901  002FEC  EF00  F018         	goto	i2l4491
  9902  002FF0                     i2u443_40:
  9903  002FF0                     i2l191:
  9904  002FF0  010F               	movlb	15	; () banked
  9905  002FF2  A50D               	btfss	13,2,b	;volatile
  9906  002FF4  EFFE  F017         	goto	i2u444_41
  9907  002FF8  EF00  F018         	goto	i2u444_40
  9908  002FFC                     i2u444_41:
  9909  002FFC  EFDC  F017         	goto	i2l4483
  9910  003000                     i2u444_40:
  9911  003000                     i2l4491:
  9912                           
  9913                           ;senior_main.c: 113:         IOCBPbits.IOCBP2 = 0;
  9914  003000  0E00               	movlw	0
  9915  003002  6EAA               	movwf	170,c	;volatile
  9916                           
  9917                           ;senior_main.c: 114:         us_irs();
  9918  003004  0E50               	movlw	80
  9919  003006  6EA9               	movwf	169,c	;volatile
  9920                           
  9921                           ;senior_main.c: 115: 
  9922  003008  0E00               	movlw	0
  9923  00300A  6EA6               	movwf	166,c	;volatile
  9924                           
  9925                           ;senior_main.c: 116:         IOCBFbits.IOCBF2 = 0;
  9926  00300C  0E50               	movlw	80
  9927  00300E  6EA5               	movwf	165,c	;volatile
  9928  003010  0012               	return		;funcret
  9929  003012                     __end_of_IRL:
  9930                           	opt callstack 0
  9931                           
  9932 ;; *************** function i2_forward *****************
  9933 ;; Defined at:
  9934 ;;		line 10 in file "movement.c"
  9935 ;; Parameters:    Size  Location     Type
  9936 ;;  gostop          2    0[COMRAM] int 
  9937 ;; Auto vars:     Size  Location     Type
  9938 ;;		None
  9939 ;; Return value:  Size  Location     Type
  9940 ;;                  1    wreg      void 
  9941 ;; Registers used:
  9942 ;;		None
  9943 ;; Tracked objects:
  9944 ;;		On entry : 0/0
  9945 ;;		On exit  : 0/0
  9946 ;;		Unchanged: 0/0
  9947 ;; Data sizes:     COMRAM   BANK0   BANK1   BANK2   BANK3   BANK4   BANK5   BANK6   BANK7
  9948 ;;      Params:         2       0       0       0       0       0       0       0       0
  9949 ;;      Locals:         0       0       0       0       0       0       0       0       0
  9950 ;;      Temps:          0       0       0       0       0       0       0       0       0
  9951 ;;      Totals:         2       0       0       0       0       0       0       0       0
  9952 ;;Total ram usage:        2 bytes
  9953 ;; Hardware stack levels used:    1
  9954 ;; This function calls:
  9955 ;;		Nothing
  9956 ;; This function is called by:
  9957 ;;		_us_irs
  9958 ;;		_IRL
  9959 ;;		_IRR
  9960 ;; This function uses a non-reentrant model
  9961 ;;
  9962                           
  9963                           	psect	text47
  9964  00340E                     __ptext47:
  9965                           	opt callstack 0
  9966  00340E                     i2_forward:
  9967                           	opt callstack 18
  9968  00340E  9090               	bcf	3984,0,c	;volatile
  9969                           
  9970                           ;movement.c: 12:     RC2=gostop;
  9971  003410  B001               	btfsc	i2forward@gostop^0,0,c
  9972  003412  EF0D  F01A         	goto	i2u432_41
  9973  003416  EF10  F01A         	goto	i2u432_40
  9974  00341A                     i2u432_41:
  9975  00341A  848E               	bsf	3982,2,c	;volatile
  9976  00341C  EF11  F01A         	goto	i2u433_45
  9977  003420                     i2u432_40:
  9978  003420  948E               	bcf	3982,2,c	;volatile
  9979  003422                     i2u433_45:
  9980  003422  908E               	bcf	3982,0,c	;volatile
  9981                           
  9982                           ;movement.c: 14:     RC1=gostop;
  9983  003424  B001               	btfsc	i2forward@gostop^0,0,c
  9984  003426  EF17  F01A         	goto	i2u434_41
  9985  00342A  EF1A  F01A         	goto	i2u434_40
  9986  00342E                     i2u434_41:
  9987  00342E  828E               	bsf	3982,1,c	;volatile
  9988  003430  EF1B  F01A         	goto	i2u435_45
  9989  003434                     i2u434_40:
  9990  003434  928E               	bcf	3982,1,c	;volatile
  9991  003436                     i2u435_45:
  9992  003436  0012               	return		;funcret
  9993  003438                     __end_ofi2_forward:
  9994                           	opt callstack 0
  9995                           
  9996                           	psect	rparam
  9997  0000                     
  9998                           	psect	temp
  9999  000048                     btemp:
 10000                           	opt callstack 0
 10001  000048                     	ds	1
 10002  0000                     int$flags	set	btemp
 10003  0000                     wtemp8	set	btemp+1
 10004  0000                     ttemp5	set	btemp+1
 10005  0000                     ttemp6	set	btemp+4
 10006  0000                     ttemp7	set	btemp+8
 10007                           tosu	equ	0xFFF
 10008                           tosh	equ	0xFFE
 10009                           tosl	equ	0xFFD
 10010                           stkptr	equ	0xFFC
 10011                           pclatu	equ	0xFFB
 10012                           pclath	equ	0xFFA
 10013                           pcl	equ	0xFF9
 10014                           tblptru	equ	0xFF8
 10015                           tblptrh	equ	0xFF7
 10016                           tblptrl	equ	0xFF6
 10017                           tablat	equ	0xFF5
 10018                           prodh	equ	0xFF4
 10019                           prodl	equ	0xFF3
 10020                           indf0	equ	0xFEF
 10021                           postinc0	equ	0xFEE
 10022                           postdec0	equ	0xFED
 10023                           preinc0	equ	0xFEC
 10024                           plusw0	equ	0xFEB
 10025                           fsr0h	equ	0xFEA
 10026                           fsr0l	equ	0xFE9
 10027                           wreg	equ	0xFE8
 10028                           indf1	equ	0xFE7
 10029                           postinc1	equ	0xFE6
 10030                           postdec1	equ	0xFE5
 10031                           preinc1	equ	0xFE4
 10032                           plusw1	equ	0xFE3
 10033                           fsr1h	equ	0xFE2
 10034                           fsr1l	equ	0xFE1
 10035                           bsr	equ	0xFE0
 10036                           indf2	equ	0xFDF
 10037                           postinc2	equ	0xFDE
 10038                           postdec2	equ	0xFDD
 10039                           preinc2	equ	0xFDC
 10040                           plusw2	equ	0xFDB
 10041                           fsr2h	equ	0xFDA
 10042                           fsr2l	equ	0xFD9
 10043                           status	equ	0xFD8


Data Sizes:
    Strings     3
    Constant    4
    Data        0
    BSS         108
    Persistent  0
    Stack       0

Auto Spaces:
    Space          Size  Autos    Used
    COMRAM           94     71      71
    BANK0           160    135     145
    BANK1           256     52     150
    BANK2           256      0       0
    BANK3           256      0       0
    BANK4           256      0       0
    BANK5           256      0       0
    BANK6           256      0       0
    BANK7           256      0       0

Pointer List with Targets:

    strlen@s	PTR const unsigned char  size(2) Largest target is 32
		 -> dbuf(BANK1[32]), 

    strlen@a	PTR const unsigned char  size(2) Largest target is 32
		 -> dbuf(BANK1[32]), 

    sprintf@fmt	PTR const unsigned char  size(2) Largest target is 3
		 -> STR_5(CODE[3]), STR_4(CODE[3]), STR_3(CODE[3]), STR_2(CODE[3]), 
		 -> STR_1(CODE[3]), 

    sprintf@s	PTR unsigned char  size(2) Largest target is 2
		 -> lcdprint@d(BANK0[1]), lcdprint@array(BANK0[2]), 

    sprintf@ap	PTR void [1] size(2) Largest target is 2
		 -> ?_sprintf(BANK0[2]), 

    f.buffer	PTR unsigned char  size(2) Largest target is 2
		 -> lcdprint@d(BANK0[1]), lcdprint@array(BANK0[2]), 

    fputs@s	PTR const unsigned char  size(2) Largest target is 32
		 -> dbuf(BANK1[32]), 

    fputs@fp	PTR struct _IO_FILE size(2) Largest target is 7
		 -> sprintf@f(BANK0[6]), 

    S1904_IO_FILE$buffer	PTR unsigned char  size(2) Largest target is 2
		 -> lcdprint@d(BANK0[1]), lcdprint@array(BANK0[2]), 

    fputc@fp.buffer	PTR unsigned char  size(2) Largest target is 2
		 -> lcdprint@d(BANK0[1]), lcdprint@array(BANK0[2]), 

    fputc@fp	PTR struct _IO_FILE size(2) Largest target is 7
		 -> sprintf@f(BANK0[6]), 

    vfprintf@ap	PTR PTR void  size(2) Largest target is 2
		 -> sprintf@ap(BANK0[2]), 

    vfprintf@fp	PTR struct _IO_FILE size(2) Largest target is 7
		 -> sprintf@f(BANK0[6]), 

    vfprintf@fmt	PTR const unsigned char  size(2) Largest target is 3
		 -> STR_5(CODE[3]), STR_4(CODE[3]), STR_3(CODE[3]), STR_2(CODE[3]), 
		 -> STR_1(CODE[3]), 

    vfprintf@cfmt	PTR unsigned char  size(2) Largest target is 3
		 -> STR_5(CODE[3]), STR_4(CODE[3]), STR_3(CODE[3]), STR_2(CODE[3]), 
		 -> STR_1(CODE[3]), 

    vfpfcnvrt@fp	PTR struct _IO_FILE size(2) Largest target is 7
		 -> sprintf@f(BANK0[6]), 

    vfpfcnvrt@ap	PTR PTR void  size(2) Largest target is 2
		 -> sprintf@ap(BANK0[2]), 

    vfpfcnvrt@fmt	PTR PTR unsigned char  size(2) Largest target is 2
		 -> vfprintf@cfmt(BANK0[2]), 

    utoa@fp	PTR struct _IO_FILE size(2) Largest target is 7
		 -> sprintf@f(BANK0[6]), 

    pad@fp	PTR struct _IO_FILE size(2) Largest target is 7
		 -> sprintf@f(BANK0[6]), 

    pad@buf	PTR unsigned char  size(2) Largest target is 32
		 -> dbuf(BANK1[32]), 


Critical Paths under _main in COMRAM

    None.

Critical Paths under _echo in COMRAM

    _echo->_us_irs
    _us_irs->___fltol
    ___fltol->___fladd
    ___fldiv->___xxtofl
    ___fladd->___fldiv
    _IRR->i2_forward
    _IRL->i2_forward

Critical Paths under _main in BANK0

    _main->_IRpath1
    _set_seconds->___awmod
    _set_minutes->___awmod
    _rtc_init->_i2c_read
    _lcd_init->_lcd_command
    _IRpath1->_lcdprint
    _lcdprint->_sprintf
    _sprintf->_vfprintf
    _vfprintf->_vfpfcnvrt
    _vfpfcnvrt->_utoa
    _utoa->_pad
    _pad->_fputs
    _fputs->_fputc
    _get_seconds->_i2c_read
    _get_minutes->_i2c_read
    ___awmod->___awdiv

Critical Paths under _echo in BANK0

    None.

Critical Paths under _main in BANK1

    None.

Critical Paths under _echo in BANK1

    None.

Critical Paths under _main in BANK2

    None.

Critical Paths under _echo in BANK2

    None.

Critical Paths under _main in BANK3

    None.

Critical Paths under _echo in BANK3

    None.

Critical Paths under _main in BANK4

    None.

Critical Paths under _echo in BANK4

    None.

Critical Paths under _main in BANK5

    None.

Critical Paths under _echo in BANK5

    None.

Critical Paths under _main in BANK6

    None.

Critical Paths under _echo in BANK6

    None.

Critical Paths under _main in BANK7

    None.

Critical Paths under _echo in BANK7

    None.

Call Graph Tables:

 ---------------------------------------------------------------------------------
 (Depth) Function   	        Calls       Base Space   Used Autos Params    Refs
 ---------------------------------------------------------------------------------
 (0) _main                                                54    54      0   49672
                                            133 BANK0      2     2      0
                                              0 BANK1     52    52      0
                            _IRpath1
                            _adcNum0
                           _adc_init
                           _backward
                           _ccp_init
                            _forward
                           _i2c_init
                           _lcd_init
                           _lcdprint
                              _lturn
                           _pwm_init
                           _reversel
                           _reverser
                           _rtc_init
                              _rturn
                        _set_minutes
                        _set_seconds
                            _t1_init
                         _ultra_dist
 ---------------------------------------------------------------------------------
 (1) _t1_init                                              0     0      0       0
 ---------------------------------------------------------------------------------
 (1) _set_seconds                                          4     4      0    7347
                                             14 BANK0      4     4      0
                            ___awdiv
                            ___awmod
                           _i2c_read
                          _i2c_write
 ---------------------------------------------------------------------------------
 (1) _set_minutes                                          3     3      0    6071
                                             14 BANK0      3     3      0
                            ___awdiv
                            ___awmod
                          _i2c_write
 ---------------------------------------------------------------------------------
 (1) _rtc_init                                             5     5      0    3278
                                              7 BANK0      5     5      0
                           _i2c_read
                          _i2c_write
 ---------------------------------------------------------------------------------
 (2) _i2c_write                                            3     1      2    1890
                                              0 BANK0      3     1      2
 ---------------------------------------------------------------------------------
 (1) _pwm_init                                             0     0      0       0
 ---------------------------------------------------------------------------------
 (1) _lcd_init                                             0     0      0     295
                        _lcd_command
 ---------------------------------------------------------------------------------
 (1) _i2c_init                                             0     0      0       0
 ---------------------------------------------------------------------------------
 (1) _ccp_init                                             0     0      0       0
 ---------------------------------------------------------------------------------
 (1) _adc_init                                             0     0      0       0
 ---------------------------------------------------------------------------------
 (1) _adcNum0                                              7     3      4       0
                                              0 BANK0      7     3      4
 ---------------------------------------------------------------------------------
 (1) _IRpath1                                             20    20      0   16204
                                            113 BANK0     20    20      0
                           _backward
                            _forward
                           _lcdprint
                              _lturn
                           _reversel
                           _reverser
                              _rturn
                         _ultra_dist
 ---------------------------------------------------------------------------------
 (1) _ultra_dist                                           3     1      2       0
                                              0 BANK0      3     1      2
 ---------------------------------------------------------------------------------
 (1) _rturn                                                2     2      0       0
                                              0 BANK0      2     2      0
 ---------------------------------------------------------------------------------
 (1) _reverser                                             2     2      0       0
                                              0 BANK0      2     2      0
 ---------------------------------------------------------------------------------
 (1) _reversel                                             2     2      0       0
                                              0 BANK0      2     2      0
 ---------------------------------------------------------------------------------
 (1) _lturn                                                2     2      0       0
                                              0 BANK0      2     2      0
 ---------------------------------------------------------------------------------
 (1) _lcdprint                                            12    12      0   14581
                                            101 BANK0     12    12      0
                            ___awdiv
                            ___awmod
                        _get_minutes
                        _get_seconds
                           _lcd_char
                        _lcd_command
                            _sprintf
 ---------------------------------------------------------------------------------
 (2) _sprintf                                             16    10      6    6442
                                             85 BANK0     16    10      6
                        _get_minutes (ARG)
                        _get_seconds (ARG)
                           _vfprintf
 ---------------------------------------------------------------------------------
 (3) _vfprintf                                             8     2      6    5483
                                             77 BANK0      8     2      6
                          _vfpfcnvrt
 ---------------------------------------------------------------------------------
 (4) _vfpfcnvrt                                           44    38      6    5130
                                             59 BANK0     18    12      6
                              _fputc
                               _utoa
 ---------------------------------------------------------------------------------
 (5) _utoa                                                32    22     10    3759
                                             27 BANK0     32    22     10
                            ___lodiv
                            ___lomod
                                _pad
 ---------------------------------------------------------------------------------
 (6) _pad                                                 11     5      6    2709
                                             16 BANK0     11     5      6
                              _fputc
                              _fputs
                             _strlen
 ---------------------------------------------------------------------------------
 (7) _strlen                                               4     2      2     166
                                              0 BANK0      4     2      2
 ---------------------------------------------------------------------------------
 (7) _fputs                                                7     3      4    1235
                                              9 BANK0      7     3      4
                              _fputc
 ---------------------------------------------------------------------------------
 (8) _fputc                                                9     5      4     834
                                              0 BANK0      9     5      4
                              _putch
 ---------------------------------------------------------------------------------
 (9) _putch                                                1     1      0       0
 ---------------------------------------------------------------------------------
 (6) ___lomod                                             17     1     16     311
                                              0 BANK0     17     1     16
 ---------------------------------------------------------------------------------
 (6) ___lodiv                                             25     9     16     314
                                              0 BANK0     25     9     16
 ---------------------------------------------------------------------------------
 (2) _lcd_command                                          3     3      0     295
                                              0 BANK0      3     3      0
 ---------------------------------------------------------------------------------
 (2) _lcd_char                                             3     3      0     295
                                              0 BANK0      3     3      0
 ---------------------------------------------------------------------------------
 (2) _get_seconds                                          2     2      0    1297
                                              7 BANK0      2     2      0
                           _i2c_read
 ---------------------------------------------------------------------------------
 (2) _get_minutes                                          2     2      0    1297
                                              7 BANK0      2     2      0
                           _i2c_read
 ---------------------------------------------------------------------------------
 (2) _i2c_read                                             7     6      1    1252
                                              0 BANK0      7     6      1
 ---------------------------------------------------------------------------------
 (2) ___awmod                                              6     2      4    2120
                                              8 BANK0      6     2      4
                            ___awdiv (ARG)
 ---------------------------------------------------------------------------------
 (2) ___awdiv                                              8     4      4    1972
                                              0 BANK0      8     4      4
 ---------------------------------------------------------------------------------
 (1) _forward                                              2     0      2    1080
                                              0 BANK0      2     0      2
 ---------------------------------------------------------------------------------
 (1) _backward                                             2     2      0       0
                                              0 BANK0      2     2      0
 ---------------------------------------------------------------------------------
 Estimated maximum stack depth 9
 ---------------------------------------------------------------------------------
 (Depth) Function   	        Calls       Base Space   Used Autos Params    Refs
 ---------------------------------------------------------------------------------
 (11) _echo                                                0     0      0    4957
                                _IRL
                                _IRR
                             _us_irs
 ---------------------------------------------------------------------------------
 (12) _us_irs                                              6     6      0    4661
                                             65 COMRAM     6     6      0
                            ___fladd
                            ___fldiv
                            ___fltol
                           ___xxtofl
                          i2_forward
 ---------------------------------------------------------------------------------
 (13) ___xxtofl                                           14    10      4     398
                                              0 COMRAM    14    10      4
 ---------------------------------------------------------------------------------
 (13) ___fltol                                            10     6      4     305
                                             55 COMRAM    10     6      4
                            ___fladd (ARG)
                            ___fldiv (ARG)
                           ___xxtofl (ARG)
 ---------------------------------------------------------------------------------
 (13) ___fldiv                                            25    17      8    1399
                                             14 COMRAM    25    17      8
                           ___xxtofl (ARG)
 ---------------------------------------------------------------------------------
 (13) ___fladd                                            16     8      8    2388
                                             39 COMRAM    16     8      8
                            ___fldiv (ARG)
                           ___xxtofl (ARG)
 ---------------------------------------------------------------------------------
 (12) _IRR                                                 0     0      0     148
                          i2_forward
 ---------------------------------------------------------------------------------
 (12) _IRL                                                 0     0      0     148
                          i2_forward
 ---------------------------------------------------------------------------------
 (13) i2_forward                                           2     0      2     148
                                              0 COMRAM     2     0      2
 ---------------------------------------------------------------------------------
 Estimated maximum stack depth 13
 ---------------------------------------------------------------------------------

 Call Graph Graphs:

 _main (ROOT)
   _IRpath1
     _backward
     _forward
     _lcdprint
       ___awdiv
       ___awmod
         ___awdiv (ARG)
       _get_minutes
         _i2c_read
       _get_seconds
         _i2c_read
       _lcd_char
       _lcd_command
       _sprintf
         _get_minutes (ARG)
           _i2c_read
         _get_seconds (ARG)
           _i2c_read
         _vfprintf (ARG)
           _vfpfcnvrt
             _fputc
               _putch
             _utoa
               ___lodiv
               ___lomod
               _pad
                 _fputc
                   _putch
                 _fputs
                   _fputc
                     _putch
                 _strlen
     _lturn
     _reversel
     _reverser
     _rturn
     _ultra_dist
   _adcNum0
   _adc_init
   _backward
   _ccp_init
   _forward
   _i2c_init
   _lcd_init
     _lcd_command
   _lcdprint
     ___awdiv
     ___awmod
       ___awdiv (ARG)
     _get_minutes
       _i2c_read
     _get_seconds
       _i2c_read
     _lcd_char
     _lcd_command
     _sprintf
       _get_minutes (ARG)
         _i2c_read
       _get_seconds (ARG)
         _i2c_read
       _vfprintf (ARG)
         _vfpfcnvrt
           _fputc
             _putch
           _utoa
             ___lodiv
             ___lomod
             _pad
               _fputc
                 _putch
               _fputs
                 _fputc
                   _putch
               _strlen
   _lturn
   _pwm_init
   _reversel
   _reverser
   _rtc_init
     _i2c_read
     _i2c_write
   _rturn
   _set_minutes
     ___awdiv
     ___awmod
       ___awdiv (ARG)
     _i2c_write
   _set_seconds
     ___awdiv
     ___awmod
       ___awdiv (ARG)
     _i2c_read
     _i2c_write
   _t1_init
   _ultra_dist

 _echo (ROOT)
   _IRL
     i2_forward
   _IRR
     i2_forward
   _us_irs
     ___fladd
       ___fldiv (ARG)
         ___xxtofl (ARG)
       ___xxtofl (ARG)
     ___fldiv
       ___xxtofl (ARG)
     ___fltol
       ___fladd (ARG)
         ___fldiv (ARG)
           ___xxtofl (ARG)
         ___xxtofl (ARG)
       ___fldiv (ARG)
         ___xxtofl (ARG)
       ___xxtofl (ARG)
     ___xxtofl
     i2_forward

 Address spaces:
Name               Size   Autos  Total    Cost      Usage
BIGRAM             7FF      0       0      21        0.0%
EEDATA             100      0       0       0        0.0%
BITBANK7           100      0       0      19        0.0%
BANK7              100      0       0      20        0.0%
BITBANK6           100      0       0      16        0.0%
BANK6              100      0       0      17        0.0%
BITBANK5           100      0       0      14        0.0%
BANK5              100      0       0      15        0.0%
BITBANK4           100      0       0      12        0.0%
BANK4              100      0       0      13        0.0%
BITBANK3           100      0       0      10        0.0%
BANK3              100      0       0      11        0.0%
BITBANK2           100      0       0       8        0.0%
BANK2              100      0       0       9        0.0%
BITBANK1           100      0       0       6        0.0%
BANK1              100     34      96       7       58.6%
BITBANK0            A0      0       0       4        0.0%
BANK0               A0     87      91       5       90.6%
BITCOMRAM           5E      0       0       0        0.0%
COMRAM              5E     47      47       1       75.5%
BITSFR_2             0      0       0     200        0.0%
SFR_2                0      0       0     200        0.0%
BITSFR_1             0      0       0     200        0.0%
SFR_1                0      0       0     200        0.0%
BITSFR               0      0       0     200        0.0%
SFR                  0      0       0     200        0.0%
STACK                0      0       0       2        0.0%
NULL                 0      0       0       0        0.0%
ABS                  0      0     16E      18        0.0%
DATA                 0      0     16E       3        0.0%
CODE                 0      0       0       0        0.0%


Microchip Technology PIC18 Macro Assembler V2.10 build 88905656 
Symbol Table                                                                                   Wed Dec 02 16:26:00 2020

           ?_get_minutes 0001             ?_get_seconds 0001             ___fldiv@aexp 0027  
           ___fldiv@bexp 0026             ___fldiv@sign 001F             lcd_char@temp 0061  
           ___awdiv@sign 0065                       _go 0803              __CFG_LVP$ON 000000  
           rtc_init@hour 006B                      l310 09A4                      l231 30AE  
                    l311 0ACE                      l400 235A                      l312 0B04  
                    l410 23EC                      l403 2370                      l235 1BA4  
                    l420 2412                      l244 1D82                      l172 3386  
                    l260 15C2                      l228 32A8                      l413 23DA  
                    l405 237E                      l261 15F8                      l317 0CB8  
                    l309 096E                      l406 23A0                      l350 34AA  
                    l430 2B78                      l407 238E                      l239 1C48  
                    l271 1764                      l431 2B9A                      l416 23FA  
                    l440 2BBC                      l432 2B88                      l417 2402  
                    l353 3236                      l425 2B52                      l169 3356  
                    l258 1482                      l450 2C04                      l419 2410  
                    l259 14B8                      l355 3244                      l443 2BD2  
                    l435 2C12                      l620 2B4A                      l356 326C  
                    l436 2B9E                      l428 2B6A                      l461 28E4  
                    l445 2BE0                      l382 22DA                      l446 2C02  
                    l438 2BAC                      l615 2ACA                      l447 2BF0  
                    l439 2BCE                      l392 2424                      l640 22D2  
                    l464 34A0                      l480 2E1E                      l393 2328  
                    l385 22F2                      l625 1DBC                      l490 3480  
                    l618 2B0E                      l395 2336                      l387 2300  
                    l483 345C                      l467 29B4                      l635 1F88  
                    l627 1DC4                      l379 340C                      l396 2358  
                    l388 2324                      l397 2346                      l389 2310  
                    l581 30FA                      l646 2EEC                      l590 3146  
                    l494 2F54                      l575 33E2                      l647 2EF4  
                    l487 2E92                      l584 31DE                      l578 32E4  
                    l587 3192                      l881 2CD8                      l894 2D8A  
                    _RB2 007C6A                      _RC0 007C70                      _RC1 007C71  
                    _RC2 007C72                      _RE0 007C80                      _RD6 007C7E  
                    _IRL 2FB4                      _IRR 2F56                      _pad 2A82  
           ___awmod@sign 006D                      wreg 000FE8                     ?_IRL 0001  
                   ?_IRR 0001             lcd_command@x 0062             ___fltol@exp1 0041  
                   l1105 2814                     l1333 2A80                     l1341 3226  
                   l1095 2742                     l1351 34AC                     l1088 2722  
                   l4001 30EE                     l1098 27F4                     l4003 30F2  
                   l4011 2B86                     l1348 3062                     l1357 331E  
                   l4005 30F6                     l4013 2BBA                     l4015 2BEE  
                   l4007 2B50                     l3401 32F8                     l4009 2B60  
                   l3403 3310                     l3411 2AA6                     l5011 080A  
                   l3421 2AF0                     l3413 2AB6                     l5101 08F4  
                   l5021 0822                     l5013 080E                     l3431 265E  
                   l3423 2B1C                     l3415 2AC2                     l3407 2A82  
                   l3511 2186                     l3503 213E                     l5103 0912  
                   l5111 0948                     l5031 082E                     l5023 0826  
                   l5015 0812                     l3601 284E                     l3441 26BA  
                   l3433 267E                     l3425 2B30                     l3417 2AD6  
                   l3409 2A92                     l3521 2250                     l3513 21AA  
                   l3505 2162                     l5201 0B22                     l5121 0960  
                   l5113 0956                     l5105 0916                     l5041 0838  
                   l5033 0830                     l5025 0828                     l5017 081A  
                   l3611 2876                     l3603 2854                     l3443 26E8  
                   l3435 2686                     l3451 2744                     l3419 2AEA  
                   l3531 228E                     l3523 225E                     l3515 21F4  
                   l3507 2170                     l5211 0BA0                     l5203 0B26  
                   l5131 0970                     l5123 0962                     l5115 095A  
                   l5107 0924                     l5051 0842                     l5043 083A  
                   l5035 0832                     l5027 082A                     l5019 081E  
                   l3701 2C14                     l3621 28AA                     l3613 2888  
                   l3605 2858                     l3445 2708                     l3437 269A  
                   l3429 2652                     l3461 27BC                     l3453 2764  
                   l3381 29E6                     l3525 2272                     l3509 2182  
                   l5213 0BA4                     l5205 0B44                     l5221 0BEE  
                   l5141 09B4                     l5133 0978                     l5125 0964  
                   l5117 095C                     l5109 0940                     l5053 0844  
                   l5045 083C                     l5037 0834                     l5029 082C  
                   l3711 2C42                     l3703 2C1A                     l3543 22D8  
                   l3631 28D2                     l3623 28B0                     l3615 288C  
                   l3607 286A                     l3447 270A                     l3439 26A8  
                   l3463 27DC                     l3455 276C                     l3383 2A04  
                   l3375 29B6                     l3391 31EE                     l3471 1D96  
                   l3519 222C                     l3535 229A                     l4511 30A4  
                   l5223 0C0A                     l5231 0C52                     l5215 0BCA  
                   l5207 0B60                     l5151 09FA                     l5143 09CE  
                   l5135 0982                     l5119 095E                     l5071 0890  
                   l5063 0856                     l5055 0846                     l5047 083E  
                   l5039 0836                     l3721 2C70                     l3713 2C4A  
                   l3705 2C28                     l3561 238C                     l3553 2344  
                   l3545 22E8                     l3633 345E                     l3625 28B4  
                   l3617 289E                     l3609 2872                     l3449 271C  
                   l3465 27EE                     l3457 2780                     l3385 2A3A  
                   l3377 29CA                     l3393 3200                     l3481 1E04  
                   l3473 1DB0                     l3537 22C0                     l3529 2280  
                   l3641 3024                     l3801 1B06                     l4601 14E2  
                   l4521 1322                     l4513 12EC                     l4505 326E  
                   l5233 0C70                     l5225 0C2E                     l5217 0BCE  
                   l5209 0B7C                     l5161 0A22                     l5153 09FE  
                   l5145 09DA                     l5137 09A6                     l5241 0CB8  
                   l5081 08D0                     l5073 0896                     l5065 0870  
                   l5057 084C                     l5049 0840                     l3731 2CAA  
                   l3723 2C78                     l3715 2C4E                     l3707 2C30  
                   l3571 23D8                     l3547 230E                     l3635 346E  
                   l3651 28EA                     l3627 28C6                     l3619 28A2  
                   l3459 278E                     l3379 29DC                     l3395 3206  
                   l3491 1F00                     l3483 1E7C                     l3475 1DEC  
                   l3467 1D84                     l3643 302C                     l3811 1B44  
                   l3803 1B06                     l4611 1512                     l4603 14EE  
                   l4531 1358                     l4523 133C                     l4515 1302  
                   l4507 3064                     l4451 333A                     l5251 0CD4  
                   l5243 0CBC                     l5235 0C94                     l5227 0C32  
                   l5171 0A56                     l5163 0A2E                     l5155 0A02  
                   l5147 09F4                     l5139 09B2                     l5091 08DE  
                   l5083 08D4                     l5075 089C                     l5067 0874  
                   l3741 2CD0                     l3733 2CAC                     l3725 2C86  
                   l3717 2C56                     l3709 2C34                     l3549 231E  
                   l3661 2918                     l3653 28F6                     l3629 28CE  
                   l3389 31E0                     l3397 32E6                     l3493 1F1E  
                   l3485 1E82                     l3477 1DF4                     l3469 1D94  
                   l3581 2E94                     l3645 3034                     l3821 1B98  
                   l3813 1B54                     l3805 1B2A                     l3901 31DA  
                   l4621 1542                     l4613 1516                     l4605 1508  
                   l4541 13B0                     l4533 1376                     l4525 133E  
                   l4517 1314                     l4701 34A2                     l4509 30A2  
                   l4461 3344                     l4453 333C                     l5261 0D08  
                   l5253 0CD6                     l5245 0CBE                     l5237 0C98  
                   l5181 0A9C                     l5173 0A5A                     l5165 0A48  
                   l5157 0A06                     l5149 09F6                     l5093 08EA  
                   l5085 08D8                     l5077 08B0                     l5069 0890  
                   ?_pad 0070                     l3911 32C0                     l3903 32AA  
                   l3735 2CB2                     l3727 2C8C                     l3719 2C68  
                   l3751 2CF6                     l3567 23A2                     l3559 2368  
                   l3671 2942                     l3663 291E                     l3655 28FA  
                   l3591 2826                     l3399 32F2                     l3495 1F38  
                   l3487 1E88                     l3479 1DFE                     l3583 2E9C  
                   l3647 3050                     l3639 3012                     l3831 1BE8  
                   l3823 1BAA                     l3815 1B66                     l3807 1B2E  
                   l4631 156E                     l4623 155C                     l4615 151A  
                   l4607 150A                     l4551 13F4                     l4543 13B4  
                   l4535 1386                     l4527 1348                     l4519 1320  
                   l4703 34A4                     l4711 3406                     l4455 333E  
                   l5263 0D22                     l5255 0CE0                     l5247 0CC0  
                   l5183 0A9E                     l5175 0A5C                     l5167 0A4E  
                   l5159 0A08                     l5095 08EE                     l5087 08DA  
                   l5079 08CE                     l3921 32E2                     l3913 32C2  
                   l3905 32BA                     l3729 2CA2                     l3737 2CB8  
                   l3761 2D2A                     l3753 2CFA                     l3745 2CDA  
                   l3577 2420                     l3569 23B8                     l3681 2972  
                   l3673 2946                     l3665 2924                     l3657 28FE  
                   l3593 282A                     l3497 1F52                     l3489 1EEC  
                   l3585 2EAA                     l3841 1C3C                     l3833 1BF8  
                   l3825 1BCE                     l3817 1B76                     l3809 1B32  
                   l4641 15B2                     l4633 1570                     l4625 1562  
                   l4617 151C                     l4609 150E                     l4553 13F6  
                   l4561 1420                     l4537 139E                     l4529 134C  
                   l4545 13BE                     l4713 3408                     l4705 3482  
                   l4721 2DAA                     l4457 3340                     l4449 3320  
                   l5281 0DCE                     l5273 0D58                     l5257 0CE8  
                   l5193 0AD0                     l5185 0AA2                     l5177 0A76  
                   l5169 0A52                     l5097 08F0                     l5089 08DC  
                   l5249 0CC6                     l3915 32DC                     l3907 32BC  
                   l3739 2CC8                     l3771 2D64                     l3763 2D32  
                   l3755 2D08                     l3747 2CE0                     l3691 299E  
                   l3683 297A                     l3675 2958                     l3667 2928  
                   l3659 2910                     l3595 282E                     l3499 1F60  
                   l3587 2ED0                     l3851 1CE2                     l3843 1CCA  
                   l3835 1C0A                     l3827 1BD2                     l3819 1B86  
                   l3931 3112                     l3923 30FC                     l4651 15C4  
                   l4643 15B6                     l4635 158A                     l4627 1566  
                   l4619 1536                     l4571 146A                     l4563 142C  
                   l4555 1410                     l4547 13D6                     l4539 13AC  
                   l4715 340A                     l4707 33E4                     l4731 2DD6  
                   l4723 2DBA                     l4459 3342                     l5291 0E0E  
                   l5283 0DD2                     l5275 0D7E                     l5267 0D2A  
                   l5195 0AD8                     l5187 0AA4                     l5179 0A82  
                   l5099 08F2                     l3917 32DE                     l3909 32BE  
                   l3765 2D40                     l3773 2D6A                     l3757 2D10  
                   l3749 2CEE                     l3693 29A2                     l3685 2980  
                   l3677 295C                     l3669 293A                     l3597 2840  
                   l3589 281A                     l3861 1D26                     l3853 1CE6  
                   l3837 1C1A                     l3829 1BD6                     l3941 3134  
                   l3933 3114                     l3925 310C                     l3781 3358  
                   l4661 161A                     l4653 15CC                     l4645 15B8  
                   l4637 1596                     l4629 156A                     l4581 1476  
                   l4573 146E                     l4565 144A                     l4557 1412  
                   l4549 13E8                     l4709 33E8                     l4733 2DF2  
                   l4717 2D8C                     l4741 2F0C                     l5285 0DDE  
                   l5277 0DA2                     l5293 0E16                     l5269 0D3A  
                   l5197 0AE2                     l5189 0AAE                     l3919 32E0  
                   l3775 2D7A                     l3767 2D56                     l3759 2D22  
                   l3695 3438                     l3687 2984                     l3679 296E  
                   l3599 2848                     l3871 1D76                     l3863 1D42  
                   l3855 1D00                     l3839 1C2A                     l3951 3148  
                   l3943 3136                     l3935 312E                     l3927 310E  
                   l3791 337E                     l3783 3360                     l4671 1692  
                   l4663 1638                     l4655 15D6                     l4639 15B0  
                   l4591 148C                     l4583 1478                     l4575 1470  
                   l4567 145A                     l4559 141C                     l4735 2E00  
                   l4719 2D9C                     l4743 2F46                     l4751 2E7E  
                   l5287 0DF0                     l5279 0DB4                     l5199 0B06  
                   l3777 2D82                     l3769 2D5E                     l3697 3448  
                   l3689 2996                     l3873 1D7C                     l3865 1D4E  
                   l3857 1D1A                     l3849 1CD2                     l3881 31A8  
                   l3961 3160                     l3953 3158                     l3945 313A  
                   l3937 3130                     l3929 3110                     l3785 3362  
                   l4681 16FC                     l4673 16B2                     l4665 1654  
                   l4657 15FA                     l4593 1496                     l4577 1472  
                   l4569 1466                     l4761 3246                     l4737 2E0E  
                   l4729 2DC4                     l4753 2E82                     l4745 2E24  
                   l5289 0E0A                     l5297 0E20                     l3795 33B6  
                   l3867 1D6A                     l3859 1D1E                     l3891 31CA  
                   l3883 31AA                     l3875 3194                     l3971 3182  
                   l3963 317A                     l3955 315A                     l3947 313E  
                   l3939 3132                     l3787 336A                     l4691 1748  
                   l4683 1718                     l4667 1670                     l4675 16BA  
                   l4659 1616                     l4595 14BA                     l4579 1474  
                   l4755 3228                     l4739 2EFA                     l4747 2E36  
                   l3869 1D6E                     l3797 1B00                     l3893 31CC  
                   l3885 31AC                     l3877 31A4                     l3973 3186  
                   l3965 317C                     l3957 315C                     l3949 3142  
                   l3981 30C0                     l3789 336C                     l4693 174A  
                   l4685 1736                     l4677 16D6                     l4669 168E  
                   l4597 14C6                     l4589 1484                     l4757 3232  
                   l4749 2E70                     l3799 1B06                     l3895 31CE  
                   l3887 31C6                     l3879 31A6                     l3975 318A  
                   l3967 317E                     l3959 315E                     l3991 30E2  
                   l3983 30C2                     l4695 174C                     l4687 173A  
                   l4679 16F4                     l4599 14C8                     l4759 3234  
                   l3897 31D2                     l3889 31C8                     l3977 318E  
                   l3969 3180                     l3993 30E4                     l3985 30C4  
                   l4697 174E                     l4689 1744                     l3899 31D6  
                   l3995 30E6                     l3987 30C6                     l3979 30B0  
                   l4699 1750                     l3997 30E8                     l3989 30C8  
                   l3999 30EA                     STR_1 0805                     STR_2 0805  
                   STR_3 0805                     STR_4 0805                     STR_5 0805  
                   u3000 22E8                     u3001 22E4                     u3010 2300  
                   u3011 22FC                     u3100 239C                     u3020 230E  
                   u3101 2398                     u3021 230A                     u3110 23D8  
                   u3030 231E                     u3111 23D4                     u3031 231A  
                   u3200 2C86                     u3120 23E8                     u3040 2336  
                   u3201 2C82                     u3121 23E4                     u3041 2332  
                   u3210 2CA2                     u3130 23FA                     u3050 2344  
                   u3211 2C9E                     u3131 23F6                     u3051 2340  
                   u3220 2CC8                     u3140 2410                     u3060 2354  
                   u3221 2CC4                     u3141 240C                     u3061 2350  
                   u3310 33E0                     u3230 2CEE                     u3150 2420  
                   u3070 2368                     u3311 33DA                     u3231 2CEA  
                   u3151 241C                     u3071 2364                     u3240 2D08  
                   u3080 237E                     u3160 2EEC                     u3400 1C2A  
                   u3305 33CC                     u3241 2D04                     u3081 237A  
                   u3161 2EE8                     u3401 1C26                     u3170 2C28  
                   u3250 2D22                     u3090 238C                     u3410 1D00  
                   u3330 1B44                     _T2PR 000FBB                     u3171 2C24  
                   u3251 2D1E                     u3091 2388                     u3411 1CFC  
                   u3331 1B40                     u3180 2C42                     u3260 2D40  
                   u3340 1B54                     u3500 2BEE                     u3420 2B60  
                   u3325 33E2                     u3181 2C3E                     u3261 2D3C  
                   u3341 1B50                     u3501 2BEA                     u3421 2B5C  
                   u3190 2C68                     u3270 2D56                     u3350 1B76  
                   u3510 2BFE                     u3430 2B78                     u3191 2C64  
                   u3271 2D52                     u3351 1B72                     u3511 2BFA  
                   u3431 2B74                     u3280 2D7A                     u2800 2AB6  
                   u3360 1B86                     u3520 2C12                     u3440 2B86  
                   u5200 0B60                     u5120 0890                     u3281 2D76  
                   u2801 2AB2                     u3361 1B82                     u3521 2C0E  
                   u3441 2B82                     u5201 0B5C                     u5121 088C  
                   u3290 33CA                     u2730 29CA                     u2810 2B0E  
                   u3370 1BE8                     u3450 2B96                     u5210 0B7C  
                   u5130 08CE                     _T4PR 000FB5                     u3291 33C4  
                   u2731 29C6                     u2811 2B0A                     u3371 1BE4  
                   u3451 2B92                     u5211 0B78                     u5131 08CA  
                   u2740 29DC                     u2820 2B1C                     u2900 1D94  
                   u3380 1BF8                     u4500 13D2                     u3460 2BAC  
                   u5300 0D7E                     u5220 0BA0                     u5140 0912  
                   u2741 29D8                     u2821 2B18                     u2901 1D90  
                   u3381 1BF4                     u4501 13CE                     u3461 2BA8  
                   u5301 0D7A                     u5221 0B9C                     u5141 090E  
                   u2750 2A04                     u2910 1DB0                     u3390 1C1A  
                   u4510 13E8                     u3470 2BBA                     u5310 0DA2  
                   u5230 0BCA                     u5150 09A4                     u2831 2658  
                   u2751 2A00                     u2911 1DAC                     u3391 1C16  
                   u4511 13E4                     u3471 2BB6                     u5311 0D9E  
                   u5231 0BC6                     u5151 09A0                     u2840 267E  
                   u2760 2A3A                     u2920 1F00                     u4600 16B2  
                   u4520 144A                     u3480 2BCA                     u5320 0DB4  
                   u5240 0C0A                     u5160 0ACA                     u2841 267A  
                   u2761 2A36                     u2921 1EFC                     u4601 16AE  
                   u4521 1446                     u3481 2BC6                     u5321 0DB0  
                   u5241 0C06                     u5161 0AC6                     u2850 26A8  
                   u2770 3226                     u2930 1F1E                     u4610 16D6  
                   u4530 14B8                     u3490 2BE0                     u5330 0DF0  
                   u5250 0C2E                     u5170 0B04                     u2851 26A4  
                   u2771 3222                     u2931 1F1A                     u4611 16D2  
                   u4531 14B4                     u3491 2BDC                     u5331 0DEC  
                   u5251 0C2A                     u5171 0B00                     u2860 26E8  
                   u2780 3310                     u2940 1F38                     u4620 16F4  
                   u4540 15F8                     u4700 2E36                     u5260 0C70  
                   u5180 0B22                     _PMD0 000EDC                     u2861 26E4  
                   u2781 330C                     u2941 1F34                     u4621 16F0  
                   u4541 15F4                     u4701 2E32                     u5261 0C6C  
                   u5181 0B1E                     _PMD1 000EDD                     u2870 2764  
                   u2790 2A92                     u2950 1F52                     u4630 1718  
                   u4550 1616                     u4710 3244                     u5270 0C94  
                   u5190 0B44                     u2871 2760                     u2791 2A8E  
                   u2951 1F4E                     u4631 1714                     u4551 1612  
                   u4711 3240                     u5271 0C90                     u5191 0B40  
                   _PMD3 000EDF                     u2880 278E                     u2960 1F60  
                   u4640 1736                     u4560 1638                     u4480 1314  
                   u5280 0D04                     u2881 278A                     u2961 1F5C  
                   u4641 1732                     u4561 1634                     u4481 1310  
                   u5281 0D00                     u2890 27BC                     u2970 2162  
                   u4650 1764                     u4570 1654                     u4490 1376  
                   u5290 0D54                     u2891 27B8                     u2971 215E  
                   u4651 1760                     u4571 1650                     u4491 1372  
                   u5291 0D50                     u5507 0A3A                     u2980 21AA  
                   u4580 1670                     u4660 2DAA                     u2981 21A6  
                   u4581 166C                     u4725 3254                     u4661 2DA6  
                   u5517 0A68                     u2990 2250                     u4590 168E  
                   u4670 2DF2                     u2991 224C                     u4591 168A  
                   u5607 1490                     u4671 2DEE                     u5527 0A8E  
                   u4680 2E0E                     u5617 14D4                     u4681 2E0A  
                   u5537 0AD2                     u5457 0972                     u4690 2F0C  
                   u5707 3374                     u5627 14FA                     u4691 2F08  
                   u5547 0ADC                     u5467 097C                     u5717 30D4  
                   u5637 1528                     u5557 2DCC                     u5477 09C0  
                   u5807 28DA                     u5727 3120                     u5647 154E  
                   u5567 132E                     u5487 09E6                     u5817 2906  
                   u5737 316C                     u5657 157C                     u5577 1392  
                   u5497 0A14                     u5827 2930                     u5747 31B8  
                   u5667 15A2                     u5587 1402                     u5837 294E  
                   u5757 2836                     u5677 15C6                     u5597 1486  
                   u5847 2964                     u5767 2860                     u5687 15D0  
                   u5857 298C                     u5777 287E                     u5697 3364  
                   u5867 29AA                     u5787 2894                     u5877 32CE  
                   u5797 28BC                     _TMR1 000FCC                     _echo 0008  
                   _dbuf 0142                     _main 080A                     _maze 0100  
                   _prec 00EB                     _nout 00E7                     pad@i 0077  
                   pad@p 0074                     fsr1h 000FE2                     fsr2h 000FDA  
                   indf2 000FDF                     fsr1l 000FE1                     pad@w 0079  
                   fsr2l 000FD9                     btemp 0048                     _stop 0801  
                   _utoa 1D84          __end_of_IRpath1 1766                     prodl 000FF3  
                   start 016E          ___fldiv@new_exp 0020             ___param_bank 000000  
                  ??_IRL 0003                    ??_IRR 0003                    ??_pad 0076  
        __end_of_t1_init 3358                    ?_echo 0001            ___fltol@sign1 0040  
        __end_of___fladd 12EC                    ?_main 0001                    _ADPCH 000F5A  
        __end_of___fldiv 1B00          __end_of_adcNum0 326E          __end_of___awdiv 2CDA  
                  _ADRES 000F5E            __CFG_WDTE$OFF 000000          __end_of___awmod 2D8C  
        __end_of___fltol 2652                    ?_utoa 007B          __end_of___lodiv 2744  
        ___awdiv@divisor 0062                    _T1CON 000FCE                    _T2CON 000FBC  
                  _T4CON 000FB6          __end_of___lomod 2816                    _T2HLT 000FBD  
                  _IOCBF 000F0D                    _IOCBN 000F0E                    _T4HLT 000FB7  
            i2c_read@num 0061                    _T2TMR 000FBA                    _T2RST 000FBF  
                  i2l201 2F92                    i2l203 2FB2                    i2l211 007A  
                  _T4TMR 000FB4                    i2l221 00F2                    i2l213 0050  
                  i2l222 0140                    i2l214 009E                    i2l225 016A  
                  _T4RST 000FB9                    i2l219 011C                    i2l180 2444  
                  i2l191 2FF0                    i2l183 254A                    i2l175 2426  
                  i2l193 3010                    i2l177 2434                    i2l178 2436  
                  i2l575 3436                    i2l947 2650          ___awdiv@counter 0064  
                  _OSCEN 000ED7             vfpfcnvrt@fmt 009D             vfpfcnvrt@llu 00A5  
                  _TMR1H 000FCD                    _TMR1L 000FCC                    _PORTD 000F8F  
                  _flags 00ED                    _index 0140                    _fputc 29B6  
        __end_of_forward 33E4                    _fputs 31E0                    _lturn 3194  
                  pad@fp 0070                    _width 00E9                    _putch 34AC  
                  main@i 018A                    main@j 0190                    _rturn 30B0  
                  tablat 000FF5                    nvmcon 000F80                    ttemp5 0049  
                  ttemp6 004C                    ttemp7 0050                    utoa@d 007D  
                  utoa@i 0099                    utoa@n 0091                    utoa@p 008D  
                  utoa@w 008F                    status 000FD8                    wtemp8 0049  
        __end_of_sprintf 3064         ___lodiv@dividend 0060          __initialization 3388  
           __end_of_echo 016E             __end_of_main 0E2C             __end_of_stop 0803  
           __end_of_utoa 1F8A         __end_of_i2c_init 340E         __end_of_i2c_read 2426  
     __size_ofi2_forward 002A                   ??_echo 0048                   ??_main 00E5  
                 ??_utoa 0085            __activetblptr 000001         ___lodiv@quotient 0070  
                 _ADCON0 000F5B                   ?_fputc 0060                   ?_fputs 0069  
                 _CCPR1H 000FAA                   _CCPR2H 000FA6                   _CCPR1L 000FA9  
                 _CCPR2L 000FA5         ___awdiv@dividend 0060                   ?_lturn 0001  
                 ?_putch 0001                   _ANSELB 000F14                   _ANSELC 000F1C  
                 ?_rturn 0001                ??_IRpath1 00D1                   _RA4PPS 000EE6  
       __end_of_adc_init 34AC             i2c_read@read 0065                   _RC3PPS 000EF5  
                 _RC4PPS 000EF6                   _RC5PPS 000EF7                   _RC6PPS 000EF8  
                 i2l1204 1204                   i2l1205 11F2                   i2l1232 1AFE  
                 i2l1312 2078                   i2l1305 1FE0                   i2l1234 195E  
                 i2l1243 19A4                   i2l1180 0FCE                   i2l1308 213C  
                 i2l1245 1A1C                   i2l1237 1922                   i2l1246 1A0A  
                 i2l1319 20D4                   i2l1178 101A                   i2l1195 1134  
                 i2l1187 12EA                   i2l1179 1008                   i2l4101 0FB6  
                 i2l4021 0E46                   i2l4111 0FFA                   i2l4103 0FC6  
                 i2l4031 0E7A                   i2l4023 0E48                   i2l4201 12AA  
                 i2l4113 0FFC                   i2l4105 0FDC                   i2l4041 0EAC  
                 i2l4025 0E58                   i2l4033 0E82                   i2l4017 0E2C  
                 i2l4211 12CA                   i2l4203 12AE                   i2l4131 1084  
                 i2l4123 104C                   i2l4115 1006                   i2l4107 0FE8  
                 i2l4051 0EE2                   i2l4043 0EB2                   i2l4035 0E92  
                 i2l4027 0E68                   i2l4019 0E38                   i2l4213 12D8  
                 i2l4205 12BC                   i2l4133 1088                   i2l4125 105C  
                 i2l4117 1028                   i2l4141 10A8                   i2l4109 0FEC  
                 i2l4061 0F1E                   i2l4053 0EF2                   i2l4045 0EC0  
                 i2l4037 0E98                   i2l4029 0E78                   i2l4301 195C  
                 i2l4221 1772                   i2l4215 12DA                   i2l4207 12C2  
                 i2l4143 10CE                   i2l4151 1124                   i2l4135 1096  
                 i2l4127 106A                   i2l4119 1038                   i2l4071 0F3C  
                 i2l4063 0F2C                   i2l4055 0EF4                   i2l4047 0EC2  
                 i2l4039 0EAA                   i2l4311 19A2                   i2l4303 196E  
                 i2l4231 17B2                   i2l4223 1780                   i2l4209 12C4  
                 i2l4161 1178                   i2l4153 114A                   i2l4145 1102  
                 i2l4137 1098                   i2l4129 1078                   i2l4081 0F50  
                 i2l4073 0F40                   i2l4065 0F30                   i2l4049 0ED2  
                 i2l4057 0EFC                   i2l4321 1A02                   i2l4305 1984  
                 i2l4313 19B4                   i2l4241 17D8                   i2l4233 17B4  
                 i2l4225 1782                   i2l4401 1F8C                   i2l4171 11A2  
                 i2l4163 1186                   i2l4155 115A                   i2l4147 1104  
                 i2l4139 10A2                   i2l4091 0F64                   i2l4083 0F54  
                 i2l4075 0F44                   i2l4067 0F34                   i2l4059 0F0C  
                 i2l4331 1A70                   i2l4315 19C2                   i2l4307 198A  
                 i2l4251 1818                   i2l4243 17E6                   i2l4227 1792  
                 i2l4235 17BC                   i2l4219 1766                   i2l4403 1F9C  
                 i2l4501 2F84                   i2l4181 11D4                   i2l4173 11B2  
                 i2l4165 1188                   i2l4149 1114                   i2l4093 0F68  
                 i2l4085 0F58                   i2l4077 0F48                   i2l4069 0F38  
                 i2l4341 1ADA                   i2l4325 1A2C                   i2l4333 1A74  
                 i2l4317 19C6                   i2l4309 1994                   i2l4261 1858  
                 i2l4253 181A                   i2l4245 17E8                   i2l4237 17CC  
                 i2l4229 17A2                   i2l4421 2062                   i2l4413 201A  
                 i2l4405 1FAA                   i2l4503 2FA2                   i2l4191 122E  
                 i2l4183 11EA                   i2l4167 1196                   i2l4159 116E  
                 i2l4175 11B4                   i2l4087 0F5C                   i2l4079 0F4C  
                 i2l4095 0F6C                   i2l4343 1ADE                   i2l4335 1A8E  
                 i2l4327 1A38                   i2l4319 19D4                   i2l4271 1888  
                 i2l4263 1860                   i2l4247 17F8                   i2l4255 1822  
                 i2l4239 17D2                   i2l4431 20E2                   i2l4423 206E  
                 i2l4415 2022                   i2l4407 1FF0                   i2l4193 1268  
                 i2l4169 119E                   i2l4177 11C2                   i2l4097 0F70  
                 i2l4089 0F60                   i2l4345 1AEC                   i2l4337 1AA4  
                 i2l4329 1A46                   i2l4281 18C6                   i2l4273 1888  
                 i2l4265 1864                   i2l4257 1832                   i2l4249 1808  
                 i2l4441 212A                   i2l4433 20E4                   i2l4425 20AA  
                 i2l4417 202E                   i2l4409 2006                   i2l4187 1214  
                 i2l4195 126A                   i2l4179 11C6                   i2l4099 0F9A  
                 i2l4347 1AF2                   i2l4339 1ABE                   i2l4291 1912  
                 i2l4283 18D6                   i2l4259 1848                   i2l4371 25B6  
                 i2l4363 2576                   i2l4443 212C                   i2l4435 20E8  
                 i2l4427 20B6                   i2l4419 2060                   i2l4197 127A  
                 i2l4189 1220                   i2l4349 1AF4                   i2l4293 1920  
                 i2l4285 18E6                   i2l4277 189C                   i2l4269 1878  
                 i2l4381 25E6                   i2l4373 25C4                   i2l4365 25A0  
                 i2l4357 254C                   i2l4437 210C                   i2l4429 20C4  
                 i2l4447 340E                   i2l4199 128A                   i2l4295 192C  
                 i2l4287 18EE                   i2l4279 18B6                   i2l4391 2610  
                 i2l4383 25F0                   i2l4367 25A2                   i2l4359 2562  
                 i2l4439 211C                   i2l4471 24F8                   i2l4463 2426  
                 i2l4481 2FB4                   i2l4297 194A                   i2l4289 18FE  
                 i2l4393 2620                   i2l4369 25B2                   i2l4473 2506  
                 i2l4465 2446                   i2l4801 00D6                   i2l4491 3000  
                 i2l4483 2FB8                   i2l4299 194C                   i2l4395 2630  
                 i2l4379 25DC                   i2l4475 2512                   i2l4467 245E  
                 i2l4811 0138                   i2l4803 00E4                   i2l4485 2FC8  
                 i2l4493 2F56                   i2l4397 2640                   i2l4389 2604  
                 i2l4477 2530                   i2l4469 24DA                   i2l4821 0168  
                 i2l4813 014E                   i2l4805 0100                   i2l4487 2FD4  
                 i2l4495 2F5A                   i2l4479 253E                   i2l4815 015C  
                 i2l4807 010E                   i2l4489 2FE2                   i2l4497 2F6A  
                 i2l4817 0160                   i2l4809 012A                   i2l4499 2F76  
                 i2l4819 0164                   i2l4771 0020                   i2l4781 005E  
                 i2l4773 0024                   i2l4765 000A                   i2l4791 00BA  
                 i2l4783 006C                   i2l4767 001A                   i2l4775 0026  
                 i2l4793 00BE                   i2l4785 0088                   i2l4777 0034  
                 i2l4769 001C                   i2l4795 00C2                   i2l4787 0096  
                 i2l4779 0042                   i2l4797 00C6                   i2l4789 00AC  
                 i2l4799 00C8         __end_of_backward 32E6                   _TMR1IF 007648  
                 _TMR1ON 007E70         __end_of___xxtofl 213E       __size_of_i2c_write 00C8  
       __end_of_ccp_init 30B0         __end_of_lcd_char 29B6             vfprintf@cfmt 00B3  
       __end_of_lcd_init 34A2     __size_of_lcd_command 00D0                ??_t1_init 0060  
           ?_set_minutes 0001             ?_set_seconds 0001                ??___fladd 0030  
              ??___fldiv 0017                ??_adcNum0 0064                ??___awdiv 0064  
              ??___awmod 006C         __end_of_lcdprint 1D84                ??___fltol 003C  
              ??___lodiv 0070                ??___lomod 0070     __size_of_get_minutes 0024  
   __size_of_get_seconds 0026                   clear_0 3392                   clear_1 339E  
       ___awdiv@quotient 0066          ___awmod@divisor 006A                   _value0 013C  
        ___awmod@counter 006C                   pad@buf 0072                   _us_irs 2426  
                 _strlen 32E6                   fputc@c 0060                   fputs@c 006D  
                 fputs@i 006E                   fputs@s 0069                ??_forward 0062  
       __end_of_reversel 3194         __end_of_reverser 3148             __mediumconst 0000  
       __end_of_rtc_init 2E20                   tblptrh 000FF7                   tblptrl 000FF6  
                 tblptru 000FF8         __end_of_pwm_init 32AA                   putch@c 0001  
       __end_of_vfprintf 2EF6                   utoa@fp 007B                ??_sprintf 00BB  
           ___xxtofl@arg 000B        __end_ofi2_forward 3438             ___xxtofl@exp 000A  
           ___xxtofl@val 0001               __accesstop 0060  __end_of__initialization 33A4  
          ___rparam_used 000001               ___fltol@f1 0038           __pcstackCOMRAM 0001  
          __end_of_fputc 2A82            __end_of_fputs 3228            __end_of_lturn 31E0  
          __end_of_putch 34AE             IRpath1@i_726 00D9            __end_of_rturn 30FC  
             __end_of_go 0805             IRpath1@check 00DB             IRpath1@dist1 00E1  
           IRpath1@dist2 00E3             IRpath1@dist3 00DF        __end_of_i2c_write 2C14  
                ??_fputc 0064                  ??_fputs 006D                  ??_lturn 0060  
                ??_putch 0060                  ??_rturn 0060               __pbssBANK0 00E7  
             __pbssBANK1 0100                ?_i2c_init 0001                ?_i2c_read 0060  
        i2forward@gostop 0001      set_seconds@curr_sec 0070           get_minutes@min 0068  
         get_seconds@sec 0068          lcd_command@temp 0061                  _CCP1CON 000FAB  
              ?_adc_init 0001                  ?_us_irs 0001                  ?_strlen 0060  
              ?_backward 0001                ?___xxtofl 0001                ?_ccp_init 0001  
                _OSCCON1 000ED3                  _OSCCON3 000ED5       __size_of_vfpfcnvrt 0196  
                _OSCTUNE 000ED8                  _PWM3DCH 000FA3                  _PWM3DCL 000FA2  
                _SSP1ADD 000F92                  _SSP1BUF 000F91                ?_lcd_char 0001  
              ?_lcd_init 0001         ___lomod@dividend 0060                  _IRpath1 12EC  
              ?_lcdprint 0001               ??_i2c_init 0060               ??_i2c_read 0061  
                __Hparam 0000                  __Lparam 0000                ?_reversel 0001  
              ?_reverser 0001                  _t1_init 3320                ?_rtc_init 0001  
                ___fladd 0E2C                  ___fldiv 1766                  _adcNum0 3228  
                ___awdiv 2C14                  ___awmod 2CDA                  ___fltol 254C  
                ___lodiv 2652                ?_pwm_init 0001                  ___lomod 2744  
              ?_vfprintf 00AD             __psmallconst 0800     __size_of_set_minutes 0060  
   __size_of_set_seconds 0074                  __pcinit 3388                  __ramtop 0800  
        i2c_read@address 0066               ??_adc_init 0060                  __ptext0 080A  
                __ptext1 3320                  __ptext2 2E20                  __ptext3 2EF6  
                __ptext4 2D8C                  __ptext5 2B4C                  __ptext6 326E  
                __ptext7 3482                  __ptext8 33E4                  __ptext9 3064  
             ??_backward 0060          __size_of_us_irs 0126             __size_of_IRL 005E  
           __size_of_IRR 005E          __size_of_strlen 003A             __size_of_pad 00CA  
                _forward 33B6               ??___xxtofl 0005               ??_ccp_init 0060  
       ___awmod@dividend 0068                _IOCBFbits 000F0D                _IOCBNbits 000F0E  
              _IOCBPbits 000F0F               ??_lcd_char 0060                  main@to3 0188  
                _sprintf 3012                  main@spf 0162               ??_lcd_init 0063  
   end_of_initialization 33A4               ??_lcdprint 00C5                  fputc@fp 0062  
                fputs@fp 006B            lcdprint@array 00CC            lcdprint@temp1 00D0  
          lcdprint@temp2 00CE        __end_of_vfpfcnvrt 22D4               ??_reversel 0060  
             ??_reverser 0060               ??_rtc_init 0067                  postdec2 000FDD  
                postinc0 000FEE                  postinc1 000FE6                  postinc2 000FDE  
             ??_pwm_init 0060               ??_vfprintf 00B3                  strlen@a 0062  
                strlen@s 0060                _PORTAbits 000F8C                _PORTBbits 000F8D  
              _PORTDbits 000F8F              ___fladd@grs 0037            i2c_write@data 0061  
          ___xxtofl@sign 0009                _TRISAbits 000F87                _TRISBbits 000F88  
              _TRISCbits 000F89                _TRISDbits 000F8A                _TRISEbits 000F8B  
            ___fldiv@grs 0022              ___fldiv@rem 001B              rtc_init@sec 006A  
             main@distcc 018E              _CCP2CONbits 000FA7            ??_lcd_command 0060  
             _ultra_dist 3358                i2_forward 340E            ??_get_minutes 0067  
          ??_get_seconds 0067              vfpfcnvrt@ap 009F              vfpfcnvrt@fp 009B  
             lcdprint@d1 00C6               lcdprint@d2 00C7               lcdprint@d3 00C8  
             lcdprint@dd 00CB           __end_of_us_irs 254C           __end_of_strlen 3320  
    start_initialization 3388          ___lodiv@divisor 0068         us_irs@time_taken 0046  
        ___lodiv@counter 0078              __end_of_IRL 3012              __end_of_IRR 2FB4  
            __end_of_pad 2B4C                _i2c_write 2B4C           set_minutes@min 0070  
         set_seconds@sec 0071            IRpath1@distcr 00D5            IRpath1@distlr 00D3  
      __size_of_i2c_init 002A        __size_of_i2c_read 0152               ?i2_forward 0001  
            vfprintf@fmt 00AF              _CCPTMRSbits 000FAD      __end_of_lcd_command 28E6  
    __end_of_get_minutes 3482      __end_of_get_seconds 345E                 ??_us_irs 0042  
               ??_strlen 0062                ___fladd@a 002C                ___fladd@b 0028  
              ___fldiv@a 0013                ___fldiv@b 000F        __size_of_adc_init 000A  
      __size_of_backward 003C            __pcstackBANK0 0060            __pcstackBANK1 0162  
             ?_i2c_write 0060        __size_of___xxtofl 01B4        __size_of_ccp_init 004C  
               ?_IRpath1 0001        __size_of_lcd_char 00D0        __size_of_lcd_init 0020  
      __size_of_lcdprint 0284              ?_ultra_dist 0060                 ?_t1_init 0001  
              __pintcode 0008                 ?___fladd 0028                 ?___fldiv 000F  
               ?_adcNum0 0060                 ?___awdiv 0060                 ?___awmod 0068  
               ?___fltol 0038                 ?___lodiv 0060                 ?___lomod 0060  
      __size_of_reversel 004C        __size_of_reverser 004C        __size_of_rtc_init 0094  
      __size_of_pwm_init 003C        __size_of_vfprintf 0062          ___lomod@divisor 0068  
       IRpath1@turncheck 00DD              __smallconst 0800          ___lomod@counter 0070  
               ?_forward 0060                 IRpath1@i 00D7                 ?_sprintf 00B5  
         __size_of_fputc 00CC                 _T2CLKCON 000FBE           __size_of_fputs 0048  
               _T4CLKCON 000FB8           __size_of_lturn 004C           __size_of_putch 0002  
         __size_of_rturn 004C                 _LATDbits 000F85                 _PIE0bits 000EBD  
            _lcd_command 2816              ??i2_forward 0003                 i2u400_40 18FE  
               i2u400_41 18FA                 i2u401_40 1920                 i2u401_41 191C  
               i2u410_40 1A2C                 i2u402_40 194A                 i2u410_41 1A28  
               i2u402_41 1946                 i2u411_40 1A46                 i2u403_40 196E  
               i2u411_41 1A42                 i2u403_41 196A                 i2u412_40 1A8E  
               i2u404_40 1984                 i2u420_40 2620                 i2u412_41 1A8A  
               i2u404_41 1980                 i2u420_41 261C                 i2u413_40 1ABE  
               i2u405_40 19A2                 i2u421_40 2630                 i2u413_41 1ABA  
               i2u405_41 199E                 i2u421_41 262C                 i2u414_40 1AEC  
               i2u406_40 19C2                 i2u430_40 211C                 i2u422_40 1F9C  
               i2u414_41 1AE8                 i2u406_41 19BE                 i2u430_41 2118  
               i2u422_41 1F98                 i2u407_40 19D4                 i2u415_40 2562  
               i2u431_40 212A                 i2u423_40 1FAA                 i2u407_41 19D0  
               i2u415_41 255E                 i2u431_41 2126                 i2u423_41 1FA6  
               i2u432_40 3420                 i2u360_40 0F1E                 i2u408_40 1A02  
               i2u416_40 2596                 i2u424_40 2006                 i2u440_40 2530  
               i2u432_41 341A                 i2u360_41 0F1A                 i2u408_41 19FE  
               i2u424_41 2002                 i2u440_41 252C                 i2u416_45 258C  
               i2u361_40 0F2C                 i2u353_40 0E46                 i2u409_40 1A18  
               i2u417_40 25C4                 i2u425_40 205C                 i2u441_40 253E  
               i2u361_41 0F28                 i2u353_41 0E42                 i2u409_41 1A14  
               i2u417_41 25C0                 i2u425_41 2058                 i2u441_41 253A  
               i2u433_45 3422                 i2u434_40 3434                 i2u442_40 2FE2  
               i2u370_40 106A                 i2u362_40 0F9A                 i2u354_40 0E58  
               i2u418_40 25D8                 i2u426_40 20A6                 i2u434_41 342E  
               i2u442_41 2FDE                 i2u370_41 1066                 i2u362_41 0F96  
               i2u354_41 0E54                 i2u418_41 25D4                 i2u426_41 20A2  
               i2u443_40 2FF0                 i2u371_40 1078                 i2u363_40 0FB2  
               i2u355_40 0E68                 i2u419_40 2600                 i2u427_40 20C4  
               i2u443_41 2FEC                 i2u371_41 1074                 i2u363_41 0FAC  
               i2u355_41 0E64                 i2u419_41 25FC                 i2u427_41 20C0  
               i2u435_45 3436                 i2u444_40 3000                 i2u380_40 11C2  
               i2u372_40 1096                 i2u364_40 0FB4                 i2u356_40 0EAA  
               i2u428_40 20D4                 i2u436_40 2434                 i2u444_41 2FFC  
               i2u380_41 11BE                 i2u372_41 1092                 i2u356_41 0EA6  
               i2u428_41 20D0                 i2u436_41 2430                 i2u445_40 2F84  
               i2u381_40 11D4                 i2u373_40 10CE                 i2u365_40 0FDC  
               i2u357_40 0EC0                 i2u429_40 20E2                 i2u437_40 2444  
               i2u445_41 2F80                 i2u381_41 11D0                 i2u373_41 10CA  
               i2u365_41 0FD8                 i2u357_41 0EBC                 i2u429_41 20DE  
               i2u437_41 2440                 i2u446_40 2F92                 i2u390_40 12BC  
               i2u382_40 11EA                 i2u374_40 1114                 i2u366_40 0FFA  
               i2u358_40 0ED2                 i2u438_40 24F8                 i2u446_41 2F8E  
               i2u390_41 12B8                 i2u382_41 11E6                 i2u374_41 1110  
               i2u366_41 0FF6                 i2u358_41 0ECE                 i2u438_41 24F4  
               i2u447_40 2FA2                 i2u391_40 12D8                 i2u383_40 1200  
               i2u375_40 114A                 i2u367_40 101A                 i2u359_40 0EE2  
               i2u439_40 2506                 i2u447_41 2F9E                 i2u391_41 12D4  
               i2u383_41 11FC                 i2u375_41 1146                 i2u367_41 1016  
               i2u359_41 0EDE                 i2u439_41 2502                 i2u384_40 1214  
               i2u376_40 115A                 i2u368_40 1028                 i2u392_40 1780  
               i2u480_40 0088                 i2u384_41 1210                 i2u376_41 1156  
               i2u368_41 1024                 i2u392_41 177C                 i2u480_41 0084  
               i2u385_40 122E                 i2u377_40 1186                 i2u369_40 1038  
               i2u393_40 1792                 i2u481_40 0096                 i2u473_40 001A  
               i2u385_41 122A                 i2u377_41 1182                 i2u369_41 1034  
               i2u393_41 178E                 i2u481_41 0092                 i2u473_41 0016  
               i2u386_40 1268                 i2u378_40 1196                 i2u394_40 17A2  
               i2u490_40 012A                 i2u482_40 00AC                 i2u474_40 0034  
               i2u386_41 1264                 i2u378_41 1192                 i2u394_41 179E  
               i2u490_41 0126                 i2u482_41 00A8                 i2u474_41 0030  
               i2u387_40 127A                 i2u379_40 11B2                 i2u395_40 17E6  
               i2u491_40 0138                 i2u483_40 00BA                 i2u475_40 0042  
               i2u387_41 1276                 i2u379_41 11AE                 i2u395_41 17E2  
               i2u491_41 0134                 i2u483_41 00B6                 i2u475_41 003E  
               i2u388_40 128A                 i2u396_40 17F8                 i2u492_40 014E  
               i2u484_40 00D6                 i2u476_40 0050                 i2u388_41 1286  
               i2u396_41 17F4                 i2u492_41 014A                 i2u484_41 00D2  
               i2u476_41 004C                 i2u389_40 12AA                 i2u397_40 1808  
               i2u493_40 015C                 i2u485_40 00E4                 i2u477_40 005E  
               i2u389_41 12A6                 i2u397_41 1804                 i2u493_41 0158  
               i2u485_41 00E0                 i2u477_41 005A                 i2u398_40 1848  
               i2u486_40 00F2                 i2u478_40 006C                 i2u398_41 1844  
               i2u486_41 00EE                 i2u478_41 0068                 i2u399_40 1888  
               i2u487_40 0100                 i2u479_40 007A                 i2u399_41 1884  
               i2u487_41 00FC                 i2u479_41 0076                 i2u488_40 010E  
               i2u488_41 010A                 i2u489_40 011C                 i2u489_41 0118  
            _get_minutes 345E              _get_seconds 3438            ??_set_minutes 006E  
          ??_set_seconds 006E        i2c_read@registers 0060                _vfpfcnvrt 213E  
              lcd_char@x 0062               _ADCON0bits 000F5B                main@i_786 0184  
              main@i_787 0186                main@i_789 018C                main@distc 0180  
              main@distl 0192                main@distr 0194      __size_of_ultra_dist 0030  
            ??_i2c_write 0062                lcdprint@d 00CF                lcdprint@i 00C9  
       __size_of_IRpath1 047A                 _i2c_init 33E4                 _i2c_read 22D4  
               __Hrparam 0000               vfprintf@ap 00B1                 __Lrparam 0000  
             vfprintf@fp 00AD             __Lsmallconst 0800         __size_of_t1_init 0038  
       __size_of___fladd 04C0         __size_of___fldiv 039A         __size_of_adcNum0 0046  
       __size_of___awdiv 00C6         __size_of___awmod 00B2         __size_of___fltol 0106  
       __size_of___lodiv 00F2         __size_of___lomod 00D2               ?_vfpfcnvrt 009B  
               _adc_init 34A2                 _backward 32AA      __end_of_set_minutes 2F56  
    __end_of_set_seconds 2E94               sprintf@fmt 00B7                 ___xxtofl 1F8A  
               _ccp_init 3064         __size_of_forward 002E                 __ptext10 34A2  
               __ptext11 3228                 __ptext20 2E94                 __ptext12 12EC  
               __ptext21 213E                 __ptext13 3358                 __ptext30 2816  
               __ptext22 1D84                 __ptext14 30B0                 __ptext31 28E6  
               __ptext23 2A82                 __ptext15 30FC                 __ptext40 2426  
               __ptext32 3438                 __ptext24 32E6                 __ptext16 3148  
               __ptext41 1F8A                 __ptext33 345E                 __ptext25 31E0  
               __ptext17 3194                 __ptext42 254C                 __ptext34 22D4  
               __ptext26 29B6                 __ptext18 1B00                 __ptext43 1766  
               __ptext35 2CDA                 __ptext27 34AC                 __ptext19 3012  
               __ptext44 0E2C                 __ptext36 2C14                 __ptext28 2744  
               __ptext45 2F56                 __ptext37 33B6                 __ptext29 2652  
               __ptext46 2FB4                 __ptext38 32AA                 __ptext47 340E  
           _SSP1CON1bits 000F95             _SSP1CON2bits 000F96                 _lcd_char 28E6  
               _lcd_init 3482                 _distance 00EF         __size_of_sprintf 0052  
               _lcdprint 1B00            __size_of_echo 0166            __size_of_main 0622  
          __size_of_utoa 0206                 _reversel 3148                 _reverser 30FC  
               _rtc_init 2D8C                 int$flags 0048                 _pwm_init 326E  
               _vfprintf 2E94                rtc_init@i 0068             _SSP1STATbits 000F94  
             _INTCONbits 000FF2              _TMR1CLKbits 000FD1            forward@gostop 0060  
            _PWM3CONbits 000FA4                 intlevel2 0000                sprintf@ap 00BD  
           ??_ultra_dist 0062       i2c_write@registers 0060              _set_minutes 2EF6  
            _set_seconds 2E20              ??_vfpfcnvrt 00A1                 sprintf@f 00BF  
               sprintf@s 00B5               _SSP1DATPPS 000EB3               _SSP1CLKPPS 000EB2  
       i2c_write@address 0062       __end_of_ultra_dist 3388            ___fladd@signs 0034  
           ___fladd@aexp 0035             ___fladd@bexp 0036             ?_lcd_command 0001  
