

Microchip MPLAB XC8 Assembler V2.10 build 88905656 
                                                                                               Wed Dec 02 00:57:53 2020

Microchip MPLAB XC8 C Compiler v2.10 (Free license) build 20190730164152 Og1 
     1                           	processor	18F45Q10
     2                           	fnconf	rparam,??,?,0
     3                           	opt	pw 120
     4                           	opt	flic
     5                           	psect	smallconst,global,reloc=2,class=SMALLCONST,delta=1,noexec
     6                           	psect	cinit,global,reloc=2,class=CODE,delta=1
     7                           	psect	bssCOMRAM,global,class=COMRAM,space=1,delta=1,noexec
     8                           	psect	bssBANK0,global,class=BANK0,space=1,delta=1,lowdata,noexec
     9                           	psect	bssBANK1,global,class=BANK1,space=1,delta=1,lowdata,noexec
    10                           	psect	cstackBANK0,global,class=BANK0,space=1,delta=1,noexec
    11                           	psect	cstackCOMRAM,global,class=COMRAM,space=1,delta=1,noexec
    12                           	psect	text0,global,reloc=2,class=CODE,delta=1
    13                           	psect	text1,global,reloc=2,class=CODE,delta=1
    14                           	psect	text2,global,reloc=2,class=CODE,delta=1
    15                           	psect	text3,global,reloc=2,class=CODE,delta=1
    16                           	psect	text4,global,reloc=2,class=CODE,delta=1
    17                           	psect	text5,global,reloc=2,class=CODE,delta=1
    18                           	psect	text6,global,reloc=2,class=CODE,delta=1
    19                           	psect	text7,global,reloc=2,class=CODE,delta=1
    20                           	psect	text8,global,reloc=2,class=CODE,delta=1
    21                           	psect	text9,global,reloc=2,class=CODE,delta=1
    22                           	psect	text10,global,reloc=2,class=CODE,delta=1
    23                           	psect	text11,global,reloc=2,class=CODE,delta=1
    24                           	psect	text12,global,reloc=2,class=CODE,delta=1
    25                           	psect	text13,global,reloc=2,class=CODE,delta=1
    26                           	psect	text14,global,reloc=2,class=CODE,delta=1
    27                           	psect	text15,global,reloc=2,class=CODE,delta=1
    28                           	psect	text16,global,reloc=2,class=CODE,delta=1
    29                           	psect	text17,global,reloc=2,class=CODE,delta=1
    30                           	psect	text18,global,reloc=2,class=CODE,delta=1
    31                           	psect	text19,global,reloc=2,class=CODE,delta=1,group=2
    32                           	psect	text20,global,reloc=2,class=CODE,delta=1
    33                           	psect	text21,global,reloc=2,class=CODE,delta=1
    34                           	psect	text22,global,reloc=2,class=CODE,delta=1
    35                           	psect	text23,global,reloc=2,class=CODE,delta=1
    36                           	psect	text24,global,reloc=2,class=CODE,delta=1,group=2
    37                           	psect	text25,global,reloc=2,class=CODE,delta=1,group=2
    38                           	psect	text26,global,reloc=2,class=CODE,delta=1,group=2
    39                           	psect	text27,global,reloc=2,class=CODE,delta=1,group=2
    40                           	psect	text28,global,reloc=2,class=CODE,delta=1,group=1
    41                           	psect	text29,global,reloc=2,class=CODE,delta=1,group=1
    42                           	psect	text30,global,reloc=2,class=CODE,delta=1
    43                           	psect	text31,global,reloc=2,class=CODE,delta=1
    44                           	psect	text32,global,reloc=2,class=CODE,delta=1
    45                           	psect	text33,global,reloc=2,class=CODE,delta=1
    46                           	psect	text34,global,reloc=2,class=CODE,delta=1
    47                           	psect	text35,global,reloc=2,class=CODE,delta=1,group=1
    48                           	psect	text36,global,reloc=2,class=CODE,delta=1,group=1
    49                           	psect	text37,global,reloc=2,class=CODE,delta=1
    50                           	psect	text38,global,reloc=2,class=CODE,delta=1
    51                           	psect	intcode,global,reloc=2,class=CODE,delta=1
    52                           	psect	text40,global,reloc=2,class=CODE,delta=1
    53                           	psect	text41,global,reloc=2,class=CODE,delta=1,group=1
    54                           	psect	text42,global,reloc=2,class=CODE,delta=1,group=1
    55                           	psect	text43,global,reloc=2,class=CODE,delta=1,group=1
    56                           	psect	text44,global,reloc=2,class=CODE,delta=1,group=1
    57                           	psect	text45,global,reloc=2,class=CODE,delta=1
    58                           	psect	text46,global,reloc=2,class=CODE,delta=1
    59                           	psect	text47,global,reloc=2,class=CODE,delta=1
    60                           	psect	intsave_regs,global,class=BIGRAM,space=1,delta=1,noexec
    61                           	psect	rparam,global,class=COMRAM,space=1,delta=1,noexec
    62                           	psect	temp,global,ovrld,common,class=COMRAM,space=1,delta=1
    63  0000                     
    64                           ; Version 2.10
    65                           ; Generated 31/07/2019 GMT
    66                           ; 
    67                           ; Copyright © 2019, Microchip Technology Inc. and its subsidiaries ("Microchip")
    68                           ; All rights reserved.
    69                           ; 
    70                           ; This software is developed by Microchip Technology Inc. and its subsidiaries ("Microch
      +                          ip").
    71                           ; 
    72                           ; Redistribution and use in source and binary forms, with or without modification, are
    73                           ; permitted provided that the following conditions are met:
    74                           ; 
    75                           ;     1. Redistributions of source code must retain the above copyright notice, this lis
      +                          t of
    76                           ;        conditions and the following disclaimer.
    77                           ; 
    78                           ;     2. Redistributions in binary form must reproduce the above copyright notice, this 
      +                          list
    79                           ;        of conditions and the following disclaimer in the documentation and/or other
    80                           ;        materials provided with the distribution.
    81                           ; 
    82                           ;     3. Microchip's name may not be used to endorse or promote products derived from th
      +                          is
    83                           ;        software without specific prior written permission.
    84                           ; 
    85                           ; THIS SOFTWARE IS PROVIDED BY MICROCHIP "AS IS" AND ANY EXPRESS OR IMPLIED WARRANTIES,
    86                           ; INCLUDING, BUT NOT LIMITED TO, THE IMPLIED WARRANTIES OF MERCHANTABILITY AND FITNESS F
      +                          OR
    87                           ; PURPOSE ARE DISCLAIMED.  IN NO EVENT SHALL MICROCHIP BE LIABLE FOR ANY DIRECT, INDIREC
      +                          T,
    88                           ; INCIDENTAL, SPECIAL, EXEMPLARY, OR CONSEQUENTIAL DAMAGES (INCLUDING BUT NOT LIMITED TO
    89                           ; PROCUREMENT OF SUBSTITUTE GOODS OR SERVICES; LOSS OF USE, DATA OR PROFITS; OR BUSINESS
    90                           ; INTERRUPTION) HOWSOEVER CAUSED AND ON ANY THEORY OF LIABILITY, WHETHER IN CONTRACT, ST
      +                          RICT
    91                           ; LIABILITY, OR TORT (INCLUDING NEGLIGENCE OR OTHERWISE) ARISING IN ANY WAY OUT OF THE U
      +                          SE OF
    92                           ; THIS SOFTWARE, EVEN IF ADVISED OF THE POSSIBILITY OF SUCH DAMAGE.
    93                           ; 
    94                           ; 
    95                           ; Code-generator required, PIC18F45Q10 Definitions
    96                           ; 
    97                           ; SFR Addresses
    98  0000                     
    99                           	psect	smallconst
   100  000800                     __psmallconst:
   101                           	opt callstack 0
   102  000800  00                 	db	0
   103  000801  0000               	dw	0
   104  000803                     __end_of_stop:
   105                           	opt callstack 0
   106  000803  0001               	dw	1
   107  000805                     __end_of_go:
   108                           	opt callstack 0
   109  0000                     _RC3PPS	set	3829
   110  0000                     _RC4PPS	set	3830
   111  0000                     _SSP1DATPPS	set	3763
   112  0000                     _SSP1CLKPPS	set	3762
   113  0000                     _RC5PPS	set	3831
   114  0000                     _RC6PPS	set	3832
   115  0000                     _PMD3	set	3807
   116  0000                     _PMD1	set	3805
   117  0000                     _OSCTUNE	set	3800
   118  0000                     _OSCEN	set	3799
   119  0000                     _OSCCON3	set	3797
   120  0000                     _RA4PPS	set	3814
   121  0000                     _PMD0	set	3804
   122  0000                     _PIE0bits	set	3773
   123  0000                     _OSCCON1	set	3795
   124  0000                     _TMR1IF	set	30280
   125  0000                     _ADRES	set	3934
   126  0000                     _ADCON0bits	set	3931
   127  0000                     _ADPCH	set	3930
   128  0000                     _ADCON0	set	3931
   129  0000                     _ANSELC	set	3868
   130  0000                     _ANSELB	set	3860
   131  0000                     _IOCANbits	set	3846
   132  0000                     _IOCAFbits	set	3845
   133  0000                     _IOCBNbits	set	3854
   134  0000                     _IOCBFbits	set	3853
   135  0000                     _IOCAF	set	3845
   136  0000                     _IOCAN	set	3846
   137  0000                     _IOCBF	set	3853
   138  0000                     _IOCBN	set	3854
   139  0000                     _IOCBPbits	set	3855
   140  0000                     _TMR1	set	4044
   141  0000                     _PORTD	set	3983
   142  0000                     _TRISDbits	set	3978
   143  0000                     _SSP1STATbits	set	3988
   144  0000                     _SSP1BUF	set	3985
   145  0000                     _SSP1CON2bits	set	3990
   146  0000                     _SSP1CON1bits	set	3989
   147  0000                     _SSP1ADD	set	3986
   148  0000                     _TRISBbits	set	3976
   149  0000                     _TRISAbits	set	3975
   150  0000                     _TRISCbits	set	3977
   151  0000                     _TRISEbits	set	3979
   152  0000                     _LATBbits	set	3971
   153  0000                     _PWM3CONbits	set	4004
   154  0000                     _PWM3DCL	set	4002
   155  0000                     _PWM3DCH	set	4003
   156  0000                     _CCP2CONbits	set	4007
   157  0000                     _T4CON	set	4022
   158  0000                     _T4TMR	set	4020
   159  0000                     _T4PR	set	4021
   160  0000                     _T4RST	set	4025
   161  0000                     _T4HLT	set	4023
   162  0000                     _T4CLKCON	set	4024
   163  0000                     _CCP1CON	set	4011
   164  0000                     _T2CON	set	4028
   165  0000                     _T2TMR	set	4026
   166  0000                     _T2PR	set	4027
   167  0000                     _T2RST	set	4031
   168  0000                     _T2HLT	set	4029
   169  0000                     _T2CLKCON	set	4030
   170  0000                     _CCPTMRSbits	set	4013
   171  0000                     _PORTBbits	set	3981
   172  0000                     _CCPR2L	set	4005
   173  0000                     _CCPR2H	set	4006
   174  0000                     _CCPR1L	set	4009
   175  0000                     _CCPR1H	set	4010
   176  0000                     _PORTAbits	set	3980
   177  0000                     _TMR1H	set	4045
   178  0000                     _TMR1L	set	4044
   179  0000                     _INTCONbits	set	4082
   180  0000                     _TMR1CLKbits	set	4049
   181  0000                     _T1CON	set	4046
   182  0000                     _RC1	set	31857
   183  0000                     _RC0	set	31856
   184  0000                     _RC2	set	31858
   185  0000                     _RE0	set	31872
   186  0000                     _TMR1ON	set	32368
   187  0000                     _RB2	set	31850
   188  0000                     _RB1	set	31849
   189  000805                     STR_1:
   190  000805  25                 	db	37
   191  000806  75                 	db	117	;'u'
   192  000807  00                 	db	0
   193  0000                     
   194                           ; #config settings
   195  000808  00                 	db	0	; dummy byte at the end
   196  0000                     
   197                           	psect	cinit
   198  003208                     __pcinit:
   199                           	opt callstack 0
   200  003208                     start_initialization:
   201                           	opt callstack 0
   202  003208                     __initialization:
   203                           	opt callstack 0
   204                           
   205                           ; NVMREG Errata
   206  003208                     	if	3968
   207  003208  8E80               	bsf	128,7,c
   208  00320A  9C80               	bcf	128,6,c
   209  00320C                     	endif
   210                           
   211                           ; Clear objects allocated to BANK1 (92 bytes)
   212  00320C  EE01  F000         	lfsr	0,__pbssBANK1
   213  003210  0E5C               	movlw	92
   214  003212                     clear_0:
   215  003212  6AEE               	clrf	postinc0,c
   216  003214  06E8               	decf	wreg,f,c
   217  003216  E1FD               	bnz	clear_0
   218                           
   219                           ; Clear objects allocated to BANK0 (8 bytes)
   220  003218  EE00  F0F7         	lfsr	0,__pbssBANK0
   221  00321C  0E08               	movlw	8
   222  00321E                     clear_1:
   223  00321E  6AEE               	clrf	postinc0,c
   224  003220  06E8               	decf	wreg,f,c
   225  003222  E1FD               	bnz	clear_1
   226                           
   227                           ; Clear objects allocated to COMRAM (8 bytes)
   228  003224  EE00  F048         	lfsr	0,__pbssCOMRAM
   229  003228  0E08               	movlw	8
   230  00322A                     clear_2:
   231  00322A  6AEE               	clrf	postinc0,c
   232  00322C  06E8               	decf	wreg,f,c
   233  00322E  E1FD               	bnz	clear_2
   234  003230                     end_of_initialization:
   235                           	opt callstack 0
   236  003230                     __end_of__initialization:
   237                           	opt callstack 0
   238  003230  9050               	bcf	int$flags,0,c	;clear compiler interrupt flag (level 1)
   239  003232  9250               	bcf	int$flags,1,c	;clear compiler interrupt flag (level 2)
   240  003234  0E00               	movlw	low (__Lsmallconst shr (0+16))
   241  003236  6EF8               	movwf	tblptru,c
   242  003238  0E08               	movlw	high __Lsmallconst
   243  00323A  6EF7               	movwf	tblptrh,c
   244  00323C  0100               	movlb	0
   245  00323E  EF65  F006         	goto	_main	;jump to C main() function
   246                           
   247                           	psect	bssCOMRAM
   248  000048                     __pbssCOMRAM:
   249                           	opt callstack 0
   250  000048                     _value0:
   251                           	opt callstack 0
   252  000048                     	ds	4
   253  00004C                     _nout:
   254                           	opt callstack 0
   255  00004C                     	ds	2
   256  00004E                     _width:
   257                           	opt callstack 0
   258  00004E                     	ds	2
   259                           
   260                           	psect	bssBANK0
   261  0000F7                     __pbssBANK0:
   262                           	opt callstack 0
   263  0000F7                     _prec:
   264                           	opt callstack 0
   265  0000F7                     	ds	2
   266  0000F9                     _flags:
   267                           	opt callstack 0
   268  0000F9                     	ds	2
   269  0000FB                     _index:
   270                           	opt callstack 0
   271  0000FB                     	ds	2
   272  0000FD                     _distance:
   273                           	opt callstack 0
   274  0000FD                     	ds	2
   275                           
   276                           	psect	bssBANK1
   277  000100                     __pbssBANK1:
   278                           	opt callstack 0
   279  000100                     _maze:
   280                           	opt callstack 0
   281  000100                     	ds	60
   282  00013C                     _dbuf:
   283                           	opt callstack 0
   284  00013C                     	ds	32
   285                           
   286                           	psect	cstackBANK0
   287  000060                     __pcstackBANK0:
   288                           	opt callstack 0
   289  000060                     ??_lcd_command:
   290  000060                     ??_lcd_char:
   291  000060                     ??_lturn:
   292  000060                     ??_backward:
   293  000060                     ??_reverser:
   294  000060                     ??_reversel:
   295  000060                     ??_rturn:
   296  000060                     ?_strlen:
   297                           	opt callstack 0
   298  000060                     ?_ultra_dist:
   299                           	opt callstack 0
   300  000060                     ?___awdiv:
   301                           	opt callstack 0
   302  000060                     ?_adcNum0:
   303                           	opt callstack 0
   304  000060                     ?___lodiv:
   305                           	opt callstack 0
   306  000060                     ?___lomod:
   307                           	opt callstack 0
   308  000060                     i2c_read@registers:
   309                           	opt callstack 0
   310  000060                     i2c_write@registers:
   311                           	opt callstack 0
   312  000060                     forward@gostop:
   313                           	opt callstack 0
   314  000060                     ___awdiv@dividend:
   315                           	opt callstack 0
   316  000060                     fputc@c:
   317                           	opt callstack 0
   318  000060                     strlen@s:
   319                           	opt callstack 0
   320  000060                     ___lodiv@dividend:
   321                           	opt callstack 0
   322  000060                     ___lomod@dividend:
   323                           	opt callstack 0
   324                           
   325                           ; 8 bytes @ 0x0
   326  000060                     	ds	1
   327  000061                     i2c_write@data:
   328                           	opt callstack 0
   329  000061                     lcd_command@temp:
   330                           	opt callstack 0
   331  000061                     lcd_char@temp:
   332                           	opt callstack 0
   333  000061                     i2c_read@num:
   334                           	opt callstack 0
   335                           
   336                           ; 4 bytes @ 0x1
   337  000061                     	ds	1
   338  000062                     ??_ultra_dist:
   339  000062                     i2c_write@address:
   340                           	opt callstack 0
   341  000062                     lcd_command@x:
   342                           	opt callstack 0
   343  000062                     lcd_char@x:
   344                           	opt callstack 0
   345  000062                     ___awdiv@divisor:
   346                           	opt callstack 0
   347  000062                     fputc@fp:
   348                           	opt callstack 0
   349  000062                     strlen@a:
   350                           	opt callstack 0
   351                           
   352                           ; 2 bytes @ 0x2
   353  000062                     	ds	1
   354  000063                     
   355                           ; 1 bytes @ 0x3
   356  000063                     	ds	1
   357  000064                     ??_adcNum0:
   358  000064                     ??_fputc:
   359  000064                     ___awdiv@counter:
   360                           	opt callstack 0
   361                           
   362                           ; 1 bytes @ 0x4
   363  000064                     	ds	1
   364  000065                     i2c_read@read:
   365                           	opt callstack 0
   366  000065                     ___awdiv@sign:
   367                           	opt callstack 0
   368                           
   369                           ; 1 bytes @ 0x5
   370  000065                     	ds	1
   371  000066                     i2c_read@address:
   372                           	opt callstack 0
   373  000066                     ___awdiv@quotient:
   374                           	opt callstack 0
   375                           
   376                           ; 2 bytes @ 0x6
   377  000066                     	ds	1
   378  000067                     ??_get_minutes:
   379  000067                     ??_get_seconds:
   380  000067                     ??_rtc_init:
   381                           
   382                           ; 1 bytes @ 0x7
   383  000067                     	ds	1
   384  000068                     ?___awmod:
   385                           	opt callstack 0
   386  000068                     get_seconds@sec:
   387                           	opt callstack 0
   388  000068                     get_minutes@min:
   389                           	opt callstack 0
   390  000068                     rtc_init@i:
   391                           	opt callstack 0
   392  000068                     ___awmod@dividend:
   393                           	opt callstack 0
   394  000068                     ___lodiv@divisor:
   395                           	opt callstack 0
   396  000068                     ___lomod@divisor:
   397                           	opt callstack 0
   398                           
   399                           ; 8 bytes @ 0x8
   400  000068                     	ds	1
   401  000069                     fputs@s:
   402                           	opt callstack 0
   403                           
   404                           ; 2 bytes @ 0x9
   405  000069                     	ds	1
   406  00006A                     rtc_init@sec:
   407                           	opt callstack 0
   408  00006A                     ___awmod@divisor:
   409                           	opt callstack 0
   410                           
   411                           ; 2 bytes @ 0xA
   412  00006A                     	ds	1
   413  00006B                     rtc_init@hour:
   414                           	opt callstack 0
   415  00006B                     fputs@fp:
   416                           	opt callstack 0
   417                           
   418                           ; 2 bytes @ 0xB
   419  00006B                     	ds	1
   420  00006C                     ___awmod@counter:
   421                           	opt callstack 0
   422                           
   423                           ; 1 bytes @ 0xC
   424  00006C                     	ds	1
   425  00006D                     ___awmod@sign:
   426                           	opt callstack 0
   427  00006D                     fputs@c:
   428                           	opt callstack 0
   429                           
   430                           ; 1 bytes @ 0xD
   431  00006D                     	ds	1
   432  00006E                     ??_set_minutes:
   433  00006E                     ??_set_seconds:
   434  00006E                     fputs@i:
   435                           	opt callstack 0
   436                           
   437                           ; 2 bytes @ 0xE
   438  00006E                     	ds	2
   439  000070                     ?_pad:
   440                           	opt callstack 0
   441  000070                     set_seconds@curr_sec:
   442                           	opt callstack 0
   443  000070                     set_minutes@min:
   444                           	opt callstack 0
   445  000070                     ___lomod@counter:
   446                           	opt callstack 0
   447  000070                     pad@fp:
   448                           	opt callstack 0
   449  000070                     ___lodiv@quotient:
   450                           	opt callstack 0
   451                           
   452                           ; 8 bytes @ 0x10
   453  000070                     	ds	1
   454  000071                     set_seconds@sec:
   455                           	opt callstack 0
   456                           
   457                           ; 1 bytes @ 0x11
   458  000071                     	ds	1
   459  000072                     pad@buf:
   460                           	opt callstack 0
   461                           
   462                           ; 2 bytes @ 0x12
   463  000072                     	ds	2
   464  000074                     pad@p:
   465                           	opt callstack 0
   466                           
   467                           ; 2 bytes @ 0x14
   468  000074                     	ds	2
   469  000076                     ??_pad:
   470                           
   471                           ; 1 bytes @ 0x16
   472  000076                     	ds	1
   473  000077                     pad@i:
   474                           	opt callstack 0
   475                           
   476                           ; 2 bytes @ 0x17
   477  000077                     	ds	1
   478  000078                     ___lodiv@counter:
   479                           	opt callstack 0
   480                           
   481                           ; 1 bytes @ 0x18
   482  000078                     	ds	1
   483  000079                     pad@w:
   484                           	opt callstack 0
   485                           
   486                           ; 2 bytes @ 0x19
   487  000079                     	ds	2
   488  00007B                     ?_utoa:
   489                           	opt callstack 0
   490  00007B                     utoa@fp:
   491                           	opt callstack 0
   492                           
   493                           ; 2 bytes @ 0x1B
   494  00007B                     	ds	2
   495  00007D                     utoa@d:
   496                           	opt callstack 0
   497                           
   498                           ; 8 bytes @ 0x1D
   499  00007D                     	ds	8
   500  000085                     ??_utoa:
   501                           
   502                           ; 1 bytes @ 0x25
   503  000085                     	ds	8
   504  00008D                     utoa@p:
   505                           	opt callstack 0
   506                           
   507                           ; 2 bytes @ 0x2D
   508  00008D                     	ds	2
   509  00008F                     utoa@w:
   510                           	opt callstack 0
   511                           
   512                           ; 2 bytes @ 0x2F
   513  00008F                     	ds	2
   514  000091                     utoa@n:
   515                           	opt callstack 0
   516                           
   517                           ; 8 bytes @ 0x31
   518  000091                     	ds	8
   519  000099                     utoa@i:
   520                           	opt callstack 0
   521                           
   522                           ; 2 bytes @ 0x39
   523  000099                     	ds	2
   524  00009B                     ?_vfpfcnvrt:
   525                           	opt callstack 0
   526  00009B                     vfpfcnvrt@fp:
   527                           	opt callstack 0
   528                           
   529                           ; 2 bytes @ 0x3B
   530  00009B                     	ds	2
   531  00009D                     vfpfcnvrt@fmt:
   532                           	opt callstack 0
   533                           
   534                           ; 2 bytes @ 0x3D
   535  00009D                     	ds	2
   536  00009F                     vfpfcnvrt@ap:
   537                           	opt callstack 0
   538                           
   539                           ; 2 bytes @ 0x3F
   540  00009F                     	ds	2
   541  0000A1                     ??_vfpfcnvrt:
   542                           
   543                           ; 1 bytes @ 0x41
   544  0000A1                     	ds	4
   545  0000A5                     vfpfcnvrt@llu:
   546                           	opt callstack 0
   547                           
   548                           ; 8 bytes @ 0x45
   549  0000A5                     	ds	8
   550  0000AD                     ?_vfprintf:
   551                           	opt callstack 0
   552  0000AD                     vfprintf@fp:
   553                           	opt callstack 0
   554                           
   555                           ; 2 bytes @ 0x4D
   556  0000AD                     	ds	2
   557  0000AF                     vfprintf@fmt:
   558                           	opt callstack 0
   559                           
   560                           ; 2 bytes @ 0x4F
   561  0000AF                     	ds	2
   562  0000B1                     vfprintf@ap:
   563                           	opt callstack 0
   564                           
   565                           ; 2 bytes @ 0x51
   566  0000B1                     	ds	2
   567  0000B3                     vfprintf@cfmt:
   568                           	opt callstack 0
   569                           
   570                           ; 2 bytes @ 0x53
   571  0000B3                     	ds	2
   572  0000B5                     ?_sprintf:
   573                           	opt callstack 0
   574  0000B5                     sprintf@s:
   575                           	opt callstack 0
   576                           
   577                           ; 2 bytes @ 0x55
   578  0000B5                     	ds	2
   579  0000B7                     sprintf@fmt:
   580                           	opt callstack 0
   581                           
   582                           ; 2 bytes @ 0x57
   583  0000B7                     	ds	4
   584  0000BB                     
   585                           ; 1 bytes @ 0x5B
   586  0000BB                     	ds	2
   587  0000BD                     sprintf@ap:
   588                           	opt callstack 0
   589                           
   590                           ; 2 bytes @ 0x5D
   591  0000BD                     	ds	2
   592  0000BF                     sprintf@f:
   593                           	opt callstack 0
   594                           
   595                           ; 6 bytes @ 0x5F
   596  0000BF                     	ds	6
   597  0000C5                     ??_lcdprint:
   598                           
   599                           ; 1 bytes @ 0x65
   600  0000C5                     	ds	1
   601  0000C6                     lcdprint@d1:
   602                           	opt callstack 0
   603                           
   604                           ; 1 bytes @ 0x66
   605  0000C6                     	ds	1
   606  0000C7                     lcdprint@d2:
   607                           	opt callstack 0
   608                           
   609                           ; 1 bytes @ 0x67
   610  0000C7                     	ds	1
   611  0000C8                     lcdprint@d3:
   612                           	opt callstack 0
   613                           
   614                           ; 1 bytes @ 0x68
   615  0000C8                     	ds	1
   616  0000C9                     lcdprint@i:
   617                           	opt callstack 0
   618                           
   619                           ; 2 bytes @ 0x69
   620  0000C9                     	ds	2
   621  0000CB                     lcdprint@dd:
   622                           	opt callstack 0
   623                           
   624                           ; 1 bytes @ 0x6B
   625  0000CB                     	ds	1
   626  0000CC                     lcdprint@array:
   627                           	opt callstack 0
   628                           
   629                           ; 2 bytes @ 0x6C
   630  0000CC                     	ds	2
   631  0000CE                     lcdprint@temp2:
   632                           	opt callstack 0
   633                           
   634                           ; 1 bytes @ 0x6E
   635  0000CE                     	ds	1
   636  0000CF                     lcdprint@d:
   637                           	opt callstack 0
   638                           
   639                           ; 1 bytes @ 0x6F
   640  0000CF                     	ds	1
   641  0000D0                     lcdprint@temp1:
   642                           	opt callstack 0
   643                           
   644                           ; 1 bytes @ 0x70
   645  0000D0                     	ds	1
   646  0000D1                     ??_IRpath1:
   647                           
   648                           ; 1 bytes @ 0x71
   649  0000D1                     	ds	2
   650  0000D3                     IRpath1@distlr:
   651                           	opt callstack 0
   652                           
   653                           ; 2 bytes @ 0x73
   654  0000D3                     	ds	2
   655  0000D5                     IRpath1@distcr:
   656                           	opt callstack 0
   657                           
   658                           ; 2 bytes @ 0x75
   659  0000D5                     	ds	2
   660  0000D7                     IRpath1@i:
   661                           	opt callstack 0
   662                           
   663                           ; 2 bytes @ 0x77
   664  0000D7                     	ds	2
   665  0000D9                     IRpath1@i_736:
   666                           	opt callstack 0
   667                           
   668                           ; 2 bytes @ 0x79
   669  0000D9                     	ds	2
   670  0000DB                     IRpath1@check:
   671                           	opt callstack 0
   672                           
   673                           ; 2 bytes @ 0x7B
   674  0000DB                     	ds	2
   675  0000DD                     IRpath1@turncheck:
   676                           	opt callstack 0
   677                           
   678                           ; 2 bytes @ 0x7D
   679  0000DD                     	ds	2
   680  0000DF                     IRpath1@dist3:
   681                           	opt callstack 0
   682                           
   683                           ; 2 bytes @ 0x7F
   684  0000DF                     	ds	2
   685  0000E1                     IRpath1@dist1:
   686                           	opt callstack 0
   687                           
   688                           ; 2 bytes @ 0x81
   689  0000E1                     	ds	2
   690  0000E3                     IRpath1@dist2:
   691                           	opt callstack 0
   692                           
   693                           ; 2 bytes @ 0x83
   694  0000E3                     	ds	2
   695  0000E5                     ??_main:
   696                           
   697                           ; 1 bytes @ 0x85
   698  0000E5                     	ds	2
   699  0000E7                     main@distc:
   700                           	opt callstack 0
   701                           
   702                           ; 2 bytes @ 0x87
   703  0000E7                     	ds	4
   704  0000EB                     main@i_778:
   705                           	opt callstack 0
   706                           
   707                           ; 2 bytes @ 0x8B
   708  0000EB                     	ds	2
   709  0000ED                     main@i_779:
   710                           	opt callstack 0
   711                           
   712                           ; 2 bytes @ 0x8D
   713  0000ED                     	ds	2
   714  0000EF                     main@i:
   715                           	opt callstack 0
   716                           
   717                           ; 2 bytes @ 0x8F
   718  0000EF                     	ds	2
   719  0000F1                     main@distcc:
   720                           	opt callstack 0
   721                           
   722                           ; 2 bytes @ 0x91
   723  0000F1                     	ds	2
   724  0000F3                     main@distl:
   725                           	opt callstack 0
   726                           
   727                           ; 2 bytes @ 0x93
   728  0000F3                     	ds	2
   729  0000F5                     main@distr:
   730                           	opt callstack 0
   731                           
   732                           ; 2 bytes @ 0x95
   733  0000F5                     	ds	2
   734                           
   735                           	psect	cstackCOMRAM
   736  000001                     __pcstackCOMRAM:
   737                           	opt callstack 0
   738  000001                     ?___xxtofl:
   739                           	opt callstack 0
   740  000001                     i2forward@gostop:
   741                           	opt callstack 0
   742  000001                     ___xxtofl@val:
   743                           	opt callstack 0
   744                           
   745                           ; 4 bytes @ 0x0
   746  000001                     	ds	2
   747  000003                     
   748                           ; 1 bytes @ 0x2
   749  000003                     	ds	2
   750  000005                     ??___xxtofl:
   751                           
   752                           ; 1 bytes @ 0x4
   753  000005                     	ds	4
   754  000009                     ___xxtofl@sign:
   755                           	opt callstack 0
   756                           
   757                           ; 1 bytes @ 0x8
   758  000009                     	ds	1
   759  00000A                     ___xxtofl@exp:
   760                           	opt callstack 0
   761                           
   762                           ; 1 bytes @ 0x9
   763  00000A                     	ds	1
   764  00000B                     ___xxtofl@arg:
   765                           	opt callstack 0
   766                           
   767                           ; 4 bytes @ 0xA
   768  00000B                     	ds	4
   769  00000F                     ?___fldiv:
   770                           	opt callstack 0
   771  00000F                     ___fldiv@b:
   772                           	opt callstack 0
   773                           
   774                           ; 4 bytes @ 0xE
   775  00000F                     	ds	4
   776  000013                     ___fldiv@a:
   777                           	opt callstack 0
   778                           
   779                           ; 4 bytes @ 0x12
   780  000013                     	ds	4
   781  000017                     ??___fldiv:
   782                           
   783                           ; 1 bytes @ 0x16
   784  000017                     	ds	4
   785  00001B                     ___fldiv@rem:
   786                           	opt callstack 0
   787                           
   788                           ; 4 bytes @ 0x1A
   789  00001B                     	ds	4
   790  00001F                     ___fldiv@sign:
   791                           	opt callstack 0
   792                           
   793                           ; 1 bytes @ 0x1E
   794  00001F                     	ds	1
   795  000020                     ___fldiv@new_exp:
   796                           	opt callstack 0
   797                           
   798                           ; 2 bytes @ 0x1F
   799  000020                     	ds	2
   800  000022                     ___fldiv@grs:
   801                           	opt callstack 0
   802                           
   803                           ; 4 bytes @ 0x21
   804  000022                     	ds	4
   805  000026                     ___fldiv@bexp:
   806                           	opt callstack 0
   807                           
   808                           ; 1 bytes @ 0x25
   809  000026                     	ds	1
   810  000027                     ___fldiv@aexp:
   811                           	opt callstack 0
   812                           
   813                           ; 1 bytes @ 0x26
   814  000027                     	ds	1
   815  000028                     ?___fladd:
   816                           	opt callstack 0
   817  000028                     ___fladd@b:
   818                           	opt callstack 0
   819                           
   820                           ; 4 bytes @ 0x27
   821  000028                     	ds	4
   822  00002C                     ___fladd@a:
   823                           	opt callstack 0
   824                           
   825                           ; 4 bytes @ 0x2B
   826  00002C                     	ds	4
   827  000030                     ??___fladd:
   828                           
   829                           ; 1 bytes @ 0x2F
   830  000030                     	ds	4
   831  000034                     ___fladd@signs:
   832                           	opt callstack 0
   833                           
   834                           ; 1 bytes @ 0x33
   835  000034                     	ds	1
   836  000035                     ___fladd@aexp:
   837                           	opt callstack 0
   838                           
   839                           ; 1 bytes @ 0x34
   840  000035                     	ds	1
   841  000036                     ___fladd@bexp:
   842                           	opt callstack 0
   843                           
   844                           ; 1 bytes @ 0x35
   845  000036                     	ds	1
   846  000037                     ___fladd@grs:
   847                           	opt callstack 0
   848                           
   849                           ; 1 bytes @ 0x36
   850  000037                     	ds	1
   851  000038                     ?___fltol:
   852                           	opt callstack 0
   853  000038                     ___fltol@f1:
   854                           	opt callstack 0
   855                           
   856                           ; 4 bytes @ 0x37
   857  000038                     	ds	4
   858  00003C                     ??___fltol:
   859                           
   860                           ; 1 bytes @ 0x3B
   861  00003C                     	ds	4
   862  000040                     ___fltol@sign1:
   863                           	opt callstack 0
   864                           
   865                           ; 1 bytes @ 0x3F
   866  000040                     	ds	1
   867  000041                     ___fltol@exp1:
   868                           	opt callstack 0
   869                           
   870                           ; 1 bytes @ 0x40
   871  000041                     	ds	1
   872  000042                     ??_us_irs:
   873                           
   874                           ; 1 bytes @ 0x41
   875  000042                     	ds	4
   876  000046                     us_irs@time_taken:
   877                           	opt callstack 0
   878                           
   879                           ; 2 bytes @ 0x45
   880  000046                     	ds	2
   881  000048                     
   882                           ; 1 bytes @ 0x47
   883 ;;
   884 ;;Main: autosize = 0, tempsize = 2, incstack = 0, save=0
   885 ;;
   886 ;; *************** function _main *****************
   887 ;; Defined at:
   888 ;;		line 495 in file "senior_main.c"
   889 ;; Parameters:    Size  Location     Type
   890 ;;		None
   891 ;; Auto vars:     Size  Location     Type
   892 ;;  i               2  141[BANK0 ] int 
   893 ;;  i               2  139[BANK0 ] int 
   894 ;;  distc           2  135[BANK0 ] int 
   895 ;;  i               2  143[BANK0 ] int 
   896 ;;  distr           2  149[BANK0 ] int 
   897 ;;  distl           2  147[BANK0 ] int 
   898 ;;  distcc          2  145[BANK0 ] int 
   899 ;;  time            2    0        int 
   900 ;; Return value:  Size  Location     Type
   901 ;;                  1    wreg      void 
   902 ;; Registers used:
   903 ;;		wreg, fsr1l, fsr1h, fsr2l, fsr2h, status,2, status,0, tblptrl, tblptrh, tblptru, prodl, prodh, cstack
   904 ;; Tracked objects:
   905 ;;		On entry : 0/0
   906 ;;		On exit  : 0/0
   907 ;;		Unchanged: 0/0
   908 ;; Data sizes:     COMRAM   BANK0   BANK1   BANK2   BANK3   BANK4   BANK5   BANK6   BANK7
   909 ;;      Params:         0       0       0       0       0       0       0       0       0
   910 ;;      Locals:         0      16       0       0       0       0       0       0       0
   911 ;;      Temps:          0       2       0       0       0       0       0       0       0
   912 ;;      Totals:         0      18       0       0       0       0       0       0       0
   913 ;;Total ram usage:       18 bytes
   914 ;; Hardware stack levels required when called:   13
   915 ;; This function calls:
   916 ;;		_IRpath1
   917 ;;		_adcNum0
   918 ;;		_adc_init
   919 ;;		_backward
   920 ;;		_ccp_init
   921 ;;		_forward
   922 ;;		_i2c_init
   923 ;;		_lcd_init
   924 ;;		_lcdprint
   925 ;;		_lturn
   926 ;;		_pwm_init
   927 ;;		_reversel
   928 ;;		_reverser
   929 ;;		_rtc_init
   930 ;;		_rturn
   931 ;;		_set_minutes
   932 ;;		_set_seconds
   933 ;;		_t1_init
   934 ;;		_ultra_dist
   935 ;; This function is called by:
   936 ;;		Startup code after reset
   937 ;; This function uses a non-reentrant model
   938 ;;
   939                           
   940                           	psect	text0
   941  000CCA                     __ptext0:
   942                           	opt callstack 0
   943  000CCA                     _main:
   944                           	opt callstack 18
   945  000CCA                     
   946                           ;senior_main.c: 497:     TRISBbits.TRISB3 = 0;
   947  000CCA  ECCC  F019         	call	_adc_init	;wreg free
   948  000CCE                     
   949                           ;senior_main.c: 498:     ANSELB = 0x0;
   950  000CCE  ECBC  F019         	call	_lcd_init	;wreg free
   951  000CD2                     
   952                           ;senior_main.c: 499: 
   953  000CD2  EC6D  F019         	call	_i2c_init	;wreg free
   954                           
   955                           ;senior_main.c: 500: 
   956  000CD6  EC07  F016         	call	_rtc_init	;wreg free
   957  000CDA                     
   958                           ;senior_main.c: 501:     for(int i=0; i<30; i++){
   959  000CDA  ECA8  F018         	call	_t1_init	;wreg free
   960  000CDE                     
   961                           ;senior_main.c: 502:         maze[i]=0;
   962  000CDE  ECC8  F018         	call	_pwm_init	;wreg free
   963  000CE2                     
   964                           ;senior_main.c: 503:     }
   965  000CE2  ECA3  F017         	call	_ccp_init	;wreg free
   966  000CE6                     
   967                           ;senior_main.c: 506:     int time = 0;
   968  000CE6  908B               	bcf	139,0,c	;volatile
   969  000CE8                     
   970                           ;senior_main.c: 507:     set_minutes(time);
   971  000CE8  9489               	bcf	137,2,c	;volatile
   972  000CEA                     
   973                           ;senior_main.c: 508: 
   974  000CEA  9089               	bcf	137,0,c	;volatile
   975  000CEC                     
   976                           ;senior_main.c: 509:     set_seconds(time);
   977  000CEC  9289               	bcf	137,1,c	;volatile
   978  000CEE                     
   979                           ;senior_main.c: 512:     int distr;
   980  000CEE  9287               	bcf	135,1,c	;volatile
   981  000CF0                     
   982                           ;senior_main.c: 513:     int distcc;
   983  000CF0  8888               	bsf	136,4,c	;volatile
   984  000CF2                     
   985                           ;senior_main.c: 514: 
   986  000CF2  8A88               	bsf	136,5,c	;volatile
   987  000CF4                     
   988                           ;senior_main.c: 515: 
   989  000CF4  8687               	bsf	135,3,c	;volatile
   990  000CF6                     
   991                           ;senior_main.c: 516:     while(1){
   992  000CF6  8487               	bsf	135,2,c	;volatile
   993  000CF8                     
   994                           ;senior_main.c: 519: 
   995  000CF8  9887               	bcf	135,4,c	;volatile
   996  000CFA                     
   997                           ;senior_main.c: 520:         if(value0<716){
   998  000CFA  9C89               	bcf	137,6,c	;volatile
   999  000CFC                     
  1000                           ;senior_main.c: 521:             PORTAbits.RA1 = 0;
  1001  000CFC  9A89               	bcf	137,5,c	;volatile
  1002  000CFE                     
  1003                           ;senior_main.c: 524: 
  1004  000CFE  9088               	bcf	136,0,c	;volatile
  1005  000D00                     
  1006                           ;senior_main.c: 525:             IOCBNbits.IOCBN4 = 0;
  1007  000D00  9288               	bcf	136,1,c	;volatile
  1008  000D02                     
  1009                           ;senior_main.c: 526:             IOCBNbits.IOCBN5 = 0;
  1010  000D02  8488               	bsf	136,2,c	;volatile
  1011  000D04                     
  1012                           ;senior_main.c: 527:             IOCANbits.IOCAN2 = 0;
  1013  000D04  9688               	bcf	136,3,c	;volatile
  1014  000D06                     
  1015                           ;senior_main.c: 528:             IOCANbits.IOCAN3 = 0;
  1016  000D06  0E00               	movlw	0
  1017  000D08  010F               	movlb	15	; () banked
  1018  000D0A  6F14               	movwf	20,b	;volatile
  1019  000D0C                     
  1020                           ; BSR set to: 15
  1021                           ;senior_main.c: 531:             IOCBNbits.IOCBN5 = 1;
  1022  000D0C  0E00               	movlw	0
  1023  000D0E  0100               	movlb	0	; () banked
  1024  000D10  6FF0               	movwf	(main@i+1)& (0+255),b
  1025  000D12  0E00               	movlw	0
  1026  000D14  6FEF               	movwf	main@i& (0+255),b
  1027  000D16                     l4658:
  1028                           
  1029                           ; BSR set to: 0
  1030                           ;senior_main.c: 532:             IOCANbits.IOCAN2 = 1;
  1031  000D16  90D8               	bcf	status,0,c
  1032  000D18  35EF               	rlcf	main@i& (0+255),w,b
  1033  000D1A  6ED9               	movwf	fsr2l,c
  1034  000D1C  35F0               	rlcf	(main@i+1)& (0+255),w,b
  1035  000D1E  6EDA               	movwf	fsr2h,c
  1036  000D20  0E00               	movlw	low _maze
  1037  000D22  26D9               	addwf	fsr2l,f,c
  1038  000D24  0E01               	movlw	high _maze
  1039  000D26  22DA               	addwfc	fsr2h,f,c
  1040  000D28  0E00               	movlw	0
  1041  000D2A  6EDE               	movwf	postinc2,c
  1042  000D2C  0E00               	movlw	0
  1043  000D2E  6EDD               	movwf	postdec2,c
  1044  000D30                     
  1045                           ; BSR set to: 0
  1046                           ;senior_main.c: 533:             IOCANbits.IOCAN3 = 1;
  1047  000D30  4BEF               	infsnz	main@i& (0+255),f,b
  1048  000D32  2BF0               	incf	(main@i+1)& (0+255),f,b
  1049  000D34                     
  1050                           ; BSR set to: 0
  1051  000D34  BFF0               	btfsc	(main@i+1)& (0+255),7,b
  1052  000D36  EFA6  F006         	goto	u4731
  1053  000D3A  51F0               	movf	(main@i+1)& (0+255),w,b
  1054  000D3C  E109               	bnz	u4730
  1055  000D3E  0E1E               	movlw	30
  1056  000D40  5DEF               	subwf	main@i& (0+255),w,b
  1057  000D42  A0D8               	btfss	status,0,c
  1058  000D44  EFA6  F006         	goto	u4731
  1059  000D48  EFA8  F006         	goto	u4730
  1060  000D4C                     u4731:
  1061  000D4C  EF8B  F006         	goto	l4658
  1062  000D50                     u4730:
  1063  000D50                     
  1064                           ; BSR set to: 0
  1065                           ;senior_main.c: 537:                 PORTBbits.RB0 = 0;
  1066  000D50  0E00               	movlw	0
  1067  000D52  EC4A  F017         	call	_set_minutes
  1068  000D56                     
  1069                           ;senior_main.c: 539:                 forward(go);
  1070  000D56  0E00               	movlw	0
  1071  000D58  ECDF  F016         	call	_set_seconds
  1072  000D5C                     l4670:
  1073                           
  1074                           ;senior_main.c: 548:                 IOCANbits.IOCAN3 = 0;
  1075  000D5C  EC85  F018         	call	_adcNum0	;wreg free
  1076  000D60  C060  F048         	movff	?_adcNum0,_value0
  1077  000D64  C061  F049         	movff	?_adcNum0+1,_value0+1
  1078  000D68  C062  F04A         	movff	?_adcNum0+2,_value0+2
  1079  000D6C  C063  F04B         	movff	?_adcNum0+3,_value0+3
  1080  000D70                     
  1081                           ;senior_main.c: 550:                 PORTBbits.RB3 = 1;
  1082  000D70  504B               	movf	(_value0+3)^0,w,c
  1083  000D72  104A               	iorwf	(_value0+2)^0,w,c
  1084  000D74  E109               	bnz	u4741
  1085  000D76  0ECC               	movlw	204
  1086  000D78  5C48               	subwf	_value0^0,w,c
  1087  000D7A  0E02               	movlw	2
  1088  000D7C  5849               	subwfb	(_value0+1)^0,w,c
  1089  000D7E  B0D8               	btfsc	status,0,c
  1090  000D80  EFC4  F006         	goto	u4741
  1091  000D84  EFC6  F006         	goto	u4740
  1092  000D88                     u4741:
  1093  000D88  EFA3  F008         	goto	l4844
  1094  000D8C                     u4740:
  1095  000D8C                     
  1096                           ;senior_main.c: 551: 
  1097  000D8C  928C               	bcf	140,1,c	;volatile
  1098  000D8E                     
  1099                           ;senior_main.c: 553:                 for(int i=0; i<200; i++){
  1100  000D8E  ECC1  F00C         	call	_lcdprint	;wreg free
  1101  000D92                     
  1102                           ;senior_main.c: 555:                     LATBbits.LATB0=1;
  1103  000D92  010F               	movlb	15	; () banked
  1104  000D94  990E               	bcf	14,4,b	;volatile
  1105  000D96                     
  1106                           ; BSR set to: 15
  1107                           ;senior_main.c: 556:                     _delay((unsigned long)((0.25)*(8000000/4000.0))
      +                          );
  1108  000D96  9B0E               	bcf	14,5,b	;volatile
  1109  000D98                     
  1110                           ; BSR set to: 15
  1111                           ;senior_main.c: 557:                     LATBbits.LATB0=0;
  1112  000D98  9506               	bcf	6,2,b	;volatile
  1113  000D9A                     
  1114                           ; BSR set to: 15
  1115                           ;senior_main.c: 558:                     _delay((unsigned long)((0.25)*(8000000/4000.0))
      +                          );
  1116  000D9A  9706               	bcf	6,3,b	;volatile
  1117  000D9C                     
  1118                           ; BSR set to: 15
  1119                           ;senior_main.c: 559:                 }
  1120  000D9C  EC3E  F019         	call	_ultra_dist	;wreg free
  1121  000DA0  C060  F0E7         	movff	?_ultra_dist,main@distc
  1122  000DA4  C061  F0E8         	movff	?_ultra_dist+1,main@distc+1
  1123  000DA8                     
  1124                           ;senior_main.c: 560:                 PORTBbits.RB0 = 0;
  1125  000DA8  010F               	movlb	15	; () banked
  1126  000DAA  890E               	bsf	14,4,b	;volatile
  1127  000DAC                     
  1128                           ; BSR set to: 15
  1129                           ;senior_main.c: 561: 
  1130  000DAC  8B0E               	bsf	14,5,b	;volatile
  1131  000DAE                     
  1132                           ; BSR set to: 15
  1133                           ;senior_main.c: 562: 
  1134  000DAE  8506               	bsf	6,2,b	;volatile
  1135  000DB0                     
  1136                           ; BSR set to: 15
  1137                           ;senior_main.c: 563: 
  1138  000DB0  8706               	bsf	6,3,b	;volatile
  1139  000DB2                     
  1140                           ; BSR set to: 15
  1141                           ;senior_main.c: 565:                 PWM3DCL = 0xC0;
  1142  000DB2  0100               	movlb	0	; () banked
  1143  000DB4  BFE8               	btfsc	(main@distc+1)& (0+255),7,b
  1144  000DB6  EFE6  F006         	goto	u4751
  1145  000DBA  51E8               	movf	(main@distc+1)& (0+255),w,b
  1146  000DBC  E109               	bnz	u4750
  1147  000DBE  0E1A               	movlw	26
  1148  000DC0  5DE7               	subwf	main@distc& (0+255),w,b
  1149  000DC2  A0D8               	btfss	status,0,c
  1150  000DC4  EFE6  F006         	goto	u4751
  1151  000DC8  EFE8  F006         	goto	u4750
  1152  000DCC                     u4751:
  1153  000DCC  EF02  F007         	goto	l4706
  1154  000DD0                     u4750:
  1155  000DD0                     
  1156                           ; BSR set to: 0
  1157                           ;senior_main.c: 566:                 T2TMR = 0x00;
  1158  000DD0  968D               	bcf	141,3,c	;volatile
  1159                           
  1160                           ;senior_main.c: 567:                 PWM3CONbits.PWM3EN = 1;
  1161  000DD2  908D               	bcf	141,0,c	;volatile
  1162  000DD4                     
  1163                           ; BSR set to: 0
  1164  000DD4  0E00               	movlw	0
  1165  000DD6  6F61               	movwf	(forward@gostop+1)& (0+255),b
  1166  000DD8  0E01               	movlw	1
  1167  000DDA  6F60               	movwf	forward@gostop& (0+255),b
  1168  000DDC  EC56  F019         	call	_forward	;wreg free
  1169  000DE0                     
  1170                           ;senior_main.c: 570:                 _delay((unsigned long)((100)*(8000000/4000.0)));
  1171  000DE0  90D8               	bcf	status,0,c
  1172  000DE2  0100               	movlb	0	; () banked
  1173  000DE4  35FB               	rlcf	_index& (0+255),w,b
  1174  000DE6  6ED9               	movwf	fsr2l,c
  1175  000DE8  35FC               	rlcf	(_index+1)& (0+255),w,b
  1176  000DEA  6EDA               	movwf	fsr2h,c
  1177  000DEC  0E00               	movlw	low _maze
  1178  000DEE  26D9               	addwf	fsr2l,f,c
  1179  000DF0  0E01               	movlw	high _maze
  1180  000DF2  22DA               	addwfc	fsr2h,f,c
  1181  000DF4  0E01               	movlw	1
  1182  000DF6  6EDE               	movwf	postinc2,c
  1183  000DF8  0E00               	movlw	0
  1184  000DFA  6EDD               	movwf	postdec2,c
  1185  000DFC                     l4704:
  1186                           
  1187                           ; BSR set to: 0
  1188                           ;senior_main.c: 571:                 PWM3CONbits.PWM3EN = 0;
  1189  000DFC  4BFB               	infsnz	_index& (0+255),f,b
  1190  000DFE  2BFC               	incf	(_index+1)& (0+255),f,b
  1191                           
  1192                           ;senior_main.c: 572:                 lcdprint();
  1193  000E00  EF9C  F008         	goto	l4836
  1194  000E04                     l4706:
  1195                           
  1196                           ; BSR set to: 0
  1197  000E04  0E00               	movlw	0
  1198  000E06  6F61               	movwf	(forward@gostop+1)& (0+255),b
  1199  000E08  0E00               	movlw	0
  1200  000E0A  6F60               	movwf	forward@gostop& (0+255),b
  1201  000E0C  EC56  F019         	call	_forward	;wreg free
  1202  000E10                     
  1203                           ;senior_main.c: 575: 
  1204  000E10  010F               	movlb	15	; () banked
  1205  000E12  990E               	bcf	14,4,b	;volatile
  1206  000E14                     
  1207                           ; BSR set to: 15
  1208                           ;senior_main.c: 576:                 PWM3DCH = 0x04;
  1209  000E14  9B0E               	bcf	14,5,b	;volatile
  1210  000E16                     
  1211                           ; BSR set to: 15
  1212                           ;senior_main.c: 577:                 PWM3DCL = 0x10;
  1213  000E16  9506               	bcf	6,2,b	;volatile
  1214  000E18                     
  1215                           ; BSR set to: 15
  1216                           ;senior_main.c: 578:                 T2TMR = 0x00;
  1217  000E18  9706               	bcf	6,3,b	;volatile
  1218  000E1A                     
  1219                           ; BSR set to: 15
  1220                           ;senior_main.c: 580:                 _delay((unsigned long)((500)*(8000000/4000.0)));
  1221  000E1A  868D               	bsf	141,3,c	;volatile
  1222  000E1C                     
  1223                           ; BSR set to: 15
  1224                           ;senior_main.c: 582:                 _delay((unsigned long)((100)*(8000000/4000.0)));
  1225  000E1C  808D               	bsf	141,0,c	;volatile
  1226  000E1E                     
  1227                           ; BSR set to: 15
  1228                           ;senior_main.c: 583:                 PWM3CONbits.PWM3EN = 0;
  1229  000E1E  0E00               	movlw	0
  1230  000E20  0100               	movlb	0	; () banked
  1231  000E22  6FEC               	movwf	(main@i_778+1)& (0+255),b
  1232  000E24  0E00               	movlw	0
  1233  000E26  6FEB               	movwf	main@i_778& (0+255),b
  1234  000E28                     l292:
  1235                           
  1236                           ; BSR set to: 0
  1237                           ;senior_main.c: 585: 
  1238  000E28  8083               	bsf	131,0,c	;volatile
  1239  000E2A                     
  1240                           ; BSR set to: 0
  1241                           ;senior_main.c: 586: 
  1242  000E2A  0EA6               	movlw	166
  1243  000E2C                     u4997:
  1244  000E2C  2EE8               	decfsz	wreg,f,c
  1245  000E2E  D7FE               	bra	u4997
  1246  000E30  D000               	nop2	
  1247  000E32                     
  1248                           ;senior_main.c: 587:                 PWM3DCH = 0x0B;
  1249  000E32  9083               	bcf	131,0,c	;volatile
  1250                           
  1251                           ;senior_main.c: 588:                 PWM3DCL = 0xC0;
  1252  000E34  0EA6               	movlw	166
  1253  000E36                     u5007:
  1254  000E36  2EE8               	decfsz	wreg,f,c
  1255  000E38  D7FE               	bra	u5007
  1256  000E3A  D000               	nop2	
  1257  000E3C                     
  1258                           ;senior_main.c: 589:                 T2TMR = 0x00;
  1259  000E3C  0100               	movlb	0	; () banked
  1260  000E3E  4BEB               	infsnz	main@i_778& (0+255),f,b
  1261  000E40  2BEC               	incf	(main@i_778+1)& (0+255),f,b
  1262  000E42  BFEC               	btfsc	(main@i_778+1)& (0+255),7,b
  1263  000E44  EF2D  F007         	goto	u4761
  1264  000E48  51EC               	movf	(main@i_778+1)& (0+255),w,b
  1265  000E4A  E109               	bnz	u4760
  1266  000E4C  0EC8               	movlw	200
  1267  000E4E  5DEB               	subwf	main@i_778& (0+255),w,b
  1268  000E50  A0D8               	btfss	status,0,c
  1269  000E52  EF2D  F007         	goto	u4761
  1270  000E56  EF2F  F007         	goto	u4760
  1271  000E5A                     u4761:
  1272  000E5A  EF14  F007         	goto	l292
  1273  000E5E                     u4760:
  1274  000E5E                     
  1275                           ; BSR set to: 0
  1276                           ;senior_main.c: 590:                 PWM3CONbits.PWM3EN = 1;
  1277  000E5E  908D               	bcf	141,0,c	;volatile
  1278  000E60                     
  1279                           ; BSR set to: 0
  1280                           ;senior_main.c: 594:                 PWM3CONbits.PWM3EN = 0;
  1281  000E60  0E12               	movlw	18
  1282  000E62  6EA3               	movwf	163,c	;volatile
  1283                           
  1284                           ;senior_main.c: 595:                 lcdprint();
  1285  000E64  0EC0               	movlw	192
  1286  000E66  6EA2               	movwf	162,c	;volatile
  1287                           
  1288                           ;senior_main.c: 596: 
  1289  000E68  0E00               	movlw	0
  1290  000E6A  6EBA               	movwf	186,c	;volatile
  1291  000E6C                     
  1292                           ; BSR set to: 0
  1293                           ;senior_main.c: 597:                 PORTBbits.RB0 = 1;
  1294  000E6C  8EA4               	bsf	164,7,c	;volatile
  1295  000E6E                     
  1296                           ; BSR set to: 0
  1297                           ;senior_main.c: 598:                 for(int i=0; i<200; i++){
  1298  000E6E  0E06               	movlw	6
  1299  000E70  0100               	movlb	0	; () banked
  1300  000E72  6FE6               	movwf	(??_main+1)& (0+255),b
  1301  000E74  0E13               	movlw	19
  1302  000E76  6FE5               	movwf	??_main& (0+255),b
  1303  000E78  0EAD               	movlw	173
  1304  000E7A                     u5017:
  1305  000E7A  2EE8               	decfsz	wreg,f,c
  1306  000E7C  D7FE               	bra	u5017
  1307  000E7E  2FE5               	decfsz	??_main& (0+255),f,b
  1308  000E80  D7FC               	bra	u5017
  1309  000E82  2FE6               	decfsz	(??_main+1)& (0+255),f,b
  1310  000E84  D7FA               	bra	u5017
  1311  000E86  D000               	nop2	
  1312  000E88                     
  1313                           ;senior_main.c: 599: 
  1314  000E88  EC3E  F019         	call	_ultra_dist	;wreg free
  1315  000E8C  C060  F0F3         	movff	?_ultra_dist,main@distl
  1316  000E90  C061  F0F4         	movff	?_ultra_dist+1,main@distl+1
  1317  000E94                     
  1318                           ;senior_main.c: 600:                     LATBbits.LATB0=1;
  1319  000E94  0E02               	movlw	2
  1320  000E96  0100               	movlb	0	; () banked
  1321  000E98  6FE6               	movwf	(??_main+1)& (0+255),b
  1322  000E9A  0E04               	movlw	4
  1323  000E9C  6FE5               	movwf	??_main& (0+255),b
  1324  000E9E  0EBA               	movlw	186
  1325  000EA0                     u5027:
  1326  000EA0  2EE8               	decfsz	wreg,f,c
  1327  000EA2  D7FE               	bra	u5027
  1328  000EA4  2FE5               	decfsz	??_main& (0+255),f,b
  1329  000EA6  D7FC               	bra	u5027
  1330  000EA8  2FE6               	decfsz	(??_main+1)& (0+255),f,b
  1331  000EAA  D7FA               	bra	u5027
  1332  000EAC  F000               	nop	
  1333  000EAE                     
  1334                           ;senior_main.c: 601:                     _delay((unsigned long)((0.25)*(8000000/4000.0))
      +                          );
  1335  000EAE  9EA4               	bcf	164,7,c	;volatile
  1336  000EB0                     
  1337                           ;senior_main.c: 602:                     LATBbits.LATB0=0;
  1338  000EB0  ECC1  F00C         	call	_lcdprint	;wreg free
  1339  000EB4                     
  1340                           ;senior_main.c: 606: 
  1341  000EB4  0E04               	movlw	4
  1342  000EB6  6EA3               	movwf	163,c	;volatile
  1343  000EB8                     
  1344                           ;senior_main.c: 607:                 if(distcc <=15){
  1345  000EB8  0E10               	movlw	16
  1346  000EBA  6EA2               	movwf	162,c	;volatile
  1347  000EBC                     
  1348                           ;senior_main.c: 608:                     backward();
  1349  000EBC  0E00               	movlw	0
  1350  000EBE  6EBA               	movwf	186,c	;volatile
  1351  000EC0                     
  1352                           ;senior_main.c: 609:                 }
  1353  000EC0  8EA4               	bsf	164,7,c	;volatile
  1354  000EC2                     
  1355                           ;senior_main.c: 610:                 if(distr<30 && distl<30 && distcc<30){
  1356  000EC2  0E06               	movlw	6
  1357  000EC4  0100               	movlb	0	; () banked
  1358  000EC6  6FE6               	movwf	(??_main+1)& (0+255),b
  1359  000EC8  0E13               	movlw	19
  1360  000ECA  6FE5               	movwf	??_main& (0+255),b
  1361  000ECC  0EAD               	movlw	173
  1362  000ECE                     u5037:
  1363  000ECE  2EE8               	decfsz	wreg,f,c
  1364  000ED0  D7FE               	bra	u5037
  1365  000ED2  2FE5               	decfsz	??_main& (0+255),f,b
  1366  000ED4  D7FC               	bra	u5037
  1367  000ED6  2FE6               	decfsz	(??_main+1)& (0+255),f,b
  1368  000ED8  D7FA               	bra	u5037
  1369  000EDA  D000               	nop2	
  1370  000EDC                     
  1371                           ;senior_main.c: 611:                     if(distl>distr){
  1372  000EDC  EC3E  F019         	call	_ultra_dist	;wreg free
  1373  000EE0  C060  F0F5         	movff	?_ultra_dist,main@distr
  1374  000EE4  C061  F0F6         	movff	?_ultra_dist+1,main@distr+1
  1375  000EE8                     
  1376                           ;senior_main.c: 612:                         reverser();
  1377  000EE8  0E02               	movlw	2
  1378  000EEA  0100               	movlb	0	; () banked
  1379  000EEC  6FE6               	movwf	(??_main+1)& (0+255),b
  1380  000EEE  0E04               	movlw	4
  1381  000EF0  6FE5               	movwf	??_main& (0+255),b
  1382  000EF2  0EBA               	movlw	186
  1383  000EF4                     u5047:
  1384  000EF4  2EE8               	decfsz	wreg,f,c
  1385  000EF6  D7FE               	bra	u5047
  1386  000EF8  2FE5               	decfsz	??_main& (0+255),f,b
  1387  000EFA  D7FC               	bra	u5047
  1388  000EFC  2FE6               	decfsz	(??_main+1)& (0+255),f,b
  1389  000EFE  D7FA               	bra	u5047
  1390  000F00  F000               	nop	
  1391  000F02                     
  1392                           ;senior_main.c: 613:                     }
  1393  000F02  9EA4               	bcf	164,7,c	;volatile
  1394                           
  1395                           ;senior_main.c: 614:                     if(distr>distl){
  1396  000F04  ECC1  F00C         	call	_lcdprint	;wreg free
  1397  000F08                     
  1398                           ;senior_main.c: 617:                     maze[index]=4;
  1399  000F08  0E0B               	movlw	11
  1400  000F0A  6EA3               	movwf	163,c	;volatile
  1401  000F0C                     
  1402                           ;senior_main.c: 618:                     index++;
  1403  000F0C  0EC0               	movlw	192
  1404  000F0E  6EA2               	movwf	162,c	;volatile
  1405  000F10                     
  1406                           ;senior_main.c: 619:                 }
  1407  000F10  0E00               	movlw	0
  1408  000F12  6EBA               	movwf	186,c	;volatile
  1409  000F14                     
  1410                           ;senior_main.c: 620:                 else if(distl>30 && distl>=distcc){
  1411  000F14  8EA4               	bsf	164,7,c	;volatile
  1412  000F16                     
  1413                           ;senior_main.c: 621:                     lturn();
  1414  000F16  0E09               	movlw	9
  1415  000F18  0100               	movlb	0	; () banked
  1416  000F1A  6FE6               	movwf	(??_main+1)& (0+255),b
  1417  000F1C  0E1E               	movlw	30
  1418  000F1E  6FE5               	movwf	??_main& (0+255),b
  1419  000F20  0EE4               	movlw	228
  1420  000F22                     u5057:
  1421  000F22  2EE8               	decfsz	wreg,f,c
  1422  000F24  D7FE               	bra	u5057
  1423  000F26  2FE5               	decfsz	??_main& (0+255),f,b
  1424  000F28  D7FC               	bra	u5057
  1425  000F2A  2FE6               	decfsz	(??_main+1)& (0+255),f,b
  1426  000F2C  D7FA               	bra	u5057
  1427  000F2E  F000               	nop	
  1428  000F30                     
  1429                           ;senior_main.c: 622:                     maze[index]=2;
  1430  000F30  EC3E  F019         	call	_ultra_dist	;wreg free
  1431  000F34  C060  F0F1         	movff	?_ultra_dist,main@distcc
  1432  000F38  C061  F0F2         	movff	?_ultra_dist+1,main@distcc+1
  1433  000F3C                     
  1434                           ;senior_main.c: 623:                     index++;
  1435  000F3C  0E02               	movlw	2
  1436  000F3E  0100               	movlb	0	; () banked
  1437  000F40  6FE6               	movwf	(??_main+1)& (0+255),b
  1438  000F42  0E04               	movlw	4
  1439  000F44  6FE5               	movwf	??_main& (0+255),b
  1440  000F46  0EBA               	movlw	186
  1441  000F48                     u5067:
  1442  000F48  2EE8               	decfsz	wreg,f,c
  1443  000F4A  D7FE               	bra	u5067
  1444  000F4C  2FE5               	decfsz	??_main& (0+255),f,b
  1445  000F4E  D7FC               	bra	u5067
  1446  000F50  2FE6               	decfsz	(??_main+1)& (0+255),f,b
  1447  000F52  D7FA               	bra	u5067
  1448  000F54  F000               	nop	
  1449  000F56                     
  1450                           ;senior_main.c: 624:                 }
  1451  000F56  9EA4               	bcf	164,7,c	;volatile
  1452  000F58                     
  1453                           ;senior_main.c: 625:                 else if(distr>30 && distr>distcc){
  1454  000F58  ECC1  F00C         	call	_lcdprint	;wreg free
  1455  000F5C                     
  1456                           ;senior_main.c: 627:                     maze[index]=3;
  1457  000F5C  808D               	bsf	141,0,c	;volatile
  1458  000F5E                     
  1459                           ;senior_main.c: 628:                     index++;
  1460  000F5E  0E00               	movlw	0
  1461  000F60  0100               	movlb	0	; () banked
  1462  000F62  6FEE               	movwf	(main@i_779+1)& (0+255),b
  1463  000F64  0E00               	movlw	0
  1464  000F66  6FED               	movwf	main@i_779& (0+255),b
  1465  000F68                     l294:
  1466                           
  1467                           ; BSR set to: 0
  1468                           ;senior_main.c: 630:             }
  1469  000F68  8083               	bsf	131,0,c	;volatile
  1470  000F6A                     
  1471                           ; BSR set to: 0
  1472                           ;senior_main.c: 631:             IOCBNbits.IOCBN4 = 1;
  1473  000F6A  0EA6               	movlw	166
  1474  000F6C                     u5077:
  1475  000F6C  2EE8               	decfsz	wreg,f,c
  1476  000F6E  D7FE               	bra	u5077
  1477  000F70  D000               	nop2	
  1478  000F72                     
  1479                           ;senior_main.c: 632:             IOCBNbits.IOCBN5 = 1;
  1480  000F72  9083               	bcf	131,0,c	;volatile
  1481                           
  1482                           ;senior_main.c: 633:             IOCANbits.IOCAN2 = 1;
  1483  000F74  0EA6               	movlw	166
  1484  000F76                     u5087:
  1485  000F76  2EE8               	decfsz	wreg,f,c
  1486  000F78  D7FE               	bra	u5087
  1487  000F7A  D000               	nop2	
  1488  000F7C                     
  1489                           ;senior_main.c: 634:             IOCANbits.IOCAN3 = 1;
  1490  000F7C  0100               	movlb	0	; () banked
  1491  000F7E  4BED               	infsnz	main@i_779& (0+255),f,b
  1492  000F80  2BEE               	incf	(main@i_779+1)& (0+255),f,b
  1493  000F82  BFEE               	btfsc	(main@i_779+1)& (0+255),7,b
  1494  000F84  EFCD  F007         	goto	u4771
  1495  000F88  51EE               	movf	(main@i_779+1)& (0+255),w,b
  1496  000F8A  E109               	bnz	u4770
  1497  000F8C  0EC8               	movlw	200
  1498  000F8E  5DED               	subwf	main@i_779& (0+255),w,b
  1499  000F90  A0D8               	btfss	status,0,c
  1500  000F92  EFCD  F007         	goto	u4771
  1501  000F96  EFCF  F007         	goto	u4770
  1502  000F9A                     u4771:
  1503  000F9A  EFB4  F007         	goto	l294
  1504  000F9E                     u4770:
  1505  000F9E                     
  1506                           ; BSR set to: 0
  1507                           ;senior_main.c: 635:         }
  1508  000F9E  908D               	bcf	141,0,c	;volatile
  1509  000FA0                     
  1510                           ; BSR set to: 0
  1511                           ;senior_main.c: 637:             forward(stop);
  1512  000FA0  BFF2               	btfsc	(main@distcc+1)& (0+255),7,b
  1513  000FA2  EFDE  F007         	goto	u4780
  1514  000FA6  51F2               	movf	(main@distcc+1)& (0+255),w,b
  1515  000FA8  E107               	bnz	u4781
  1516  000FAA  0E10               	movlw	16
  1517  000FAC  5DF1               	subwf	main@distcc& (0+255),w,b
  1518  000FAE  B0D8               	btfsc	status,0,c
  1519  000FB0  EFDC  F007         	goto	u4781
  1520  000FB4  EFDE  F007         	goto	u4780
  1521  000FB8                     u4781:
  1522  000FB8  EFE0  F007         	goto	l4798
  1523  000FBC                     u4780:
  1524  000FBC                     
  1525                           ; BSR set to: 0
  1526                           ;senior_main.c: 638:             PORTAbits.RA1 = 1;
  1527  000FBC  ECE6  F018         	call	_backward	;wreg free
  1528  000FC0                     l4798:
  1529                           
  1530                           ;senior_main.c: 640:             IOCBNbits.IOCBN5 = 1;
  1531  000FC0  0100               	movlb	0	; () banked
  1532  000FC2  BFF6               	btfsc	(main@distr+1)& (0+255),7,b
  1533  000FC4  EFEF  F007         	goto	u4790
  1534  000FC8  51F6               	movf	(main@distr+1)& (0+255),w,b
  1535  000FCA  E107               	bnz	u4791
  1536  000FCC  0E1E               	movlw	30
  1537  000FCE  5DF5               	subwf	main@distr& (0+255),w,b
  1538  000FD0  B0D8               	btfsc	status,0,c
  1539  000FD2  EFED  F007         	goto	u4791
  1540  000FD6  EFEF  F007         	goto	u4790
  1541  000FDA                     u4791:
  1542  000FDA  EF3E  F008         	goto	l4816
  1543  000FDE                     u4790:
  1544  000FDE                     
  1545                           ; BSR set to: 0
  1546  000FDE  BFF4               	btfsc	(main@distl+1)& (0+255),7,b
  1547  000FE0  EFFD  F007         	goto	u4800
  1548  000FE4  51F4               	movf	(main@distl+1)& (0+255),w,b
  1549  000FE6  E107               	bnz	u4801
  1550  000FE8  0E1E               	movlw	30
  1551  000FEA  5DF3               	subwf	main@distl& (0+255),w,b
  1552  000FEC  B0D8               	btfsc	status,0,c
  1553  000FEE  EFFB  F007         	goto	u4801
  1554  000FF2  EFFD  F007         	goto	u4800
  1555  000FF6                     u4801:
  1556  000FF6  EF3E  F008         	goto	l4816
  1557  000FFA                     u4800:
  1558  000FFA                     
  1559                           ; BSR set to: 0
  1560  000FFA  BFF2               	btfsc	(main@distcc+1)& (0+255),7,b
  1561  000FFC  EF0B  F008         	goto	u4810
  1562  001000  51F2               	movf	(main@distcc+1)& (0+255),w,b
  1563  001002  E107               	bnz	u4811
  1564  001004  0E1E               	movlw	30
  1565  001006  5DF1               	subwf	main@distcc& (0+255),w,b
  1566  001008  B0D8               	btfsc	status,0,c
  1567  00100A  EF09  F008         	goto	u4811
  1568  00100E  EF0B  F008         	goto	u4810
  1569  001012                     u4811:
  1570  001012  EF3E  F008         	goto	l4816
  1571  001016                     u4810:
  1572  001016                     
  1573                           ; BSR set to: 0
  1574                           ;senior_main.c: 641:             IOCANbits.IOCAN2 = 1;
  1575  001016  51F3               	movf	main@distl& (0+255),w,b
  1576  001018  5DF5               	subwf	main@distr& (0+255),w,b
  1577  00101A  51F6               	movf	(main@distr+1)& (0+255),w,b
  1578  00101C  0A80               	xorlw	128
  1579  00101E  6FE5               	movwf	??_main& (0+255),b
  1580  001020  51F4               	movf	(main@distl+1)& (0+255),w,b
  1581  001022  0A80               	xorlw	128
  1582  001024  59E5               	subwfb	??_main& (0+255),w,b
  1583  001026  B0D8               	btfsc	status,0,c
  1584  001028  EF18  F008         	goto	u4821
  1585  00102C  EF1A  F008         	goto	u4820
  1586  001030                     u4821:
  1587  001030  EF1C  F008         	goto	l4808
  1588  001034                     u4820:
  1589  001034                     
  1590                           ; BSR set to: 0
  1591                           ;senior_main.c: 642:             IOCANbits.IOCAN3 = 1;
  1592  001034  ECEF  F017         	call	_reverser	;wreg free
  1593  001038                     l4808:
  1594                           
  1595                           ;senior_main.c: 644:                 IRpath1();
  1596  001038  0100               	movlb	0	; () banked
  1597  00103A  51F5               	movf	main@distr& (0+255),w,b
  1598  00103C  5DF3               	subwf	main@distl& (0+255),w,b
  1599  00103E  51F4               	movf	(main@distl+1)& (0+255),w,b
  1600  001040  0A80               	xorlw	128
  1601  001042  6FE5               	movwf	??_main& (0+255),b
  1602  001044  51F6               	movf	(main@distr+1)& (0+255),w,b
  1603  001046  0A80               	xorlw	128
  1604  001048  59E5               	subwfb	??_main& (0+255),w,b
  1605  00104A  B0D8               	btfsc	status,0,c
  1606  00104C  EF2A  F008         	goto	u4831
  1607  001050  EF2C  F008         	goto	u4830
  1608  001054                     u4831:
  1609  001054  EF2E  F008         	goto	l4812
  1610  001058                     u4830:
  1611  001058                     
  1612                           ; BSR set to: 0
  1613                           ;senior_main.c: 645:             }
  1614  001058  EC15  F018         	call	_reversel	;wreg free
  1615  00105C                     l4812:
  1616                           
  1617                           ;senior_main.c: 647:     }
  1618  00105C  90D8               	bcf	status,0,c
  1619  00105E  0100               	movlb	0	; () banked
  1620  001060  35FB               	rlcf	_index& (0+255),w,b
  1621  001062  6ED9               	movwf	fsr2l,c
  1622  001064  35FC               	rlcf	(_index+1)& (0+255),w,b
  1623  001066  6EDA               	movwf	fsr2h,c
  1624  001068  0E00               	movlw	low _maze
  1625  00106A  26D9               	addwf	fsr2l,f,c
  1626  00106C  0E01               	movlw	high _maze
  1627  00106E  22DA               	addwfc	fsr2h,f,c
  1628  001070  0E04               	movlw	4
  1629  001072  6EDE               	movwf	postinc2,c
  1630  001074  0E00               	movlw	0
  1631  001076  6EDD               	movwf	postdec2,c
  1632  001078  EFFE  F006         	goto	l4704
  1633  00107C                     l4816:
  1634                           
  1635                           ; BSR set to: 0
  1636  00107C  BFF4               	btfsc	(main@distl+1)& (0+255),7,b
  1637  00107E  EF4A  F008         	goto	u4841
  1638  001082  51F4               	movf	(main@distl+1)& (0+255),w,b
  1639  001084  E109               	bnz	u4840
  1640  001086  0E1F               	movlw	31
  1641  001088  5DF3               	subwf	main@distl& (0+255),w,b
  1642  00108A  A0D8               	btfss	status,0,c
  1643  00108C  EF4A  F008         	goto	u4841
  1644  001090  EF4C  F008         	goto	u4840
  1645  001094                     u4841:
  1646  001094  EF6D  F008         	goto	l4826
  1647  001098                     u4840:
  1648  001098                     
  1649                           ; BSR set to: 0
  1650  001098  51F1               	movf	main@distcc& (0+255),w,b
  1651  00109A  5DF3               	subwf	main@distl& (0+255),w,b
  1652  00109C  51F4               	movf	(main@distl+1)& (0+255),w,b
  1653  00109E  0A80               	xorlw	128
  1654  0010A0  6FE5               	movwf	??_main& (0+255),b
  1655  0010A2  51F2               	movf	(main@distcc+1)& (0+255),w,b
  1656  0010A4  0A80               	xorlw	128
  1657  0010A6  59E5               	subwfb	??_main& (0+255),w,b
  1658  0010A8  A0D8               	btfss	status,0,c
  1659  0010AA  EF59  F008         	goto	u4851
  1660  0010AE  EF5B  F008         	goto	u4850
  1661  0010B2                     u4851:
  1662  0010B2  EF6D  F008         	goto	l4826
  1663  0010B6                     u4850:
  1664  0010B6                     
  1665                           ; BSR set to: 0
  1666  0010B6  EC3B  F018         	call	_lturn	;wreg free
  1667  0010BA  90D8               	bcf	status,0,c
  1668  0010BC  0100               	movlb	0	; () banked
  1669  0010BE  35FB               	rlcf	_index& (0+255),w,b
  1670  0010C0  6ED9               	movwf	fsr2l,c
  1671  0010C2  35FC               	rlcf	(_index+1)& (0+255),w,b
  1672  0010C4  6EDA               	movwf	fsr2h,c
  1673  0010C6  0E00               	movlw	low _maze
  1674  0010C8  26D9               	addwf	fsr2l,f,c
  1675  0010CA  0E01               	movlw	high _maze
  1676  0010CC  22DA               	addwfc	fsr2h,f,c
  1677  0010CE  0E02               	movlw	2
  1678  0010D0  6EDE               	movwf	postinc2,c
  1679  0010D2  0E00               	movlw	0
  1680  0010D4  6EDD               	movwf	postdec2,c
  1681  0010D6  EFFE  F006         	goto	l4704
  1682  0010DA                     l4826:
  1683                           
  1684                           ; BSR set to: 0
  1685  0010DA  BFF6               	btfsc	(main@distr+1)& (0+255),7,b
  1686  0010DC  EF79  F008         	goto	u4861
  1687  0010E0  51F6               	movf	(main@distr+1)& (0+255),w,b
  1688  0010E2  E109               	bnz	u4860
  1689  0010E4  0E1F               	movlw	31
  1690  0010E6  5DF5               	subwf	main@distr& (0+255),w,b
  1691  0010E8  A0D8               	btfss	status,0,c
  1692  0010EA  EF79  F008         	goto	u4861
  1693  0010EE  EF7B  F008         	goto	u4860
  1694  0010F2                     u4861:
  1695  0010F2  EF9C  F008         	goto	l300
  1696  0010F6                     u4860:
  1697  0010F6                     
  1698                           ; BSR set to: 0
  1699  0010F6  51F5               	movf	main@distr& (0+255),w,b
  1700  0010F8  5DF1               	subwf	main@distcc& (0+255),w,b
  1701  0010FA  51F2               	movf	(main@distcc+1)& (0+255),w,b
  1702  0010FC  0A80               	xorlw	128
  1703  0010FE  6FE5               	movwf	??_main& (0+255),b
  1704  001100  51F6               	movf	(main@distr+1)& (0+255),w,b
  1705  001102  0A80               	xorlw	128
  1706  001104  59E5               	subwfb	??_main& (0+255),w,b
  1707  001106  B0D8               	btfsc	status,0,c
  1708  001108  EF88  F008         	goto	u4871
  1709  00110C  EF8A  F008         	goto	u4870
  1710  001110                     u4871:
  1711  001110  EF9C  F008         	goto	l300
  1712  001114                     u4870:
  1713  001114                     
  1714                           ; BSR set to: 0
  1715  001114  ECC9  F017         	call	_rturn	;wreg free
  1716  001118  90D8               	bcf	status,0,c
  1717  00111A  0100               	movlb	0	; () banked
  1718  00111C  35FB               	rlcf	_index& (0+255),w,b
  1719  00111E  6ED9               	movwf	fsr2l,c
  1720  001120  35FC               	rlcf	(_index+1)& (0+255),w,b
  1721  001122  6EDA               	movwf	fsr2h,c
  1722  001124  0E00               	movlw	low _maze
  1723  001126  26D9               	addwf	fsr2l,f,c
  1724  001128  0E01               	movlw	high _maze
  1725  00112A  22DA               	addwfc	fsr2h,f,c
  1726  00112C  0E03               	movlw	3
  1727  00112E  6EDE               	movwf	postinc2,c
  1728  001130  0E00               	movlw	0
  1729  001132  6EDD               	movwf	postdec2,c
  1730  001134  EFFE  F006         	goto	l4704
  1731  001138                     l300:
  1732  001138                     l4836:
  1733                           
  1734                           ; BSR set to: 0
  1735  001138  010F               	movlb	15	; () banked
  1736  00113A  890E               	bsf	14,4,b	;volatile
  1737  00113C                     
  1738                           ; BSR set to: 15
  1739  00113C  8B0E               	bsf	14,5,b	;volatile
  1740  00113E                     
  1741                           ; BSR set to: 15
  1742  00113E  8506               	bsf	6,2,b	;volatile
  1743  001140                     
  1744                           ; BSR set to: 15
  1745  001140  8706               	bsf	6,3,b	;volatile
  1746  001142  EFAE  F006         	goto	l4670
  1747  001146                     l4844:
  1748  001146  0E00               	movlw	0
  1749  001148  0100               	movlb	0	; () banked
  1750  00114A  6F61               	movwf	(forward@gostop+1)& (0+255),b
  1751  00114C  0E00               	movlw	0
  1752  00114E  6F60               	movwf	forward@gostop& (0+255),b
  1753  001150  EC56  F019         	call	_forward	;wreg free
  1754  001154  828C               	bsf	140,1,c	;volatile
  1755  001156  010F               	movlb	15	; () banked
  1756  001158  890E               	bsf	14,4,b	;volatile
  1757  00115A                     
  1758                           ; BSR set to: 15
  1759  00115A  8B0E               	bsf	14,5,b	;volatile
  1760  00115C                     
  1761                           ; BSR set to: 15
  1762  00115C  8506               	bsf	6,2,b	;volatile
  1763  00115E                     
  1764                           ; BSR set to: 15
  1765  00115E  8706               	bsf	6,3,b	;volatile
  1766  001160                     l4856:
  1767  001160  ECB6  F008         	call	_IRpath1	;wreg free
  1768  001164  EFB0  F008         	goto	l4856
  1769  001168  EFB7  F000         	goto	start
  1770  00116C                     __end_of_main:
  1771                           	opt callstack 0
  1772                           
  1773 ;; *************** function _t1_init *****************
  1774 ;; Defined at:
  1775 ;;		line 41 in file "senior_main.c"
  1776 ;; Parameters:    Size  Location     Type
  1777 ;;		None
  1778 ;; Auto vars:     Size  Location     Type
  1779 ;;		None
  1780 ;; Return value:  Size  Location     Type
  1781 ;;                  1    wreg      void 
  1782 ;; Registers used:
  1783 ;;		wreg, status,2
  1784 ;; Tracked objects:
  1785 ;;		On entry : 0/0
  1786 ;;		On exit  : 0/0
  1787 ;;		Unchanged: 0/0
  1788 ;; Data sizes:     COMRAM   BANK0   BANK1   BANK2   BANK3   BANK4   BANK5   BANK6   BANK7
  1789 ;;      Params:         0       0       0       0       0       0       0       0       0
  1790 ;;      Locals:         0       0       0       0       0       0       0       0       0
  1791 ;;      Temps:          0       0       0       0       0       0       0       0       0
  1792 ;;      Totals:         0       0       0       0       0       0       0       0       0
  1793 ;;Total ram usage:        0 bytes
  1794 ;; Hardware stack levels used:    1
  1795 ;; Hardware stack levels required when called:    3
  1796 ;; This function calls:
  1797 ;;		Nothing
  1798 ;; This function is called by:
  1799 ;;		_main
  1800 ;; This function uses a non-reentrant model
  1801 ;;
  1802                           
  1803                           	psect	text1
  1804  003150                     __ptext1:
  1805                           	opt callstack 0
  1806  003150                     _t1_init:
  1807                           	opt callstack 27
  1808  003150                     
  1809                           ;senior_main.c: 43:     _delay((unsigned long)((2)*(8000000/4000.0)));
  1810  003150  0E70               	movlw	112
  1811  003152  010E               	movlb	14	; () banked
  1812  003154  6FD3               	movwf	211,b	;volatile
  1813                           
  1814                           ;senior_main.c: 44: 
  1815  003156  0E00               	movlw	0
  1816  003158  6ECD               	movwf	205,c	;volatile
  1817  00315A  0E00               	movlw	0
  1818  00315C  6ECC               	movwf	204,c	;volatile
  1819                           
  1820                           ;senior_main.c: 45:     return distance;
  1821  00315E  0E20               	movlw	32
  1822  003160  6ECE               	movwf	206,c	;volatile
  1823                           
  1824                           ;senior_main.c: 46: }
  1825  003162  50D1               	movf	209,w,c	;volatile
  1826  003164  0BF0               	andlw	-16
  1827  003166  0902               	iorlw	2
  1828  003168  6ED1               	movwf	209,c	;volatile
  1829  00316A                     
  1830                           ; BSR set to: 14
  1831                           ;senior_main.c: 47: 
  1832  00316A  91C9               	bcf	201,0,b	;volatile
  1833  00316C                     
  1834                           ; BSR set to: 14
  1835                           ;senior_main.c: 50: 
  1836  00316C  8EF2               	bsf	242,7,c	;volatile
  1837  00316E                     
  1838                           ; BSR set to: 14
  1839                           ;senior_main.c: 51: void us_irs(void){
  1840  00316E  9AF2               	bcf	242,5,c	;volatile
  1841  003170                     
  1842                           ; BSR set to: 14
  1843                           ;senior_main.c: 52:     while (!RB2);
  1844  003170  8CF2               	bsf	242,6,c	;volatile
  1845  003172                     
  1846                           ; BSR set to: 14
  1847                           ;senior_main.c: 53:     TMR1ON = 1;
  1848  003172  89BD               	bsf	189,4,b	;volatile
  1849  003174                     
  1850                           ; BSR set to: 14
  1851                           ;senior_main.c: 54:     while (RB2);
  1852  003174  010F               	movlb	15	; () banked
  1853  003176  850F               	bsf	15,2,b	;volatile
  1854                           
  1855                           ;senior_main.c: 55:     TMR1ON = 0;
  1856  003178  0E30               	movlw	48
  1857  00317A  6F0E               	movwf	14,b	;volatile
  1858                           
  1859                           ;senior_main.c: 56: 
  1860  00317C  0E00               	movlw	0
  1861  00317E  6F0D               	movwf	13,b	;volatile
  1862                           
  1863                           ;senior_main.c: 57: 
  1864  003180  0E0C               	movlw	12
  1865  003182  6F06               	movwf	6,b	;volatile
  1866                           
  1867                           ;senior_main.c: 58:    int time_taken = (TMR1L | (TMR1H<<8));
  1868  003184  0E00               	movlw	0
  1869  003186  6F05               	movwf	5,b	;volatile
  1870                           
  1871                           ;senior_main.c: 60: 
  1872  003188  0E00               	movlw	0
  1873  00318A  010E               	movlb	14	; () banked
  1874  00318C  6FDC               	movwf	220,b	;volatile
  1875  00318E                     
  1876                           ; BSR set to: 14
  1877  00318E  0012               	return		;funcret
  1878  003190                     __end_of_t1_init:
  1879                           	opt callstack 0
  1880                           
  1881 ;; *************** function _set_seconds *****************
  1882 ;; Defined at:
  1883 ;;		line 47 in file "timer.c"
  1884 ;; Parameters:    Size  Location     Type
  1885 ;;  sec             1    wreg     unsigned char 
  1886 ;; Auto vars:     Size  Location     Type
  1887 ;;  sec             1   17[BANK0 ] unsigned char 
  1888 ;;  curr_sec        1   16[BANK0 ] unsigned char 
  1889 ;; Return value:  Size  Location     Type
  1890 ;;                  1    wreg      void 
  1891 ;; Registers used:
  1892 ;;		wreg, status,2, status,0, prodl, prodh, cstack
  1893 ;; Tracked objects:
  1894 ;;		On entry : 0/0
  1895 ;;		On exit  : 0/0
  1896 ;;		Unchanged: 0/0
  1897 ;; Data sizes:     COMRAM   BANK0   BANK1   BANK2   BANK3   BANK4   BANK5   BANK6   BANK7
  1898 ;;      Params:         0       0       0       0       0       0       0       0       0
  1899 ;;      Locals:         0       2       0       0       0       0       0       0       0
  1900 ;;      Temps:          0       2       0       0       0       0       0       0       0
  1901 ;;      Totals:         0       4       0       0       0       0       0       0       0
  1902 ;;Total ram usage:        4 bytes
  1903 ;; Hardware stack levels used:    1
  1904 ;; Hardware stack levels required when called:    4
  1905 ;; This function calls:
  1906 ;;		___awdiv
  1907 ;;		___awmod
  1908 ;;		_i2c_read
  1909 ;;		_i2c_write
  1910 ;; This function is called by:
  1911 ;;		_main
  1912 ;; This function uses a non-reentrant model
  1913 ;;
  1914                           
  1915                           	psect	text2
  1916  002DBE                     __ptext2:
  1917                           	opt callstack 0
  1918  002DBE                     _set_seconds:
  1919                           	opt callstack 26
  1920                           
  1921                           ; BSR set to: 14
  1922                           ;incstack = 0
  1923                           ;set_seconds@sec stored from wreg
  1924  002DBE  0100               	movlb	0	; () banked
  1925  002DC0  6F71               	movwf	set_seconds@sec& (0+255),b
  1926  002DC2                     
  1927                           ;timer.c: 49:  if (sec<60) {
  1928  002DC2  0E3C               	movlw	60
  1929  002DC4  0100               	movlb	0	; () banked
  1930  002DC6  6171               	cpfslt	set_seconds@sec& (0+255),b
  1931  002DC8  EFE8  F016         	goto	u4491
  1932  002DCC  EFEA  F016         	goto	u4490
  1933  002DD0                     u4491:
  1934  002DD0  EF18  F017         	goto	l462
  1935  002DD4                     u4490:
  1936  002DD4                     
  1937                           ; BSR set to: 0
  1938                           ;timer.c: 51:   sec=((sec/10)<<4)+(sec%10);
  1939  002DD4  C071  F068         	movff	set_seconds@sec,___awmod@dividend
  1940  002DD8  6B69               	clrf	(___awmod@dividend+1)& (0+255),b
  1941  002DDA  0E00               	movlw	0
  1942  002DDC  6F6B               	movwf	(___awmod@divisor+1)& (0+255),b
  1943  002DDE  0E0A               	movlw	10
  1944  002DE0  6F6A               	movwf	___awmod@divisor& (0+255),b
  1945  002DE2  ECAE  F015         	call	___awmod	;wreg free
  1946  002DE6  C068  F06E         	movff	?___awmod,??_set_seconds
  1947  002DEA  C069  F06F         	movff	?___awmod+1,??_set_seconds+1
  1948  002DEE  C071  F060         	movff	set_seconds@sec,___awdiv@dividend
  1949  002DF2  0100               	movlb	0	; () banked
  1950  002DF4  6B61               	clrf	(___awdiv@dividend+1)& (0+255),b
  1951  002DF6  0E00               	movlw	0
  1952  002DF8  6F63               	movwf	(___awdiv@divisor+1)& (0+255),b
  1953  002DFA  0E0A               	movlw	10
  1954  002DFC  6F62               	movwf	___awdiv@divisor& (0+255),b
  1955  002DFE  EC4B  F015         	call	___awdiv	;wreg free
  1956  002E02  0100               	movlb	0	; () banked
  1957  002E04  5160               	movf	?___awdiv& (0+255),w,b
  1958  002E06  0D10               	mullw	16
  1959  002E08  50F3               	movf	243,w,c
  1960  002E0A  256E               	addwf	??_set_seconds& (0+255),w,b
  1961  002E0C  6F71               	movwf	set_seconds@sec& (0+255),b
  1962  002E0E                     
  1963                           ; BSR set to: 0
  1964                           ;timer.c: 54:   unsigned char curr_sec = i2c_read(104, 0x00);
  1965  002E0E  0E00               	movlw	0
  1966  002E10  6F60               	movwf	i2c_read@registers& (0+255),b
  1967  002E12  0E68               	movlw	104
  1968  002E14  ECAB  F010         	call	_i2c_read
  1969  002E18  0100               	movlb	0	; () banked
  1970  002E1A  6F70               	movwf	set_seconds@curr_sec& (0+255),b
  1971  002E1C                     
  1972                           ; BSR set to: 0
  1973                           ;timer.c: 57:   curr_sec &= 0x80;
  1974  002E1C  0E80               	movlw	128
  1975  002E1E  1770               	andwf	set_seconds@curr_sec& (0+255),f,b
  1976  002E20                     
  1977                           ; BSR set to: 0
  1978                           ;timer.c: 60:   i2c_write(104, 0x00, curr_sec | sec);
  1979  002E20  0E00               	movlw	0
  1980  002E22  6F60               	movwf	i2c_write@registers& (0+255),b
  1981  002E24  5170               	movf	set_seconds@curr_sec& (0+255),w,b
  1982  002E26  1171               	iorwf	set_seconds@sec& (0+255),w,b
  1983  002E28  6F61               	movwf	i2c_write@data& (0+255),b
  1984  002E2A  0E68               	movlw	104
  1985  002E2C  ECE7  F014         	call	_i2c_write
  1986  002E30                     l462:
  1987  002E30  0012               	return		;funcret
  1988  002E32                     __end_of_set_seconds:
  1989                           	opt callstack 0
  1990                           
  1991 ;; *************** function _set_minutes *****************
  1992 ;; Defined at:
  1993 ;;		line 77 in file "timer.c"
  1994 ;; Parameters:    Size  Location     Type
  1995 ;;  min             1    wreg     unsigned char 
  1996 ;; Auto vars:     Size  Location     Type
  1997 ;;  min             1   16[BANK0 ] unsigned char 
  1998 ;; Return value:  Size  Location     Type
  1999 ;;                  1    wreg      void 
  2000 ;; Registers used:
  2001 ;;		wreg, status,2, status,0, prodl, prodh, cstack
  2002 ;; Tracked objects:
  2003 ;;		On entry : 0/0
  2004 ;;		On exit  : 0/0
  2005 ;;		Unchanged: 0/0
  2006 ;; Data sizes:     COMRAM   BANK0   BANK1   BANK2   BANK3   BANK4   BANK5   BANK6   BANK7
  2007 ;;      Params:         0       0       0       0       0       0       0       0       0
  2008 ;;      Locals:         0       1       0       0       0       0       0       0       0
  2009 ;;      Temps:          0       2       0       0       0       0       0       0       0
  2010 ;;      Totals:         0       3       0       0       0       0       0       0       0
  2011 ;;Total ram usage:        3 bytes
  2012 ;; Hardware stack levels used:    1
  2013 ;; Hardware stack levels required when called:    4
  2014 ;; This function calls:
  2015 ;;		___awdiv
  2016 ;;		___awmod
  2017 ;;		_i2c_write
  2018 ;; This function is called by:
  2019 ;;		_main
  2020 ;; This function uses a non-reentrant model
  2021 ;;
  2022                           
  2023                           	psect	text3
  2024  002E94                     __ptext3:
  2025                           	opt callstack 0
  2026  002E94                     _set_minutes:
  2027                           	opt callstack 26
  2028                           
  2029                           ;incstack = 0
  2030                           ;set_minutes@min stored from wreg
  2031  002E94  0100               	movlb	0	; () banked
  2032  002E96  6F70               	movwf	set_minutes@min& (0+255),b
  2033  002E98                     
  2034                           ;timer.c: 79:  if (min<60) {
  2035  002E98  0E3C               	movlw	60
  2036  002E9A  0100               	movlb	0	; () banked
  2037  002E9C  6170               	cpfslt	set_minutes@min& (0+255),b
  2038  002E9E  EF53  F017         	goto	u4481
  2039  002EA2  EF55  F017         	goto	u4480
  2040  002EA6                     u4481:
  2041  002EA6  EF79  F017         	goto	l469
  2042  002EAA                     u4480:
  2043  002EAA                     
  2044                           ; BSR set to: 0
  2045                           ;timer.c: 81:      min = ((min/10)<<4)+(min%10);
  2046  002EAA  C070  F068         	movff	set_minutes@min,___awmod@dividend
  2047  002EAE  6B69               	clrf	(___awmod@dividend+1)& (0+255),b
  2048  002EB0  0E00               	movlw	0
  2049  002EB2  6F6B               	movwf	(___awmod@divisor+1)& (0+255),b
  2050  002EB4  0E0A               	movlw	10
  2051  002EB6  6F6A               	movwf	___awmod@divisor& (0+255),b
  2052  002EB8  ECAE  F015         	call	___awmod	;wreg free
  2053  002EBC  C068  F06E         	movff	?___awmod,??_set_minutes
  2054  002EC0  C069  F06F         	movff	?___awmod+1,??_set_minutes+1
  2055  002EC4  C070  F060         	movff	set_minutes@min,___awdiv@dividend
  2056  002EC8  0100               	movlb	0	; () banked
  2057  002ECA  6B61               	clrf	(___awdiv@dividend+1)& (0+255),b
  2058  002ECC  0E00               	movlw	0
  2059  002ECE  6F63               	movwf	(___awdiv@divisor+1)& (0+255),b
  2060  002ED0  0E0A               	movlw	10
  2061  002ED2  6F62               	movwf	___awdiv@divisor& (0+255),b
  2062  002ED4  EC4B  F015         	call	___awdiv	;wreg free
  2063  002ED8  0100               	movlb	0	; () banked
  2064  002EDA  5160               	movf	?___awdiv& (0+255),w,b
  2065  002EDC  0D10               	mullw	16
  2066  002EDE  50F3               	movf	243,w,c
  2067  002EE0  256E               	addwf	??_set_minutes& (0+255),w,b
  2068  002EE2  6F70               	movwf	set_minutes@min& (0+255),b
  2069  002EE4                     
  2070                           ; BSR set to: 0
  2071                           ;timer.c: 84:   i2c_write(104, 0x01, min);
  2072  002EE4  0E01               	movlw	1
  2073  002EE6  6F60               	movwf	i2c_write@registers& (0+255),b
  2074  002EE8  C070  F061         	movff	set_minutes@min,i2c_write@data
  2075  002EEC  0E68               	movlw	104
  2076  002EEE  ECE7  F014         	call	_i2c_write
  2077  002EF2                     l469:
  2078  002EF2  0012               	return		;funcret
  2079  002EF4                     __end_of_set_minutes:
  2080                           	opt callstack 0
  2081                           
  2082 ;; *************** function _rtc_init *****************
  2083 ;; Defined at:
  2084 ;;		line 12 in file "timer.c"
  2085 ;; Parameters:    Size  Location     Type
  2086 ;;		None
  2087 ;; Auto vars:     Size  Location     Type
  2088 ;;  i               2    8[BANK0 ] unsigned int 
  2089 ;;  hour            1   11[BANK0 ] unsigned char 
  2090 ;;  sec             1   10[BANK0 ] unsigned char 
  2091 ;; Return value:  Size  Location     Type
  2092 ;;                  1    wreg      void 
  2093 ;; Registers used:
  2094 ;;		wreg, status,2, status,0, cstack
  2095 ;; Tracked objects:
  2096 ;;		On entry : 0/0
  2097 ;;		On exit  : 0/0
  2098 ;;		Unchanged: 0/0
  2099 ;; Data sizes:     COMRAM   BANK0   BANK1   BANK2   BANK3   BANK4   BANK5   BANK6   BANK7
  2100 ;;      Params:         0       0       0       0       0       0       0       0       0
  2101 ;;      Locals:         0       4       0       0       0       0       0       0       0
  2102 ;;      Temps:          0       1       0       0       0       0       0       0       0
  2103 ;;      Totals:         0       5       0       0       0       0       0       0       0
  2104 ;;Total ram usage:        5 bytes
  2105 ;; Hardware stack levels used:    1
  2106 ;; Hardware stack levels required when called:    4
  2107 ;; This function calls:
  2108 ;;		_i2c_read
  2109 ;;		_i2c_write
  2110 ;; This function is called by:
  2111 ;;		_main
  2112 ;; This function uses a non-reentrant model
  2113 ;;
  2114                           
  2115                           	psect	text4
  2116  002C0E                     __ptext4:
  2117                           	opt callstack 0
  2118  002C0E                     _rtc_init:
  2119                           	opt callstack 26
  2120  002C0E                     
  2121                           ;timer.c: 14:  unsigned char sec = i2c_read(104, 0x00);
  2122  002C0E  0E00               	movlw	0
  2123  002C10  0100               	movlb	0	; () banked
  2124  002C12  6F60               	movwf	i2c_read@registers& (0+255),b
  2125  002C14  0E68               	movlw	104
  2126  002C16  ECAB  F010         	call	_i2c_read
  2127  002C1A  0100               	movlb	0	; () banked
  2128  002C1C  6F6A               	movwf	rtc_init@sec& (0+255),b
  2129  002C1E                     
  2130                           ; BSR set to: 0
  2131                           ;timer.c: 17:  if ((sec&0x80)!= 0) {
  2132  002C1E  AF6A               	btfss	rtc_init@sec& (0+255),7,b
  2133  002C20  EF14  F016         	goto	u4451
  2134  002C24  EF16  F016         	goto	u4450
  2135  002C28                     u4451:
  2136  002C28  EF3A  F016         	goto	l4516
  2137  002C2C                     u4450:
  2138  002C2C                     
  2139                           ; BSR set to: 0
  2140                           ;timer.c: 18:   i2c_write(104, 0x00, sec & 0x7f);
  2141  002C2C  0E00               	movlw	0
  2142  002C2E  6F60               	movwf	i2c_write@registers& (0+255),b
  2143  002C30  516A               	movf	rtc_init@sec& (0+255),w,b
  2144  002C32  0B7F               	andlw	127
  2145  002C34  6F61               	movwf	i2c_write@data& (0+255),b
  2146  002C36  0E68               	movlw	104
  2147  002C38  ECE7  F014         	call	_i2c_write
  2148  002C3C                     
  2149                           ;timer.c: 20:   for (unsigned int i = 0; i < 500; i++) {
  2150  002C3C  0E00               	movlw	0
  2151  002C3E  0100               	movlb	0	; () banked
  2152  002C40  6F69               	movwf	(rtc_init@i+1)& (0+255),b
  2153  002C42  0E00               	movlw	0
  2154  002C44  6F68               	movwf	rtc_init@i& (0+255),b
  2155  002C46                     l4512:
  2156                           
  2157                           ; BSR set to: 0
  2158                           ;timer.c: 21:    _delay((unsigned long)((1)*(8000000/4000.0)));
  2159  002C46  0E03               	movlw	3
  2160  002C48  0100               	movlb	0	; () banked
  2161  002C4A  6F67               	movwf	??_rtc_init& (0+255),b
  2162  002C4C  0E97               	movlw	151
  2163  002C4E                     u5097:
  2164  002C4E  2EE8               	decfsz	wreg,f,c
  2165  002C50  D7FE               	bra	u5097
  2166  002C52  2F67               	decfsz	??_rtc_init& (0+255),f,b
  2167  002C54  D7FC               	bra	u5097
  2168  002C56  D000               	nop2	
  2169  002C58                     
  2170                           ;timer.c: 22:   }
  2171  002C58  0100               	movlb	0	; () banked
  2172  002C5A  4B68               	infsnz	rtc_init@i& (0+255),f,b
  2173  002C5C  2B69               	incf	(rtc_init@i+1)& (0+255),f,b
  2174  002C5E  0EF4               	movlw	244
  2175  002C60  5D68               	subwf	rtc_init@i& (0+255),w,b
  2176  002C62  0E01               	movlw	1
  2177  002C64  5969               	subwfb	(rtc_init@i+1)& (0+255),w,b
  2178  002C66  A0D8               	btfss	status,0,c
  2179  002C68  EF38  F016         	goto	u4461
  2180  002C6C  EF3A  F016         	goto	u4460
  2181  002C70                     u4461:
  2182  002C70  EF23  F016         	goto	l4512
  2183  002C74                     u4460:
  2184  002C74                     l4516:
  2185                           
  2186                           ; BSR set to: 0
  2187                           ;timer.c: 26:  unsigned char hour = i2c_read(104, 0x02);
  2188  002C74  0E02               	movlw	2
  2189  002C76  6F60               	movwf	i2c_read@registers& (0+255),b
  2190  002C78  0E68               	movlw	104
  2191  002C7A  ECAB  F010         	call	_i2c_read
  2192  002C7E  0100               	movlb	0	; () banked
  2193  002C80  6F6B               	movwf	rtc_init@hour& (0+255),b
  2194  002C82                     
  2195                           ; BSR set to: 0
  2196                           ;timer.c: 29:  if ((hour & 0x40) != 0) {
  2197  002C82  AD6B               	btfss	rtc_init@hour& (0+255),6,b
  2198  002C84  EF46  F016         	goto	u4471
  2199  002C88  EF48  F016         	goto	u4470
  2200  002C8C                     u4471:
  2201  002C8C  EF50  F016         	goto	l455
  2202  002C90                     u4470:
  2203  002C90                     
  2204                           ; BSR set to: 0
  2205                           ;timer.c: 30:   i2c_write(104, 0x02, hour & 0xbf);
  2206  002C90  0E02               	movlw	2
  2207  002C92  6F60               	movwf	i2c_write@registers& (0+255),b
  2208  002C94  516B               	movf	rtc_init@hour& (0+255),w,b
  2209  002C96  0BBF               	andlw	191
  2210  002C98  6F61               	movwf	i2c_write@data& (0+255),b
  2211  002C9A  0E68               	movlw	104
  2212  002C9C  ECE7  F014         	call	_i2c_write
  2213  002CA0                     l455:
  2214  002CA0  0012               	return		;funcret
  2215  002CA2                     __end_of_rtc_init:
  2216                           	opt callstack 0
  2217                           
  2218 ;; *************** function _i2c_write *****************
  2219 ;; Defined at:
  2220 ;;		line 103 in file "i2c.c"
  2221 ;; Parameters:    Size  Location     Type
  2222 ;;  address         1    wreg     unsigned char 
  2223 ;;  registers       1    0[BANK0 ] unsigned char 
  2224 ;;  data            1    1[BANK0 ] unsigned char 
  2225 ;; Auto vars:     Size  Location     Type
  2226 ;;  address         1    2[BANK0 ] unsigned char 
  2227 ;; Return value:  Size  Location     Type
  2228 ;;                  1    wreg      void 
  2229 ;; Registers used:
  2230 ;;		wreg, status,2, status,0
  2231 ;; Tracked objects:
  2232 ;;		On entry : 0/0
  2233 ;;		On exit  : 0/0
  2234 ;;		Unchanged: 0/0
  2235 ;; Data sizes:     COMRAM   BANK0   BANK1   BANK2   BANK3   BANK4   BANK5   BANK6   BANK7
  2236 ;;      Params:         0       2       0       0       0       0       0       0       0
  2237 ;;      Locals:         0       1       0       0       0       0       0       0       0
  2238 ;;      Temps:          0       0       0       0       0       0       0       0       0
  2239 ;;      Totals:         0       3       0       0       0       0       0       0       0
  2240 ;;Total ram usage:        3 bytes
  2241 ;; Hardware stack levels used:    1
  2242 ;; Hardware stack levels required when called:    3
  2243 ;; This function calls:
  2244 ;;		Nothing
  2245 ;; This function is called by:
  2246 ;;		_rtc_init
  2247 ;;		_set_seconds
  2248 ;;		_set_minutes
  2249 ;;		_set_hours
  2250 ;;		_set_dayname
  2251 ;;		_set_months
  2252 ;;		_set_days
  2253 ;;		_set_years
  2254 ;;		_set_Aseconds
  2255 ;;		_set_Aminutes
  2256 ;;		_set_Ahours
  2257 ;; This function uses a non-reentrant model
  2258 ;;
  2259                           
  2260                           	psect	text5
  2261  0029CE                     __ptext5:
  2262                           	opt callstack 0
  2263  0029CE                     _i2c_write:
  2264                           	opt callstack 26
  2265                           
  2266                           ;incstack = 0
  2267                           ;i2c_write@address stored from wreg
  2268  0029CE  0100               	movlb	0	; () banked
  2269  0029D0  6F62               	movwf	i2c_write@address& (0+255),b
  2270  0029D2                     
  2271                           ;i2c.c: 104:  SSP1CON2bits.SEN = 1;
  2272  0029D2  8096               	bsf	150,0,c	;volatile
  2273  0029D4                     l400:
  2274  0029D4  B096               	btfsc	150,0,c	;volatile
  2275  0029D6  EFEF  F014         	goto	u3191
  2276  0029DA  EFF1  F014         	goto	u3190
  2277  0029DE                     u3191:
  2278  0029DE  EFEA  F014         	goto	l400
  2279  0029E2                     u3190:
  2280  0029E2                     
  2281                           ;i2c.c: 107:  SSP1BUF = (address << 1) & 0xfe;
  2282  0029E2  0100               	movlb	0	; () banked
  2283  0029E4  5162               	movf	i2c_write@address& (0+255),w,b
  2284  0029E6  2562               	addwf	i2c_write@address& (0+255),w,b
  2285  0029E8  0BFE               	andlw	254
  2286  0029EA  6E91               	movwf	145,c	;volatile
  2287  0029EC                     l403:
  2288  0029EC  B494               	btfsc	148,2,c	;volatile
  2289  0029EE  EFFB  F014         	goto	u3201
  2290  0029F2  EFFD  F014         	goto	u3200
  2291  0029F6                     u3201:
  2292  0029F6  EFF6  F014         	goto	l403
  2293  0029FA                     u3200:
  2294  0029FA                     
  2295                           ;i2c.c: 112:  if (SSP1CON2bits.ACKSTAT == 1) {
  2296  0029FA  AC96               	btfss	150,6,c	;volatile
  2297  0029FC  EF02  F015         	goto	u3211
  2298  002A00  EF04  F015         	goto	u3210
  2299  002A04                     u3211:
  2300  002A04  EF0E  F015         	goto	l406
  2301  002A08                     u3210:
  2302  002A08                     
  2303                           ;i2c.c: 113:   SSP1CON2bits.PEN = 1;
  2304  002A08  8496               	bsf	150,2,c	;volatile
  2305  002A0A                     l407:
  2306  002A0A  B496               	btfsc	150,2,c	;volatile
  2307  002A0C  EF0A  F015         	goto	u3221
  2308  002A10  EF0C  F015         	goto	u3220
  2309  002A14                     u3221:
  2310  002A14  EF05  F015         	goto	l407
  2311  002A18                     u3220:
  2312  002A18  EF4A  F015         	goto	l410
  2313  002A1C                     l406:
  2314                           
  2315                           ;i2c.c: 118:  SSP1BUF = registers;
  2316  002A1C  C060  FF91         	movff	i2c_write@registers,3985	;volatile
  2317  002A20                     l411:
  2318  002A20  B494               	btfsc	148,2,c	;volatile
  2319  002A22  EF15  F015         	goto	u3231
  2320  002A26  EF17  F015         	goto	u3230
  2321  002A2A                     u3231:
  2322  002A2A  EF10  F015         	goto	l411
  2323  002A2E                     u3230:
  2324  002A2E                     
  2325                           ;i2c.c: 123:  if (SSP1CON2bits.ACKSTAT == 1) {
  2326  002A2E  AC96               	btfss	150,6,c	;volatile
  2327  002A30  EF1C  F015         	goto	u3241
  2328  002A34  EF1E  F015         	goto	u3240
  2329  002A38                     u3241:
  2330  002A38  EF28  F015         	goto	l414
  2331  002A3C                     u3240:
  2332  002A3C                     
  2333                           ;i2c.c: 124:   SSP1CON2bits.PEN = 1;
  2334  002A3C  8496               	bsf	150,2,c	;volatile
  2335  002A3E                     l415:
  2336  002A3E  B496               	btfsc	150,2,c	;volatile
  2337  002A40  EF24  F015         	goto	u3251
  2338  002A44  EF26  F015         	goto	u3250
  2339  002A48                     u3251:
  2340  002A48  EF1F  F015         	goto	l415
  2341  002A4C                     u3250:
  2342  002A4C  EF4A  F015         	goto	l410
  2343  002A50                     l414:
  2344                           
  2345                           ;i2c.c: 129:  SSP1BUF = data;
  2346  002A50  C061  FF91         	movff	i2c_write@data,3985	;volatile
  2347  002A54                     l418:
  2348  002A54  B494               	btfsc	148,2,c	;volatile
  2349  002A56  EF2F  F015         	goto	u3261
  2350  002A5A  EF31  F015         	goto	u3260
  2351  002A5E                     u3261:
  2352  002A5E  EF2A  F015         	goto	l418
  2353  002A62                     u3260:
  2354  002A62                     
  2355                           ;i2c.c: 133:  if (SSP1CON2bits.ACKSTAT == 1) {
  2356  002A62  AC96               	btfss	150,6,c	;volatile
  2357  002A64  EF36  F015         	goto	u3271
  2358  002A68  EF38  F015         	goto	u3270
  2359  002A6C                     u3271:
  2360  002A6C  EF42  F015         	goto	l421
  2361  002A70                     u3270:
  2362  002A70                     
  2363                           ;i2c.c: 134:   SSP1CON2bits.PEN = 1;
  2364  002A70  8496               	bsf	150,2,c	;volatile
  2365  002A72                     l422:
  2366  002A72  B496               	btfsc	150,2,c	;volatile
  2367  002A74  EF3E  F015         	goto	u3281
  2368  002A78  EF40  F015         	goto	u3280
  2369  002A7C                     u3281:
  2370  002A7C  EF39  F015         	goto	l422
  2371  002A80                     u3280:
  2372  002A80  EF4A  F015         	goto	l410
  2373  002A84                     l421:
  2374                           
  2375                           ;i2c.c: 139:     SSP1CON2bits.PEN = 1;
  2376  002A84  8496               	bsf	150,2,c	;volatile
  2377  002A86                     l425:
  2378  002A86  B496               	btfsc	150,2,c	;volatile
  2379  002A88  EF48  F015         	goto	u3291
  2380  002A8C  EF4A  F015         	goto	u3290
  2381  002A90                     u3291:
  2382  002A90  EF43  F015         	goto	l425
  2383  002A94                     u3290:
  2384  002A94                     l410:
  2385  002A94  0012               	return		;funcret
  2386  002A96                     __end_of_i2c_write:
  2387                           	opt callstack 0
  2388                           
  2389 ;; *************** function _pwm_init *****************
  2390 ;; Defined at:
  2391 ;;		line 203 in file "senior_main.c"
  2392 ;; Parameters:    Size  Location     Type
  2393 ;;		None
  2394 ;; Auto vars:     Size  Location     Type
  2395 ;;		None
  2396 ;; Return value:  Size  Location     Type
  2397 ;;                  1    wreg      void 
  2398 ;; Registers used:
  2399 ;;		wreg, status,2
  2400 ;; Tracked objects:
  2401 ;;		On entry : 0/0
  2402 ;;		On exit  : 0/0
  2403 ;;		Unchanged: 0/0
  2404 ;; Data sizes:     COMRAM   BANK0   BANK1   BANK2   BANK3   BANK4   BANK5   BANK6   BANK7
  2405 ;;      Params:         0       0       0       0       0       0       0       0       0
  2406 ;;      Locals:         0       0       0       0       0       0       0       0       0
  2407 ;;      Temps:          0       0       0       0       0       0       0       0       0
  2408 ;;      Totals:         0       0       0       0       0       0       0       0       0
  2409 ;;Total ram usage:        0 bytes
  2410 ;; Hardware stack levels used:    1
  2411 ;; Hardware stack levels required when called:    3
  2412 ;; This function calls:
  2413 ;;		Nothing
  2414 ;; This function is called by:
  2415 ;;		_main
  2416 ;; This function uses a non-reentrant model
  2417 ;;
  2418                           
  2419                           	psect	text6
  2420  003190                     __ptext6:
  2421                           	opt callstack 0
  2422  003190                     _pwm_init:
  2423                           	opt callstack 27
  2424  003190                     
  2425                           ;senior_main.c: 204:     T2CON = 0xF0;
  2426  003190  0E07               	movlw	7
  2427  003192  010E               	movlb	14	; () banked
  2428  003194  6FE6               	movwf	230,b	;volatile
  2429                           
  2430                           ;senior_main.c: 207: 
  2431  003196  0E00               	movlw	0
  2432  003198  6FD5               	movwf	213,b	;volatile
  2433                           
  2434                           ;senior_main.c: 209: 
  2435  00319A  0E00               	movlw	0
  2436  00319C  6FD7               	movwf	215,b	;volatile
  2437                           
  2438                           ;senior_main.c: 211:     RC6PPS = 0x05;
  2439  00319E  0E00               	movlw	0
  2440  0031A0  6FD8               	movwf	216,b	;volatile
  2441                           
  2442                           ;senior_main.c: 214: 
  2443  0031A2  50AD               	movf	173,w,c	;volatile
  2444  0031A4  0BCF               	andlw	-49
  2445  0031A6  0910               	iorlw	16
  2446  0031A8  6EAD               	movwf	173,c	;volatile
  2447                           
  2448                           ;senior_main.c: 217: 
  2449  0031AA  0E00               	movlw	0
  2450  0031AC  6FDD               	movwf	221,b	;volatile
  2451                           
  2452                           ;senior_main.c: 219:  CCPTMRSbits.C1TSEL = 2;
  2453  0031AE  0E00               	movlw	0
  2454  0031B0  6FDF               	movwf	223,b	;volatile
  2455                           
  2456                           ;senior_main.c: 224:     T4HLT = 0x00;
  2457  0031B2  0E01               	movlw	1
  2458  0031B4  6EBE               	movwf	190,c	;volatile
  2459                           
  2460                           ;senior_main.c: 226:     T4RST = 0x00;
  2461  0031B6  0EA0               	movlw	160
  2462  0031B8  6EBD               	movwf	189,c	;volatile
  2463                           
  2464                           ;senior_main.c: 228:     T4PR = 0x9B;
  2465  0031BA  0E00               	movlw	0
  2466  0031BC  6EBF               	movwf	191,c	;volatile
  2467                           
  2468                           ;senior_main.c: 230:     T4TMR = 0x00;
  2469  0031BE  0E9B               	movlw	155
  2470  0031C0  6EBB               	movwf	187,c	;volatile
  2471                           
  2472                           ;senior_main.c: 232:     T4CON = 0xF0;
  2473  0031C2  0E00               	movlw	0
  2474  0031C4  6EBA               	movwf	186,c	;volatile
  2475                           
  2476                           ;senior_main.c: 234: 
  2477  0031C6  0EF0               	movlw	240
  2478  0031C8  6EBC               	movwf	188,c	;volatile
  2479  0031CA                     
  2480                           ; BSR set to: 14
  2481  0031CA  0012               	return		;funcret
  2482  0031CC                     __end_of_pwm_init:
  2483                           	opt callstack 0
  2484                           
  2485 ;; *************** function _lcd_init *****************
  2486 ;; Defined at:
  2487 ;;		line 61 in file "lcd.c"
  2488 ;; Parameters:    Size  Location     Type
  2489 ;;		None
  2490 ;; Auto vars:     Size  Location     Type
  2491 ;;		None
  2492 ;; Return value:  Size  Location     Type
  2493 ;;                  1    wreg      void 
  2494 ;; Registers used:
  2495 ;;		wreg, status,2, status,0, cstack
  2496 ;; Tracked objects:
  2497 ;;		On entry : 0/0
  2498 ;;		On exit  : 0/0
  2499 ;;		Unchanged: 0/0
  2500 ;; Data sizes:     COMRAM   BANK0   BANK1   BANK2   BANK3   BANK4   BANK5   BANK6   BANK7
  2501 ;;      Params:         0       0       0       0       0       0       0       0       0
  2502 ;;      Locals:         0       0       0       0       0       0       0       0       0
  2503 ;;      Temps:          0       0       0       0       0       0       0       0       0
  2504 ;;      Totals:         0       0       0       0       0       0       0       0       0
  2505 ;;Total ram usage:        0 bytes
  2506 ;; Hardware stack levels used:    1
  2507 ;; Hardware stack levels required when called:    4
  2508 ;; This function calls:
  2509 ;;		_lcd_command
  2510 ;; This function is called by:
  2511 ;;		_main
  2512 ;; This function uses a non-reentrant model
  2513 ;;
  2514                           
  2515                           	psect	text7
  2516  003378                     __ptext7:
  2517                           	opt callstack 0
  2518  003378                     _lcd_init:
  2519                           	opt callstack 26
  2520  003378                     
  2521                           ;lcd.c: 62:  lcd_command(0x33);
  2522  003378  0E33               	movlw	51
  2523  00337A  EC4C  F013         	call	_lcd_command
  2524                           
  2525                           ;lcd.c: 63:  lcd_command(0x32);
  2526  00337E  0E32               	movlw	50
  2527  003380  EC4C  F013         	call	_lcd_command
  2528                           
  2529                           ;lcd.c: 64:  lcd_command(0x2C);
  2530  003384  0E2C               	movlw	44
  2531  003386  EC4C  F013         	call	_lcd_command
  2532                           
  2533                           ;lcd.c: 65:  lcd_command(0x0C);
  2534  00338A  0E0C               	movlw	12
  2535  00338C  EC4C  F013         	call	_lcd_command
  2536                           
  2537                           ;lcd.c: 66:  lcd_command(0x01);
  2538  003390  0E01               	movlw	1
  2539  003392  EC4C  F013         	call	_lcd_command
  2540  003396  0012               	return		;funcret
  2541  003398                     __end_of_lcd_init:
  2542                           	opt callstack 0
  2543                           
  2544 ;; *************** function _i2c_init *****************
  2545 ;; Defined at:
  2546 ;;		line 10 in file "i2c.c"
  2547 ;; Parameters:    Size  Location     Type
  2548 ;;		None
  2549 ;; Auto vars:     Size  Location     Type
  2550 ;;		None
  2551 ;; Return value:  Size  Location     Type
  2552 ;;                  1    wreg      void 
  2553 ;; Registers used:
  2554 ;;		wreg, status,2
  2555 ;; Tracked objects:
  2556 ;;		On entry : 0/0
  2557 ;;		On exit  : 0/0
  2558 ;;		Unchanged: 0/0
  2559 ;; Data sizes:     COMRAM   BANK0   BANK1   BANK2   BANK3   BANK4   BANK5   BANK6   BANK7
  2560 ;;      Params:         0       0       0       0       0       0       0       0       0
  2561 ;;      Locals:         0       0       0       0       0       0       0       0       0
  2562 ;;      Temps:          0       0       0       0       0       0       0       0       0
  2563 ;;      Totals:         0       0       0       0       0       0       0       0       0
  2564 ;;Total ram usage:        0 bytes
  2565 ;; Hardware stack levels used:    1
  2566 ;; Hardware stack levels required when called:    3
  2567 ;; This function calls:
  2568 ;;		Nothing
  2569 ;; This function is called by:
  2570 ;;		_main
  2571 ;; This function uses a non-reentrant model
  2572 ;;
  2573                           
  2574                           	psect	text8
  2575  0032DA                     __ptext8:
  2576                           	opt callstack 0
  2577  0032DA                     _i2c_init:
  2578                           	opt callstack 27
  2579  0032DA                     
  2580                           ;i2c.c: 12:     TRISCbits.TRISC3 = 1;
  2581  0032DA  8689               	bsf	137,3,c	;volatile
  2582                           
  2583                           ;i2c.c: 13:     TRISCbits.TRISC4 = 1;
  2584  0032DC  8889               	bsf	137,4,c	;volatile
  2585  0032DE                     
  2586                           ;i2c.c: 17:     SSP1CLKPPS = 0x13;
  2587  0032DE  0E13               	movlw	19
  2588  0032E0  010E               	movlb	14	; () banked
  2589  0032E2  6FB2               	movwf	178,b	;volatile
  2590                           
  2591                           ;i2c.c: 18:     SSP1DATPPS = 0x14;
  2592  0032E4  0E14               	movlw	20
  2593  0032E6  6FB3               	movwf	179,b	;volatile
  2594                           
  2595                           ;i2c.c: 20:     RC4PPS = 0x10;
  2596  0032E8  0E10               	movlw	16
  2597  0032EA  6FF6               	movwf	246,b	;volatile
  2598                           
  2599                           ;i2c.c: 21:     RC3PPS = 0x0F;
  2600  0032EC  0E0F               	movlw	15
  2601  0032EE  6FF5               	movwf	245,b	;volatile
  2602                           
  2603                           ;i2c.c: 24:     SSP1ADD = 12;
  2604  0032F0  0E0C               	movlw	12
  2605  0032F2  6E92               	movwf	146,c	;volatile
  2606                           
  2607                           ;i2c.c: 26:     SSP1CON1bits.SSPM = 8;
  2608  0032F4  5095               	movf	149,w,c	;volatile
  2609  0032F6  0BF0               	andlw	-16
  2610  0032F8  0908               	iorlw	8
  2611  0032FA  6E95               	movwf	149,c	;volatile
  2612  0032FC                     
  2613                           ; BSR set to: 14
  2614                           ;i2c.c: 28:     SSP1CON1bits.WCOL = 0;
  2615  0032FC  9E95               	bcf	149,7,c	;volatile
  2616  0032FE                     
  2617                           ; BSR set to: 14
  2618                           ;i2c.c: 29:     SSP1CON1bits.SSPOV = 0;
  2619  0032FE  9C95               	bcf	149,6,c	;volatile
  2620  003300                     
  2621                           ; BSR set to: 14
  2622                           ;i2c.c: 30:     SSP1CON1bits.SSPEN = 1;
  2623  003300  8A95               	bsf	149,5,c	;volatile
  2624  003302                     
  2625                           ; BSR set to: 14
  2626  003302  0012               	return		;funcret
  2627  003304                     __end_of_i2c_init:
  2628                           	opt callstack 0
  2629                           
  2630 ;; *************** function _ccp_init *****************
  2631 ;; Defined at:
  2632 ;;		line 240 in file "senior_main.c"
  2633 ;; Parameters:    Size  Location     Type
  2634 ;;		None
  2635 ;; Auto vars:     Size  Location     Type
  2636 ;;		None
  2637 ;; Return value:  Size  Location     Type
  2638 ;;                  1    wreg      void 
  2639 ;; Registers used:
  2640 ;;		wreg, status,2
  2641 ;; Tracked objects:
  2642 ;;		On entry : 0/0
  2643 ;;		On exit  : 0/0
  2644 ;;		Unchanged: 0/0
  2645 ;; Data sizes:     COMRAM   BANK0   BANK1   BANK2   BANK3   BANK4   BANK5   BANK6   BANK7
  2646 ;;      Params:         0       0       0       0       0       0       0       0       0
  2647 ;;      Locals:         0       0       0       0       0       0       0       0       0
  2648 ;;      Temps:          0       0       0       0       0       0       0       0       0
  2649 ;;      Totals:         0       0       0       0       0       0       0       0       0
  2650 ;;Total ram usage:        0 bytes
  2651 ;; Hardware stack levels used:    1
  2652 ;; Hardware stack levels required when called:    3
  2653 ;; This function calls:
  2654 ;;		Nothing
  2655 ;; This function is called by:
  2656 ;;		_main
  2657 ;; This function uses a non-reentrant model
  2658 ;;
  2659                           
  2660                           	psect	text9
  2661  002F46                     __ptext9:
  2662                           	opt callstack 0
  2663  002F46                     _ccp_init:
  2664                           	opt callstack 27
  2665  002F46                     
  2666                           ;senior_main.c: 241:     CCP2CONbits.EN = 1;
  2667  002F46  0E05               	movlw	5
  2668  002F48  010E               	movlb	14	; () banked
  2669  002F4A  6FF8               	movwf	248,b	;volatile
  2670                           
  2671                           ;senior_main.c: 242: 
  2672  002F4C  0E06               	movlw	6
  2673  002F4E  6FF7               	movwf	247,b	;volatile
  2674                           
  2675                           ;senior_main.c: 246: }
  2676  002F50  0E8C               	movlw	140
  2677  002F52  6EAB               	movwf	171,c	;volatile
  2678                           
  2679                           ;senior_main.c: 249: 
  2680  002F54  50AD               	movf	173,w,c	;volatile
  2681  002F56  0BFC               	andlw	-4
  2682  002F58  0902               	iorlw	2
  2683  002F5A  6EAD               	movwf	173,c	;volatile
  2684                           
  2685                           ;senior_main.c: 252:     lcd_command(0x02);
  2686  002F5C  0E01               	movlw	1
  2687  002F5E  6EB8               	movwf	184,c	;volatile
  2688                           
  2689                           ;senior_main.c: 254:     char array[2];
  2690  002F60  0E00               	movlw	0
  2691  002F62  6EB7               	movwf	183,c	;volatile
  2692                           
  2693                           ;senior_main.c: 256:     char temp2 = array[1];
  2694  002F64  0E00               	movlw	0
  2695  002F66  6EB9               	movwf	185,c	;volatile
  2696                           
  2697                           ;senior_main.c: 258: 
  2698  002F68  0E9B               	movlw	155
  2699  002F6A  6EB5               	movwf	181,c	;volatile
  2700                           
  2701                           ;senior_main.c: 260: 
  2702  002F6C  0E00               	movlw	0
  2703  002F6E  6EB4               	movwf	180,c	;volatile
  2704                           
  2705                           ;senior_main.c: 262: 
  2706  002F70  0EF0               	movlw	240
  2707  002F72  6EB6               	movwf	182,c	;volatile
  2708                           
  2709                           ;senior_main.c: 265:     temp2 = array[1];
  2710  002F74  0E00               	movlw	0
  2711  002F76  6EAA               	movwf	170,c	;volatile
  2712                           
  2713                           ;senior_main.c: 266:     if((temp1 != 0) && (temp2 != 0)){
  2714  002F78  0E50               	movlw	80
  2715  002F7A  6EA9               	movwf	169,c	;volatile
  2716                           
  2717                           ;senior_main.c: 269:     }
  2718  002F7C  50A7               	movf	167,w,c	;volatile
  2719  002F7E  0BF0               	andlw	-16
  2720  002F80  090C               	iorlw	12
  2721  002F82  6EA7               	movwf	167,c	;volatile
  2722  002F84                     
  2723                           ; BSR set to: 14
  2724                           ;senior_main.c: 270:     else if((temp1 != 0) && (temp2 == 0)){
  2725  002F84  98A7               	bcf	167,4,c	;volatile
  2726  002F86                     
  2727                           ; BSR set to: 14
  2728                           ;senior_main.c: 271:         lcd_char('0');
  2729  002F86  8EA7               	bsf	167,7,c	;volatile
  2730                           
  2731                           ;senior_main.c: 274:     else{
  2732  002F88  0E00               	movlw	0
  2733  002F8A  6EA6               	movwf	166,c	;volatile
  2734                           
  2735                           ;senior_main.c: 275:         lcd_char('0');
  2736  002F8C  0E50               	movlw	80
  2737  002F8E  6EA5               	movwf	165,c	;volatile
  2738  002F90                     
  2739                           ; BSR set to: 14
  2740  002F90  0012               	return		;funcret
  2741  002F92                     __end_of_ccp_init:
  2742                           	opt callstack 0
  2743                           
  2744 ;; *************** function _adc_init *****************
  2745 ;; Defined at:
  2746 ;;		line 9 in file "adc.c"
  2747 ;; Parameters:    Size  Location     Type
  2748 ;;		None
  2749 ;; Auto vars:     Size  Location     Type
  2750 ;;		None
  2751 ;; Return value:  Size  Location     Type
  2752 ;;                  1    wreg      void 
  2753 ;; Registers used:
  2754 ;;		wreg, status,2
  2755 ;; Tracked objects:
  2756 ;;		On entry : 0/0
  2757 ;;		On exit  : 0/0
  2758 ;;		Unchanged: 0/0
  2759 ;; Data sizes:     COMRAM   BANK0   BANK1   BANK2   BANK3   BANK4   BANK5   BANK6   BANK7
  2760 ;;      Params:         0       0       0       0       0       0       0       0       0
  2761 ;;      Locals:         0       0       0       0       0       0       0       0       0
  2762 ;;      Temps:          0       0       0       0       0       0       0       0       0
  2763 ;;      Totals:         0       0       0       0       0       0       0       0       0
  2764 ;;Total ram usage:        0 bytes
  2765 ;; Hardware stack levels used:    1
  2766 ;; Hardware stack levels required when called:    3
  2767 ;; This function calls:
  2768 ;;		Nothing
  2769 ;; This function is called by:
  2770 ;;		_main
  2771 ;; This function uses a non-reentrant model
  2772 ;;
  2773                           
  2774                           	psect	text10
  2775  003398                     __ptext10:
  2776                           	opt callstack 0
  2777  003398                     _adc_init:
  2778                           	opt callstack 27
  2779  003398                     
  2780                           ;adc.c: 10:     TRISAbits.TRISA0 = 1;
  2781  003398  8087               	bsf	135,0,c	;volatile
  2782  00339A                     
  2783                           ;adc.c: 13:     ANSELC = 0x0;
  2784  00339A  0E00               	movlw	0
  2785  00339C  010F               	movlb	15	; () banked
  2786  00339E  6F1C               	movwf	28,b	;volatile
  2787  0033A0                     
  2788                           ; BSR set to: 15
  2789  0033A0  0012               	return		;funcret
  2790  0033A2                     __end_of_adc_init:
  2791                           	opt callstack 0
  2792                           
  2793 ;; *************** function _adcNum0 *****************
  2794 ;; Defined at:
  2795 ;;		line 19 in file "adc.c"
  2796 ;; Parameters:    Size  Location     Type
  2797 ;;		None
  2798 ;; Auto vars:     Size  Location     Type
  2799 ;;		None
  2800 ;; Return value:  Size  Location     Type
  2801 ;;                  4    0[BANK0 ] unsigned long 
  2802 ;; Registers used:
  2803 ;;		wreg, status,2, status,0
  2804 ;; Tracked objects:
  2805 ;;		On entry : 0/0
  2806 ;;		On exit  : 0/0
  2807 ;;		Unchanged: 0/0
  2808 ;; Data sizes:     COMRAM   BANK0   BANK1   BANK2   BANK3   BANK4   BANK5   BANK6   BANK7
  2809 ;;      Params:         0       4       0       0       0       0       0       0       0
  2810 ;;      Locals:         0       0       0       0       0       0       0       0       0
  2811 ;;      Temps:          0       3       0       0       0       0       0       0       0
  2812 ;;      Totals:         0       7       0       0       0       0       0       0       0
  2813 ;;Total ram usage:        7 bytes
  2814 ;; Hardware stack levels used:    1
  2815 ;; Hardware stack levels required when called:    3
  2816 ;; This function calls:
  2817 ;;		Nothing
  2818 ;; This function is called by:
  2819 ;;		_main
  2820 ;; This function uses a non-reentrant model
  2821 ;;
  2822                           
  2823                           	psect	text11
  2824  00310A                     __ptext11:
  2825                           	opt callstack 0
  2826  00310A                     _adcNum0:
  2827                           	opt callstack 27
  2828  00310A                     
  2829                           ;adc.c: 20:     ADCON0 = 0x00;
  2830  00310A  0E00               	movlw	0
  2831  00310C  010F               	movlb	15	; () banked
  2832  00310E  6F5B               	movwf	91,b	;volatile
  2833                           
  2834                           ;adc.c: 21:     ADPCH = 0;
  2835  003110  0E00               	movlw	0
  2836  003112  6F5A               	movwf	90,b	;volatile
  2837  003114                     
  2838                           ; BSR set to: 15
  2839                           ;adc.c: 22:     ADCON0bits.ADON = 1;
  2840  003114  8F5B               	bsf	91,7,b	;volatile
  2841  003116                     
  2842                           ; BSR set to: 15
  2843                           ;adc.c: 23:     ADCON0bits.GO = 1;
  2844  003116  815B               	bsf	91,0,b	;volatile
  2845  003118                     l328:
  2846                           
  2847                           ; BSR set to: 15
  2848  003118  B15B               	btfsc	91,0,b	;volatile
  2849  00311A  EF91  F018         	goto	u4501
  2850  00311E  EF93  F018         	goto	u4500
  2851  003122                     u4501:
  2852  003122  EF8C  F018         	goto	l328
  2853  003126                     u4500:
  2854  003126                     
  2855                           ; BSR set to: 15
  2856                           ;adc.c: 27:     ADCON0bits.ADON = 0;
  2857  003126  9F5B               	bcf	91,7,b	;volatile
  2858  003128                     
  2859                           ; BSR set to: 15
  2860                           ;adc.c: 30:     return (ADRES >> 6);
  2861  003128  CF5E F064          	movff	3934,??_adcNum0	;volatile
  2862  00312C  CF5F F065          	movff	3935,??_adcNum0+1	;volatile
  2863  003130  0E06               	movlw	6
  2864  003132  0100               	movlb	0	; () banked
  2865  003134  6F66               	movwf	(??_adcNum0+2)& (0+255),b
  2866  003136                     u4515:
  2867  003136  90D8               	bcf	status,0,c
  2868  003138  3365               	rrcf	(??_adcNum0+1)& (0+255),f,b
  2869  00313A  3364               	rrcf	??_adcNum0& (0+255),f,b
  2870  00313C  2F66               	decfsz	(??_adcNum0+2)& (0+255),f,b
  2871  00313E  EF9B  F018         	goto	u4515
  2872  003142  C064  F060         	movff	??_adcNum0,?_adcNum0
  2873  003146  C065  F061         	movff	??_adcNum0+1,?_adcNum0+1
  2874  00314A  6B62               	clrf	(?_adcNum0+2)& (0+255),b
  2875  00314C  6B63               	clrf	(?_adcNum0+3)& (0+255),b
  2876  00314E                     
  2877                           ; BSR set to: 0
  2878  00314E  0012               	return		;funcret
  2879  003150                     __end_of_adcNum0:
  2880                           	opt callstack 0
  2881                           
  2882 ;; *************** function _IRpath1 *****************
  2883 ;; Defined at:
  2884 ;;		line 353 in file "senior_main.c"
  2885 ;; Parameters:    Size  Location     Type
  2886 ;;		None
  2887 ;; Auto vars:     Size  Location     Type
  2888 ;;  i               2  121[BANK0 ] int 
  2889 ;;  i               2  119[BANK0 ] int 
  2890 ;;  dist2           2  131[BANK0 ] int 
  2891 ;;  dist1           2  129[BANK0 ] int 
  2892 ;;  dist3           2  127[BANK0 ] int 
  2893 ;;  distcr          2  117[BANK0 ] int 
  2894 ;;  distlr          2  115[BANK0 ] int 
  2895 ;;  turncheck       2  125[BANK0 ] int 
  2896 ;;  check           2  123[BANK0 ] int 
  2897 ;; Return value:  Size  Location     Type
  2898 ;;                  1    wreg      void 
  2899 ;; Registers used:
  2900 ;;		wreg, fsr1l, fsr1h, fsr2l, fsr2h, status,2, status,0, tblptrl, tblptrh, tblptru, prodl, prodh, cstack
  2901 ;; Tracked objects:
  2902 ;;		On entry : 0/0
  2903 ;;		On exit  : 0/0
  2904 ;;		Unchanged: 0/0
  2905 ;; Data sizes:     COMRAM   BANK0   BANK1   BANK2   BANK3   BANK4   BANK5   BANK6   BANK7
  2906 ;;      Params:         0       0       0       0       0       0       0       0       0
  2907 ;;      Locals:         0      18       0       0       0       0       0       0       0
  2908 ;;      Temps:          0       2       0       0       0       0       0       0       0
  2909 ;;      Totals:         0      20       0       0       0       0       0       0       0
  2910 ;;Total ram usage:       20 bytes
  2911 ;; Hardware stack levels used:    1
  2912 ;; Hardware stack levels required when called:   12
  2913 ;; This function calls:
  2914 ;;		_backward
  2915 ;;		_forward
  2916 ;;		_lcdprint
  2917 ;;		_lturn
  2918 ;;		_reversel
  2919 ;;		_reverser
  2920 ;;		_rturn
  2921 ;;		_ultra_dist
  2922 ;; This function is called by:
  2923 ;;		_main
  2924 ;; This function uses a non-reentrant model
  2925 ;;
  2926                           
  2927                           	psect	text12
  2928  00116C                     __ptext12:
  2929                           	opt callstack 0
  2930  00116C                     _IRpath1:
  2931                           	opt callstack 18
  2932  00116C                     
  2933                           ;senior_main.c: 354:         if(turncheck == 0){
  2934  00116C  0E00               	movlw	0
  2935  00116E  0100               	movlb	0	; () banked
  2936  001170  6FDC               	movwf	(IRpath1@check+1)& (0+255),b
  2937  001172  0E01               	movlw	1
  2938  001174  6FDB               	movwf	IRpath1@check& (0+255),b
  2939                           
  2940                           ;senior_main.c: 355: 
  2941  001176  0E00               	movlw	0
  2942  001178  6FDE               	movwf	(IRpath1@turncheck+1)& (0+255),b
  2943  00117A  0E01               	movlw	1
  2944  00117C  6FDD               	movwf	IRpath1@turncheck& (0+255),b
  2945                           
  2946                           ;senior_main.c: 356:             PWM3DCH = 0x0B;
  2947  00117E  EF20  F009         	goto	l4328
  2948  001182                     l4298:
  2949                           
  2950                           ; BSR set to: 0
  2951                           ;senior_main.c: 359:             PWM3CONbits.PWM3EN = 1;
  2952  001182  51DD               	movf	IRpath1@turncheck& (0+255),w,b
  2953  001184  11DE               	iorwf	(IRpath1@turncheck+1)& (0+255),w,b
  2954  001186  B4D8               	btfsc	status,2,c
  2955  001188  EFC8  F008         	goto	u4271
  2956  00118C  EFCA  F008         	goto	u4270
  2957  001190                     u4271:
  2958  001190  EFE6  F008         	goto	l4312
  2959  001194                     u4270:
  2960  001194                     
  2961                           ; BSR set to: 0
  2962                           ;senior_main.c: 360:             _delay((unsigned long)((800)*(8000000/4000.0)));
  2963  001194  0E12               	movlw	18
  2964  001196  6EA3               	movwf	163,c	;volatile
  2965                           
  2966                           ;senior_main.c: 361:             PWM3CONbits.PWM3EN = 0;
  2967  001198  0EC0               	movlw	192
  2968  00119A  6EA2               	movwf	162,c	;volatile
  2969                           
  2970                           ;senior_main.c: 362:             turncheck=1;
  2971  00119C  0E00               	movlw	0
  2972  00119E  6EBA               	movwf	186,c	;volatile
  2973  0011A0                     
  2974                           ; BSR set to: 0
  2975                           ;senior_main.c: 363:             lcdprint();
  2976  0011A0  8EA4               	bsf	164,7,c	;volatile
  2977  0011A2                     
  2978                           ; BSR set to: 0
  2979                           ;senior_main.c: 364:         }
  2980  0011A2  0E09               	movlw	9
  2981  0011A4  0100               	movlb	0	; () banked
  2982  0011A6  6FD2               	movwf	(??_IRpath1+1)& (0+255),b
  2983  0011A8  0E1E               	movlw	30
  2984  0011AA  6FD1               	movwf	??_IRpath1& (0+255),b
  2985  0011AC  0EE4               	movlw	228
  2986  0011AE                     u5107:
  2987  0011AE  2EE8               	decfsz	wreg,f,c
  2988  0011B0  D7FE               	bra	u5107
  2989  0011B2  2FD1               	decfsz	??_IRpath1& (0+255),f,b
  2990  0011B4  D7FC               	bra	u5107
  2991  0011B6  2FD2               	decfsz	(??_IRpath1+1)& (0+255),f,b
  2992  0011B8  D7FA               	bra	u5107
  2993  0011BA  F000               	nop	
  2994  0011BC                     
  2995                           ;senior_main.c: 365:         int distcr = ultra_dist();
  2996  0011BC  9EA4               	bcf	164,7,c	;volatile
  2997  0011BE                     
  2998                           ;senior_main.c: 366: 
  2999  0011BE  0E00               	movlw	0
  3000  0011C0  0100               	movlb	0	; () banked
  3001  0011C2  6FDE               	movwf	(IRpath1@turncheck+1)& (0+255),b
  3002  0011C4  0E00               	movlw	0
  3003  0011C6  6FDD               	movwf	IRpath1@turncheck& (0+255),b
  3004  0011C8                     
  3005                           ; BSR set to: 0
  3006                           ;senior_main.c: 367:         if(distcr > 25){
  3007  0011C8  ECC1  F00C         	call	_lcdprint	;wreg free
  3008  0011CC                     l4312:
  3009                           
  3010                           ;senior_main.c: 369:         }
  3011  0011CC  EC3E  F019         	call	_ultra_dist	;wreg free
  3012  0011D0  C060  F0D3         	movff	?_ultra_dist,IRpath1@distlr
  3013  0011D4  C061  F0D4         	movff	?_ultra_dist+1,IRpath1@distlr+1
  3014  0011D8                     
  3015                           ;senior_main.c: 371:             forward(stop);
  3016  0011D8  0100               	movlb	0	; () banked
  3017  0011DA  BFD4               	btfsc	(IRpath1@distlr+1)& (0+255),7,b
  3018  0011DC  EFFB  F008         	goto	u4280
  3019  0011E0  51D4               	movf	(IRpath1@distlr+1)& (0+255),w,b
  3020  0011E2  E107               	bnz	u4281
  3021  0011E4  0E3C               	movlw	60
  3022  0011E6  5DD3               	subwf	IRpath1@distlr& (0+255),w,b
  3023  0011E8  B0D8               	btfsc	status,0,c
  3024  0011EA  EFF9  F008         	goto	u4281
  3025  0011EE  EFFB  F008         	goto	u4280
  3026  0011F2                     u4281:
  3027  0011F2  EF03  F009         	goto	l4318
  3028  0011F6                     u4280:
  3029  0011F6                     
  3030                           ; BSR set to: 0
  3031  0011F6  0E00               	movlw	0
  3032  0011F8  6F61               	movwf	(forward@gostop+1)& (0+255),b
  3033  0011FA  0E01               	movlw	1
  3034  0011FC  6F60               	movwf	forward@gostop& (0+255),b
  3035  0011FE  EC56  F019         	call	_forward	;wreg free
  3036                           
  3037                           ;senior_main.c: 373:             IOCBNbits.IOCBN4 = 0;
  3038  001202  EF20  F009         	goto	l4328
  3039  001206                     l4318:
  3040                           
  3041                           ; BSR set to: 0
  3042                           ;senior_main.c: 375:             IOCANbits.IOCAN2 = 0;
  3043  001206  0E03               	movlw	3
  3044  001208  0100               	movlb	0	; () banked
  3045  00120A  6FD2               	movwf	(??_IRpath1+1)& (0+255),b
  3046  00120C  0E8A               	movlw	138
  3047  00120E  6FD1               	movwf	??_IRpath1& (0+255),b
  3048  001210  0E55               	movlw	85
  3049  001212                     u5117:
  3050  001212  2EE8               	decfsz	wreg,f,c
  3051  001214  D7FE               	bra	u5117
  3052  001216  2FD1               	decfsz	??_IRpath1& (0+255),f,b
  3053  001218  D7FC               	bra	u5117
  3054  00121A  2FD2               	decfsz	(??_IRpath1+1)& (0+255),f,b
  3055  00121C  D7FA               	bra	u5117
  3056  00121E  D000               	nop2	
  3057  001220  0E00               	movlw	0
  3058  001222  0100               	movlb	0	; () banked
  3059  001224  6F61               	movwf	(forward@gostop+1)& (0+255),b
  3060  001226  0E00               	movlw	0
  3061  001228  6F60               	movwf	forward@gostop& (0+255),b
  3062  00122A  EC56  F019         	call	_forward	;wreg free
  3063  00122E                     
  3064                           ;senior_main.c: 377: 
  3065  00122E  ECC1  F00C         	call	_lcdprint	;wreg free
  3066  001232                     
  3067                           ;senior_main.c: 378:             PORTBbits.RB3 = 1;
  3068  001232  EC3B  F018         	call	_lturn	;wreg free
  3069  001236                     
  3070                           ;senior_main.c: 379: 
  3071  001236  0E00               	movlw	0
  3072  001238  0100               	movlb	0	; () banked
  3073  00123A  6FDC               	movwf	(IRpath1@check+1)& (0+255),b
  3074  00123C  0E00               	movlw	0
  3075  00123E  6FDB               	movwf	IRpath1@check& (0+255),b
  3076  001240                     l4328:
  3077                           
  3078                           ;senior_main.c: 356:             PWM3DCH = 0x0B;
  3079  001240  0100               	movlb	0	; () banked
  3080  001242  51DB               	movf	IRpath1@check& (0+255),w,b
  3081  001244  11DC               	iorwf	(IRpath1@check+1)& (0+255),w,b
  3082  001246  A4D8               	btfss	status,2,c
  3083  001248  EF28  F009         	goto	u4291
  3084  00124C  EF2A  F009         	goto	u4290
  3085  001250                     u4291:
  3086  001250  EFC1  F008         	goto	l4298
  3087  001254                     u4290:
  3088  001254  EFE9  F00A         	goto	l4482
  3089  001258                     l4330:
  3090                           
  3091                           ; BSR set to: 0
  3092                           ;senior_main.c: 384:                 _delay((unsigned long)((0.25)*(8000000/4000.0)));
  3093  001258  51DD               	movf	IRpath1@turncheck& (0+255),w,b
  3094  00125A  11DE               	iorwf	(IRpath1@turncheck+1)& (0+255),w,b
  3095  00125C  A4D8               	btfss	status,2,c
  3096  00125E  EF33  F009         	goto	u4301
  3097  001262  EF35  F009         	goto	u4300
  3098  001266                     u4301:
  3099  001266  EF51  F009         	goto	l4344
  3100  00126A                     u4300:
  3101  00126A                     
  3102                           ; BSR set to: 0
  3103                           ;senior_main.c: 386:                 _delay((unsigned long)((0.25)*(8000000/4000.0)));
  3104  00126A  0E0B               	movlw	11
  3105  00126C  6EA3               	movwf	163,c	;volatile
  3106                           
  3107                           ;senior_main.c: 387:             }
  3108  00126E  0EC0               	movlw	192
  3109  001270  6EA2               	movwf	162,c	;volatile
  3110                           
  3111                           ;senior_main.c: 388:             PORTBbits.RB0 = 0;
  3112  001272  0E00               	movlw	0
  3113  001274  6EBA               	movwf	186,c	;volatile
  3114  001276                     
  3115                           ; BSR set to: 0
  3116                           ;senior_main.c: 389: 
  3117  001276  8EA4               	bsf	164,7,c	;volatile
  3118  001278                     
  3119                           ; BSR set to: 0
  3120                           ;senior_main.c: 390: 
  3121  001278  0E09               	movlw	9
  3122  00127A  0100               	movlb	0	; () banked
  3123  00127C  6FD2               	movwf	(??_IRpath1+1)& (0+255),b
  3124  00127E  0E1E               	movlw	30
  3125  001280  6FD1               	movwf	??_IRpath1& (0+255),b
  3126  001282  0EE4               	movlw	228
  3127  001284                     u5127:
  3128  001284  2EE8               	decfsz	wreg,f,c
  3129  001286  D7FE               	bra	u5127
  3130  001288  2FD1               	decfsz	??_IRpath1& (0+255),f,b
  3131  00128A  D7FC               	bra	u5127
  3132  00128C  2FD2               	decfsz	(??_IRpath1+1)& (0+255),f,b
  3133  00128E  D7FA               	bra	u5127
  3134  001290  F000               	nop	
  3135  001292                     
  3136                           ;senior_main.c: 391: 
  3137  001292  9EA4               	bcf	164,7,c	;volatile
  3138  001294                     
  3139                           ;senior_main.c: 392:             PWM3DCH = 0x12;
  3140  001294  0E00               	movlw	0
  3141  001296  0100               	movlb	0	; () banked
  3142  001298  6FDE               	movwf	(IRpath1@turncheck+1)& (0+255),b
  3143  00129A  0E01               	movlw	1
  3144  00129C  6FDD               	movwf	IRpath1@turncheck& (0+255),b
  3145  00129E                     
  3146                           ; BSR set to: 0
  3147                           ;senior_main.c: 393:             PWM3DCL = 0xC0;
  3148  00129E  ECC1  F00C         	call	_lcdprint	;wreg free
  3149  0012A2                     l4344:
  3150                           
  3151                           ;senior_main.c: 395:             PWM3CONbits.PWM3EN = 1;
  3152  0012A2  EC3E  F019         	call	_ultra_dist	;wreg free
  3153  0012A6  C060  F0D5         	movff	?_ultra_dist,IRpath1@distcr
  3154  0012AA  C061  F0D6         	movff	?_ultra_dist+1,IRpath1@distcr+1
  3155  0012AE                     
  3156                           ;senior_main.c: 397:             int dist1 = ultra_dist();
  3157  0012AE  0100               	movlb	0	; () banked
  3158  0012B0  BFD6               	btfsc	(IRpath1@distcr+1)& (0+255),7,b
  3159  0012B2  EF64  F009         	goto	u4311
  3160  0012B6  51D6               	movf	(IRpath1@distcr+1)& (0+255),w,b
  3161  0012B8  E109               	bnz	u4310
  3162  0012BA  0E1A               	movlw	26
  3163  0012BC  5DD5               	subwf	IRpath1@distcr& (0+255),w,b
  3164  0012BE  A0D8               	btfss	status,0,c
  3165  0012C0  EF64  F009         	goto	u4311
  3166  0012C4  EF66  F009         	goto	u4310
  3167  0012C8                     u4311:
  3168  0012C8  EF6E  F009         	goto	l4350
  3169  0012CC                     u4310:
  3170  0012CC                     
  3171                           ; BSR set to: 0
  3172  0012CC  0E00               	movlw	0
  3173  0012CE  6F61               	movwf	(forward@gostop+1)& (0+255),b
  3174  0012D0  0E01               	movlw	1
  3175  0012D2  6F60               	movwf	forward@gostop& (0+255),b
  3176  0012D4  EC56  F019         	call	_forward	;wreg free
  3177                           
  3178                           ;senior_main.c: 399:             PWM3CONbits.PWM3EN = 0;
  3179  0012D8  EFE9  F00A         	goto	l4482
  3180  0012DC                     l4350:
  3181                           
  3182                           ; BSR set to: 0
  3183  0012DC  0E00               	movlw	0
  3184  0012DE  6F61               	movwf	(forward@gostop+1)& (0+255),b
  3185  0012E0  0E00               	movlw	0
  3186  0012E2  6F60               	movwf	forward@gostop& (0+255),b
  3187  0012E4  EC56  F019         	call	_forward	;wreg free
  3188  0012E8                     
  3189                           ;senior_main.c: 402: 
  3190  0012E8  ECC1  F00C         	call	_lcdprint	;wreg free
  3191  0012EC                     
  3192                           ;senior_main.c: 403: 
  3193  0012EC  010F               	movlb	15	; () banked
  3194  0012EE  990E               	bcf	14,4,b	;volatile
  3195  0012F0                     
  3196                           ; BSR set to: 15
  3197                           ;senior_main.c: 404:             PWM3DCH = 0x04;
  3198  0012F0  9B0E               	bcf	14,5,b	;volatile
  3199  0012F2                     
  3200                           ; BSR set to: 15
  3201                           ;senior_main.c: 405:             PWM3DCL = 0x10;
  3202  0012F2  9506               	bcf	6,2,b	;volatile
  3203  0012F4                     
  3204                           ; BSR set to: 15
  3205                           ;senior_main.c: 406:             T2TMR = 0x00;
  3206  0012F4  9706               	bcf	6,3,b	;volatile
  3207  0012F6                     
  3208                           ; BSR set to: 15
  3209                           ;senior_main.c: 408:             _delay((unsigned long)((500)*(8000000/4000.0)));
  3210  0012F6  868D               	bsf	141,3,c	;volatile
  3211  0012F8                     
  3212                           ; BSR set to: 15
  3213                           ;senior_main.c: 410:             _delay((unsigned long)((100)*(8000000/4000.0)));
  3214  0012F8  808D               	bsf	141,0,c	;volatile
  3215  0012FA                     
  3216                           ; BSR set to: 15
  3217                           ;senior_main.c: 411:             PWM3CONbits.PWM3EN = 0;
  3218  0012FA  0E00               	movlw	0
  3219  0012FC  0100               	movlb	0	; () banked
  3220  0012FE  6FD8               	movwf	(IRpath1@i+1)& (0+255),b
  3221  001300  0E00               	movlw	0
  3222  001302  6FD7               	movwf	IRpath1@i& (0+255),b
  3223  001304                     l268:
  3224                           
  3225                           ; BSR set to: 0
  3226                           ;senior_main.c: 413: 
  3227  001304  8083               	bsf	131,0,c	;volatile
  3228  001306                     
  3229                           ; BSR set to: 0
  3230                           ;senior_main.c: 414: 
  3231  001306  0EA6               	movlw	166
  3232  001308                     u5137:
  3233  001308  2EE8               	decfsz	wreg,f,c
  3234  00130A  D7FE               	bra	u5137
  3235  00130C  D000               	nop2	
  3236  00130E                     
  3237                           ;senior_main.c: 415:             PWM3DCH = 0x0B;
  3238  00130E  9083               	bcf	131,0,c	;volatile
  3239                           
  3240                           ;senior_main.c: 416:             PWM3DCL = 0xC0;
  3241  001310  0EA6               	movlw	166
  3242  001312                     u5147:
  3243  001312  2EE8               	decfsz	wreg,f,c
  3244  001314  D7FE               	bra	u5147
  3245  001316  D000               	nop2	
  3246  001318                     
  3247                           ;senior_main.c: 417:             T2TMR = 0x00;
  3248  001318  0100               	movlb	0	; () banked
  3249  00131A  4BD7               	infsnz	IRpath1@i& (0+255),f,b
  3250  00131C  2BD8               	incf	(IRpath1@i+1)& (0+255),f,b
  3251  00131E  BFD8               	btfsc	(IRpath1@i+1)& (0+255),7,b
  3252  001320  EF9B  F009         	goto	u4321
  3253  001324  51D8               	movf	(IRpath1@i+1)& (0+255),w,b
  3254  001326  E109               	bnz	u4320
  3255  001328  0EC8               	movlw	200
  3256  00132A  5DD7               	subwf	IRpath1@i& (0+255),w,b
  3257  00132C  A0D8               	btfss	status,0,c
  3258  00132E  EF9B  F009         	goto	u4321
  3259  001332  EF9D  F009         	goto	u4320
  3260  001336                     u4321:
  3261  001336  EF82  F009         	goto	l268
  3262  00133A                     u4320:
  3263  00133A                     
  3264                           ; BSR set to: 0
  3265                           ;senior_main.c: 418:             PWM3CONbits.PWM3EN = 1;
  3266  00133A  908D               	bcf	141,0,c	;volatile
  3267  00133C                     
  3268                           ; BSR set to: 0
  3269                           ;senior_main.c: 422:             PWM3CONbits.PWM3EN = 0;
  3270  00133C  0E12               	movlw	18
  3271  00133E  6EA3               	movwf	163,c	;volatile
  3272                           
  3273                           ;senior_main.c: 423:             lcdprint();
  3274  001340  0EC0               	movlw	192
  3275  001342  6EA2               	movwf	162,c	;volatile
  3276                           
  3277                           ;senior_main.c: 424: 
  3278  001344  0E00               	movlw	0
  3279  001346  6EBA               	movwf	186,c	;volatile
  3280  001348                     
  3281                           ; BSR set to: 0
  3282                           ;senior_main.c: 425:             PORTBbits.RB0 = 1;
  3283  001348  8EA4               	bsf	164,7,c	;volatile
  3284  00134A                     
  3285                           ; BSR set to: 0
  3286                           ;senior_main.c: 426:             for(int i=0; i<200; i++){
  3287  00134A  0E06               	movlw	6
  3288  00134C  0100               	movlb	0	; () banked
  3289  00134E  6FD2               	movwf	(??_IRpath1+1)& (0+255),b
  3290  001350  0E13               	movlw	19
  3291  001352  6FD1               	movwf	??_IRpath1& (0+255),b
  3292  001354  0EAD               	movlw	173
  3293  001356                     u5157:
  3294  001356  2EE8               	decfsz	wreg,f,c
  3295  001358  D7FE               	bra	u5157
  3296  00135A  2FD1               	decfsz	??_IRpath1& (0+255),f,b
  3297  00135C  D7FC               	bra	u5157
  3298  00135E  2FD2               	decfsz	(??_IRpath1+1)& (0+255),f,b
  3299  001360  D7FA               	bra	u5157
  3300  001362  D000               	nop2	
  3301  001364                     
  3302                           ;senior_main.c: 427: 
  3303  001364  EC3E  F019         	call	_ultra_dist	;wreg free
  3304  001368  C060  F0E1         	movff	?_ultra_dist,IRpath1@dist1
  3305  00136C  C061  F0E2         	movff	?_ultra_dist+1,IRpath1@dist1+1
  3306  001370                     
  3307                           ;senior_main.c: 428:                 LATBbits.LATB0=1;
  3308  001370  0E02               	movlw	2
  3309  001372  0100               	movlb	0	; () banked
  3310  001374  6FD2               	movwf	(??_IRpath1+1)& (0+255),b
  3311  001376  0E04               	movlw	4
  3312  001378  6FD1               	movwf	??_IRpath1& (0+255),b
  3313  00137A  0EBA               	movlw	186
  3314  00137C                     u5167:
  3315  00137C  2EE8               	decfsz	wreg,f,c
  3316  00137E  D7FE               	bra	u5167
  3317  001380  2FD1               	decfsz	??_IRpath1& (0+255),f,b
  3318  001382  D7FC               	bra	u5167
  3319  001384  2FD2               	decfsz	(??_IRpath1+1)& (0+255),f,b
  3320  001386  D7FA               	bra	u5167
  3321  001388  F000               	nop	
  3322  00138A                     
  3323                           ;senior_main.c: 429:                 _delay((unsigned long)((0.25)*(8000000/4000.0)));
  3324  00138A  9EA4               	bcf	164,7,c	;volatile
  3325  00138C                     
  3326                           ;senior_main.c: 430:                 LATBbits.LATB0=0;
  3327  00138C  ECC1  F00C         	call	_lcdprint	;wreg free
  3328  001390                     
  3329                           ;senior_main.c: 434: 
  3330  001390  0E04               	movlw	4
  3331  001392  6EA3               	movwf	163,c	;volatile
  3332  001394                     
  3333                           ;senior_main.c: 435:             if(dist3 <=15){
  3334  001394  0E10               	movlw	16
  3335  001396  6EA2               	movwf	162,c	;volatile
  3336  001398                     
  3337                           ;senior_main.c: 436:                 backward();
  3338  001398  0E00               	movlw	0
  3339  00139A  6EBA               	movwf	186,c	;volatile
  3340  00139C                     
  3341                           ;senior_main.c: 437:             }
  3342  00139C  8EA4               	bsf	164,7,c	;volatile
  3343  00139E                     
  3344                           ;senior_main.c: 438:             if(dist2<30 && dist1<30 && dist3<30){
  3345  00139E  0E06               	movlw	6
  3346  0013A0  0100               	movlb	0	; () banked
  3347  0013A2  6FD2               	movwf	(??_IRpath1+1)& (0+255),b
  3348  0013A4  0E13               	movlw	19
  3349  0013A6  6FD1               	movwf	??_IRpath1& (0+255),b
  3350  0013A8  0EAD               	movlw	173
  3351  0013AA                     u5177:
  3352  0013AA  2EE8               	decfsz	wreg,f,c
  3353  0013AC  D7FE               	bra	u5177
  3354  0013AE  2FD1               	decfsz	??_IRpath1& (0+255),f,b
  3355  0013B0  D7FC               	bra	u5177
  3356  0013B2  2FD2               	decfsz	(??_IRpath1+1)& (0+255),f,b
  3357  0013B4  D7FA               	bra	u5177
  3358  0013B6  D000               	nop2	
  3359  0013B8                     
  3360                           ;senior_main.c: 439:                 if(dist1>dist2){
  3361  0013B8  EC3E  F019         	call	_ultra_dist	;wreg free
  3362  0013BC  C060  F0E3         	movff	?_ultra_dist,IRpath1@dist2
  3363  0013C0  C061  F0E4         	movff	?_ultra_dist+1,IRpath1@dist2+1
  3364  0013C4                     
  3365                           ;senior_main.c: 440:                     reverser();
  3366  0013C4  0E02               	movlw	2
  3367  0013C6  0100               	movlb	0	; () banked
  3368  0013C8  6FD2               	movwf	(??_IRpath1+1)& (0+255),b
  3369  0013CA  0E04               	movlw	4
  3370  0013CC  6FD1               	movwf	??_IRpath1& (0+255),b
  3371  0013CE  0EBA               	movlw	186
  3372  0013D0                     u5187:
  3373  0013D0  2EE8               	decfsz	wreg,f,c
  3374  0013D2  D7FE               	bra	u5187
  3375  0013D4  2FD1               	decfsz	??_IRpath1& (0+255),f,b
  3376  0013D6  D7FC               	bra	u5187
  3377  0013D8  2FD2               	decfsz	(??_IRpath1+1)& (0+255),f,b
  3378  0013DA  D7FA               	bra	u5187
  3379  0013DC  F000               	nop	
  3380  0013DE                     
  3381                           ;senior_main.c: 441:                 }
  3382  0013DE  9EA4               	bcf	164,7,c	;volatile
  3383                           
  3384                           ;senior_main.c: 442:                 if(dist2>dist1){
  3385  0013E0  ECC1  F00C         	call	_lcdprint	;wreg free
  3386  0013E4                     
  3387                           ;senior_main.c: 445:             }
  3388  0013E4  0E0B               	movlw	11
  3389  0013E6  6EA3               	movwf	163,c	;volatile
  3390  0013E8                     
  3391                           ;senior_main.c: 446:             else if(dist1>30 && dist1>=dist3){
  3392  0013E8  0EC0               	movlw	192
  3393  0013EA  6EA2               	movwf	162,c	;volatile
  3394  0013EC                     
  3395                           ;senior_main.c: 447:                 lturn();
  3396  0013EC  0E00               	movlw	0
  3397  0013EE  6EBA               	movwf	186,c	;volatile
  3398  0013F0                     
  3399                           ;senior_main.c: 448:             }
  3400  0013F0  8EA4               	bsf	164,7,c	;volatile
  3401  0013F2                     
  3402                           ;senior_main.c: 449:             else if(dist2>30 && dist2>dist3){
  3403  0013F2  0E09               	movlw	9
  3404  0013F4  0100               	movlb	0	; () banked
  3405  0013F6  6FD2               	movwf	(??_IRpath1+1)& (0+255),b
  3406  0013F8  0E1E               	movlw	30
  3407  0013FA  6FD1               	movwf	??_IRpath1& (0+255),b
  3408  0013FC  0EE4               	movlw	228
  3409  0013FE                     u5197:
  3410  0013FE  2EE8               	decfsz	wreg,f,c
  3411  001400  D7FE               	bra	u5197
  3412  001402  2FD1               	decfsz	??_IRpath1& (0+255),f,b
  3413  001404  D7FC               	bra	u5197
  3414  001406  2FD2               	decfsz	(??_IRpath1+1)& (0+255),f,b
  3415  001408  D7FA               	bra	u5197
  3416  00140A  F000               	nop	
  3417  00140C                     
  3418                           ;senior_main.c: 450:                 rturn();
  3419  00140C  EC3E  F019         	call	_ultra_dist	;wreg free
  3420  001410  C060  F0DF         	movff	?_ultra_dist,IRpath1@dist3
  3421  001414  C061  F0E0         	movff	?_ultra_dist+1,IRpath1@dist3+1
  3422  001418                     
  3423                           ;senior_main.c: 451:                 check = 1;
  3424  001418  0E02               	movlw	2
  3425  00141A  0100               	movlb	0	; () banked
  3426  00141C  6FD2               	movwf	(??_IRpath1+1)& (0+255),b
  3427  00141E  0E04               	movlw	4
  3428  001420  6FD1               	movwf	??_IRpath1& (0+255),b
  3429  001422  0EBA               	movlw	186
  3430  001424                     u5207:
  3431  001424  2EE8               	decfsz	wreg,f,c
  3432  001426  D7FE               	bra	u5207
  3433  001428  2FD1               	decfsz	??_IRpath1& (0+255),f,b
  3434  00142A  D7FC               	bra	u5207
  3435  00142C  2FD2               	decfsz	(??_IRpath1+1)& (0+255),f,b
  3436  00142E  D7FA               	bra	u5207
  3437  001430  F000               	nop	
  3438  001432                     
  3439                           ;senior_main.c: 452:             }
  3440  001432  9EA4               	bcf	164,7,c	;volatile
  3441  001434                     
  3442                           ;senior_main.c: 453:         IOCBNbits.IOCBN4 = 1;
  3443  001434  ECC1  F00C         	call	_lcdprint	;wreg free
  3444  001438                     
  3445                           ;senior_main.c: 455:         IOCANbits.IOCAN2 = 1;
  3446  001438  808D               	bsf	141,0,c	;volatile
  3447  00143A                     
  3448                           ;senior_main.c: 456:         IOCANbits.IOCAN3 = 1;
  3449  00143A  0E00               	movlw	0
  3450  00143C  0100               	movlb	0	; () banked
  3451  00143E  6FDA               	movwf	(IRpath1@i_736+1)& (0+255),b
  3452  001440  0E00               	movlw	0
  3453  001442  6FD9               	movwf	IRpath1@i_736& (0+255),b
  3454  001444                     l270:
  3455                           
  3456                           ; BSR set to: 0
  3457                           ;senior_main.c: 458:         }
  3458  001444  8083               	bsf	131,0,c	;volatile
  3459  001446                     
  3460                           ; BSR set to: 0
  3461                           ;senior_main.c: 459:     }
  3462  001446  0EA6               	movlw	166
  3463  001448                     u5217:
  3464  001448  2EE8               	decfsz	wreg,f,c
  3465  00144A  D7FE               	bra	u5217
  3466  00144C  D000               	nop2	
  3467  00144E                     
  3468                           ;senior_main.c: 460: }
  3469  00144E  9083               	bcf	131,0,c	;volatile
  3470                           
  3471                           ;senior_main.c: 461: 
  3472  001450  0EA6               	movlw	166
  3473  001452                     u5227:
  3474  001452  2EE8               	decfsz	wreg,f,c
  3475  001454  D7FE               	bra	u5227
  3476  001456  D000               	nop2	
  3477  001458                     
  3478                           ;senior_main.c: 462: 
  3479  001458  0100               	movlb	0	; () banked
  3480  00145A  4BD9               	infsnz	IRpath1@i_736& (0+255),f,b
  3481  00145C  2BDA               	incf	(IRpath1@i_736+1)& (0+255),f,b
  3482  00145E  BFDA               	btfsc	(IRpath1@i_736+1)& (0+255),7,b
  3483  001460  EF3B  F00A         	goto	u4331
  3484  001464  51DA               	movf	(IRpath1@i_736+1)& (0+255),w,b
  3485  001466  E109               	bnz	u4330
  3486  001468  0EC8               	movlw	200
  3487  00146A  5DD9               	subwf	IRpath1@i_736& (0+255),w,b
  3488  00146C  A0D8               	btfss	status,0,c
  3489  00146E  EF3B  F00A         	goto	u4331
  3490  001472  EF3D  F00A         	goto	u4330
  3491  001476                     u4331:
  3492  001476  EF22  F00A         	goto	l270
  3493  00147A                     u4330:
  3494  00147A                     
  3495                           ; BSR set to: 0
  3496                           ;senior_main.c: 463: 
  3497  00147A  908D               	bcf	141,0,c	;volatile
  3498  00147C                     
  3499                           ; BSR set to: 0
  3500                           ;senior_main.c: 465: void main() {
  3501  00147C  BFE0               	btfsc	(IRpath1@dist3+1)& (0+255),7,b
  3502  00147E  EF4C  F00A         	goto	u4340
  3503  001482  51E0               	movf	(IRpath1@dist3+1)& (0+255),w,b
  3504  001484  E107               	bnz	u4341
  3505  001486  0E10               	movlw	16
  3506  001488  5DDF               	subwf	IRpath1@dist3& (0+255),w,b
  3507  00148A  B0D8               	btfsc	status,0,c
  3508  00148C  EF4A  F00A         	goto	u4341
  3509  001490  EF4C  F00A         	goto	u4340
  3510  001494                     u4341:
  3511  001494  EF4E  F00A         	goto	l4444
  3512  001498                     u4340:
  3513  001498                     
  3514                           ; BSR set to: 0
  3515                           ;senior_main.c: 466: 
  3516  001498  ECE6  F018         	call	_backward	;wreg free
  3517  00149C                     l4444:
  3518                           
  3519                           ;senior_main.c: 468:     lcd_init();
  3520  00149C  0100               	movlb	0	; () banked
  3521  00149E  BFE4               	btfsc	(IRpath1@dist2+1)& (0+255),7,b
  3522  0014A0  EF5D  F00A         	goto	u4350
  3523  0014A4  51E4               	movf	(IRpath1@dist2+1)& (0+255),w,b
  3524  0014A6  E107               	bnz	u4351
  3525  0014A8  0E1E               	movlw	30
  3526  0014AA  5DE3               	subwf	IRpath1@dist2& (0+255),w,b
  3527  0014AC  B0D8               	btfsc	status,0,c
  3528  0014AE  EF5B  F00A         	goto	u4351
  3529  0014B2  EF5D  F00A         	goto	u4350
  3530  0014B6                     u4351:
  3531  0014B6  EF9E  F00A         	goto	l4458
  3532  0014BA                     u4350:
  3533  0014BA                     
  3534                           ; BSR set to: 0
  3535  0014BA  BFE2               	btfsc	(IRpath1@dist1+1)& (0+255),7,b
  3536  0014BC  EF6B  F00A         	goto	u4360
  3537  0014C0  51E2               	movf	(IRpath1@dist1+1)& (0+255),w,b
  3538  0014C2  E107               	bnz	u4361
  3539  0014C4  0E1E               	movlw	30
  3540  0014C6  5DE1               	subwf	IRpath1@dist1& (0+255),w,b
  3541  0014C8  B0D8               	btfsc	status,0,c
  3542  0014CA  EF69  F00A         	goto	u4361
  3543  0014CE  EF6B  F00A         	goto	u4360
  3544  0014D2                     u4361:
  3545  0014D2  EF9E  F00A         	goto	l4458
  3546  0014D6                     u4360:
  3547  0014D6                     
  3548                           ; BSR set to: 0
  3549  0014D6  BFE0               	btfsc	(IRpath1@dist3+1)& (0+255),7,b
  3550  0014D8  EF79  F00A         	goto	u4370
  3551  0014DC  51E0               	movf	(IRpath1@dist3+1)& (0+255),w,b
  3552  0014DE  E107               	bnz	u4371
  3553  0014E0  0E1E               	movlw	30
  3554  0014E2  5DDF               	subwf	IRpath1@dist3& (0+255),w,b
  3555  0014E4  B0D8               	btfsc	status,0,c
  3556  0014E6  EF77  F00A         	goto	u4371
  3557  0014EA  EF79  F00A         	goto	u4370
  3558  0014EE                     u4371:
  3559  0014EE  EF9E  F00A         	goto	l4458
  3560  0014F2                     u4370:
  3561  0014F2                     
  3562                           ; BSR set to: 0
  3563                           ;senior_main.c: 469:     i2c_init();
  3564  0014F2  51E1               	movf	IRpath1@dist1& (0+255),w,b
  3565  0014F4  5DE3               	subwf	IRpath1@dist2& (0+255),w,b
  3566  0014F6  51E4               	movf	(IRpath1@dist2+1)& (0+255),w,b
  3567  0014F8  0A80               	xorlw	128
  3568  0014FA  6FD1               	movwf	??_IRpath1& (0+255),b
  3569  0014FC  51E2               	movf	(IRpath1@dist1+1)& (0+255),w,b
  3570  0014FE  0A80               	xorlw	128
  3571  001500  59D1               	subwfb	??_IRpath1& (0+255),w,b
  3572  001502  B0D8               	btfsc	status,0,c
  3573  001504  EF86  F00A         	goto	u4381
  3574  001508  EF88  F00A         	goto	u4380
  3575  00150C                     u4381:
  3576  00150C  EF8A  F00A         	goto	l4454
  3577  001510                     u4380:
  3578  001510                     
  3579                           ; BSR set to: 0
  3580                           ;senior_main.c: 470:     rtc_init();
  3581  001510  ECEF  F017         	call	_reverser	;wreg free
  3582  001514                     l4454:
  3583                           
  3584                           ;senior_main.c: 472:     pwm_init();
  3585  001514  0100               	movlb	0	; () banked
  3586  001516  51E3               	movf	IRpath1@dist2& (0+255),w,b
  3587  001518  5DE1               	subwf	IRpath1@dist1& (0+255),w,b
  3588  00151A  51E2               	movf	(IRpath1@dist1+1)& (0+255),w,b
  3589  00151C  0A80               	xorlw	128
  3590  00151E  6FD1               	movwf	??_IRpath1& (0+255),b
  3591  001520  51E4               	movf	(IRpath1@dist2+1)& (0+255),w,b
  3592  001522  0A80               	xorlw	128
  3593  001524  59D1               	subwfb	??_IRpath1& (0+255),w,b
  3594  001526  B0D8               	btfsc	status,0,c
  3595  001528  EF98  F00A         	goto	u4391
  3596  00152C  EF9A  F00A         	goto	u4390
  3597  001530                     u4391:
  3598  001530  EFE3  F00A         	goto	l4472
  3599  001534                     u4390:
  3600  001534                     
  3601                           ; BSR set to: 0
  3602                           ;senior_main.c: 473:     ccp_init();
  3603  001534  EC15  F018         	call	_reversel	;wreg free
  3604  001538  EFE3  F00A         	goto	l4472
  3605  00153C                     l4458:
  3606                           
  3607                           ; BSR set to: 0
  3608  00153C  BFE2               	btfsc	(IRpath1@dist1+1)& (0+255),7,b
  3609  00153E  EFAA  F00A         	goto	u4401
  3610  001542  51E2               	movf	(IRpath1@dist1+1)& (0+255),w,b
  3611  001544  E109               	bnz	u4400
  3612  001546  0E1F               	movlw	31
  3613  001548  5DE1               	subwf	IRpath1@dist1& (0+255),w,b
  3614  00154A  A0D8               	btfss	status,0,c
  3615  00154C  EFAA  F00A         	goto	u4401
  3616  001550  EFAC  F00A         	goto	u4400
  3617  001554                     u4401:
  3618  001554  EFBF  F00A         	goto	l4464
  3619  001558                     u4400:
  3620  001558                     
  3621                           ; BSR set to: 0
  3622  001558  51DF               	movf	IRpath1@dist3& (0+255),w,b
  3623  00155A  5DE1               	subwf	IRpath1@dist1& (0+255),w,b
  3624  00155C  51E2               	movf	(IRpath1@dist1+1)& (0+255),w,b
  3625  00155E  0A80               	xorlw	128
  3626  001560  6FD1               	movwf	??_IRpath1& (0+255),b
  3627  001562  51E0               	movf	(IRpath1@dist3+1)& (0+255),w,b
  3628  001564  0A80               	xorlw	128
  3629  001566  59D1               	subwfb	??_IRpath1& (0+255),w,b
  3630  001568  A0D8               	btfss	status,0,c
  3631  00156A  EFB9  F00A         	goto	u4411
  3632  00156E  EFBB  F00A         	goto	u4410
  3633  001572                     u4411:
  3634  001572  EFBF  F00A         	goto	l4464
  3635  001576                     u4410:
  3636  001576                     
  3637                           ; BSR set to: 0
  3638                           ;senior_main.c: 477:     TRISCbits.TRISC2 = 0;
  3639  001576  EC3B  F018         	call	_lturn	;wreg free
  3640                           
  3641                           ;senior_main.c: 478:     TRISCbits.TRISC0 = 0;
  3642  00157A  EFE3  F00A         	goto	l4472
  3643  00157E                     l4464:
  3644                           
  3645                           ; BSR set to: 0
  3646  00157E  BFE4               	btfsc	(IRpath1@dist2+1)& (0+255),7,b
  3647  001580  EFCB  F00A         	goto	u4421
  3648  001584  51E4               	movf	(IRpath1@dist2+1)& (0+255),w,b
  3649  001586  E109               	bnz	u4420
  3650  001588  0E1F               	movlw	31
  3651  00158A  5DE3               	subwf	IRpath1@dist2& (0+255),w,b
  3652  00158C  A0D8               	btfss	status,0,c
  3653  00158E  EFCB  F00A         	goto	u4421
  3654  001592  EFCD  F00A         	goto	u4420
  3655  001596                     u4421:
  3656  001596  EFE3  F00A         	goto	l4472
  3657  00159A                     u4420:
  3658  00159A                     
  3659                           ; BSR set to: 0
  3660  00159A  51E3               	movf	IRpath1@dist2& (0+255),w,b
  3661  00159C  5DDF               	subwf	IRpath1@dist3& (0+255),w,b
  3662  00159E  51E0               	movf	(IRpath1@dist3+1)& (0+255),w,b
  3663  0015A0  0A80               	xorlw	128
  3664  0015A2  6FD1               	movwf	??_IRpath1& (0+255),b
  3665  0015A4  51E4               	movf	(IRpath1@dist2+1)& (0+255),w,b
  3666  0015A6  0A80               	xorlw	128
  3667  0015A8  59D1               	subwfb	??_IRpath1& (0+255),w,b
  3668  0015AA  B0D8               	btfsc	status,0,c
  3669  0015AC  EFDA  F00A         	goto	u4431
  3670  0015B0  EFDC  F00A         	goto	u4430
  3671  0015B4                     u4431:
  3672  0015B4  EFE3  F00A         	goto	l4472
  3673  0015B8                     u4430:
  3674  0015B8                     
  3675                           ; BSR set to: 0
  3676                           ;senior_main.c: 480: 
  3677  0015B8  ECC9  F017         	call	_rturn	;wreg free
  3678  0015BC                     
  3679                           ;senior_main.c: 481: 
  3680  0015BC  0E00               	movlw	0
  3681  0015BE  0100               	movlb	0	; () banked
  3682  0015C0  6FDC               	movwf	(IRpath1@check+1)& (0+255),b
  3683  0015C2  0E01               	movlw	1
  3684  0015C4  6FDB               	movwf	IRpath1@check& (0+255),b
  3685  0015C6                     l4472:
  3686                           
  3687                           ;senior_main.c: 483:     TRISBbits.TRISB4 = 1;
  3688  0015C6  010F               	movlb	15	; () banked
  3689  0015C8  890E               	bsf	14,4,b	;volatile
  3690  0015CA                     
  3691                           ; BSR set to: 15
  3692                           ;senior_main.c: 484:     TRISBbits.TRISB5 = 1;
  3693  0015CA  8B0E               	bsf	14,5,b	;volatile
  3694  0015CC                     
  3695                           ; BSR set to: 15
  3696                           ;senior_main.c: 485:     TRISAbits.TRISA3 = 1;
  3697  0015CC  8506               	bsf	6,2,b	;volatile
  3698  0015CE                     
  3699                           ; BSR set to: 15
  3700                           ;senior_main.c: 486:     TRISAbits.TRISA2 = 1;
  3701  0015CE  8706               	bsf	6,3,b	;volatile
  3702  0015D0                     
  3703                           ; BSR set to: 15
  3704                           ;senior_main.c: 487: 
  3705  0015D0  968D               	bcf	141,3,c	;volatile
  3706  0015D2                     l4482:
  3707                           
  3708                           ;senior_main.c: 383:                 LATBbits.LATB0=1;
  3709  0015D2  0100               	movlb	0	; () banked
  3710  0015D4  51DB               	movf	IRpath1@check& (0+255),w,b
  3711  0015D6  11DC               	iorwf	(IRpath1@check+1)& (0+255),w,b
  3712  0015D8  B4D8               	btfsc	status,2,c
  3713  0015DA  EFF1  F00A         	goto	u4441
  3714  0015DE  EFF3  F00A         	goto	u4440
  3715  0015E2                     u4441:
  3716  0015E2  EF2C  F009         	goto	l4330
  3717  0015E6                     u4440:
  3718  0015E6                     
  3719                           ; BSR set to: 0
  3720  0015E6  0012               	return		;funcret
  3721  0015E8                     __end_of_IRpath1:
  3722                           	opt callstack 0
  3723                           
  3724 ;; *************** function _ultra_dist *****************
  3725 ;; Defined at:
  3726 ;;		line 66 in file "senior_main.c"
  3727 ;; Parameters:    Size  Location     Type
  3728 ;;		None
  3729 ;; Auto vars:     Size  Location     Type
  3730 ;;		None
  3731 ;; Return value:  Size  Location     Type
  3732 ;;                  2    0[BANK0 ] int 
  3733 ;; Registers used:
  3734 ;;		wreg, status,2
  3735 ;; Tracked objects:
  3736 ;;		On entry : 0/0
  3737 ;;		On exit  : 0/0
  3738 ;;		Unchanged: 0/0
  3739 ;; Data sizes:     COMRAM   BANK0   BANK1   BANK2   BANK3   BANK4   BANK5   BANK6   BANK7
  3740 ;;      Params:         0       2       0       0       0       0       0       0       0
  3741 ;;      Locals:         0       0       0       0       0       0       0       0       0
  3742 ;;      Temps:          0       1       0       0       0       0       0       0       0
  3743 ;;      Totals:         0       3       0       0       0       0       0       0       0
  3744 ;;Total ram usage:        3 bytes
  3745 ;; Hardware stack levels used:    1
  3746 ;; Hardware stack levels required when called:    3
  3747 ;; This function calls:
  3748 ;;		Nothing
  3749 ;; This function is called by:
  3750 ;;		_IRpath1
  3751 ;;		_main
  3752 ;; This function uses a non-reentrant model
  3753 ;;
  3754                           
  3755                           	psect	text13
  3756  00327C                     __ptext13:
  3757                           	opt callstack 0
  3758  00327C                     _ultra_dist:
  3759                           	opt callstack 27
  3760  00327C                     
  3761                           ;senior_main.c: 68: }
  3762  00327C  0E00               	movlw	0
  3763  00327E  6ECD               	movwf	205,c	;volatile
  3764  003280  0E00               	movlw	0
  3765  003282  6ECC               	movwf	204,c	;volatile
  3766  003284                     
  3767                           ;senior_main.c: 70: 
  3768  003284  828D               	bsf	3981,1,c	;volatile
  3769  003286                     
  3770                           ;senior_main.c: 71: 
  3771  003286  0E06               	movlw	6
  3772  003288                     u5237:
  3773  003288  2EE8               	decfsz	wreg,f,c
  3774  00328A  D7FE               	bra	u5237
  3775  00328C  D000               	nop2	
  3776  00328E                     
  3777                           ;senior_main.c: 72: 
  3778  00328E  928D               	bcf	3981,1,c	;volatile
  3779  003290                     
  3780                           ;senior_main.c: 73: void IRL(){
  3781  003290  0E06               	movlw	6
  3782  003292  0100               	movlb	0	; () banked
  3783  003294  6F62               	movwf	??_ultra_dist& (0+255),b
  3784  003296  0E30               	movlw	48
  3785  003298                     u5247:
  3786  003298  2EE8               	decfsz	wreg,f,c
  3787  00329A  D7FE               	bra	u5247
  3788  00329C  2F62               	decfsz	??_ultra_dist& (0+255),f,b
  3789  00329E  D7FC               	bra	u5247
  3790  0032A0  F000               	nop	
  3791  0032A2                     
  3792                           ;senior_main.c: 75: 
  3793  0032A2  C0FD  F060         	movff	_distance,?_ultra_dist
  3794  0032A6  C0FE  F061         	movff	_distance+1,?_ultra_dist+1
  3795  0032AA  0012               	return		;funcret
  3796  0032AC                     __end_of_ultra_dist:
  3797                           	opt callstack 0
  3798                           
  3799 ;; *************** function _rturn *****************
  3800 ;; Defined at:
  3801 ;;		line 39 in file "movement.c"
  3802 ;; Parameters:    Size  Location     Type
  3803 ;;		None
  3804 ;; Auto vars:     Size  Location     Type
  3805 ;;		None
  3806 ;; Return value:  Size  Location     Type
  3807 ;;                  1    wreg      void 
  3808 ;; Registers used:
  3809 ;;		wreg, status,2
  3810 ;; Tracked objects:
  3811 ;;		On entry : 0/0
  3812 ;;		On exit  : 0/0
  3813 ;;		Unchanged: 0/0
  3814 ;; Data sizes:     COMRAM   BANK0   BANK1   BANK2   BANK3   BANK4   BANK5   BANK6   BANK7
  3815 ;;      Params:         0       0       0       0       0       0       0       0       0
  3816 ;;      Locals:         0       0       0       0       0       0       0       0       0
  3817 ;;      Temps:          0       2       0       0       0       0       0       0       0
  3818 ;;      Totals:         0       2       0       0       0       0       0       0       0
  3819 ;;Total ram usage:        2 bytes
  3820 ;; Hardware stack levels used:    1
  3821 ;; Hardware stack levels required when called:    3
  3822 ;; This function calls:
  3823 ;;		Nothing
  3824 ;; This function is called by:
  3825 ;;		_IRpath1
  3826 ;;		_main
  3827 ;; This function uses a non-reentrant model
  3828 ;;
  3829                           
  3830                           	psect	text14
  3831  002F92                     __ptext14:
  3832                           	opt callstack 0
  3833  002F92                     _rturn:
  3834                           	opt callstack 27
  3835  002F92                     
  3836                           ;movement.c: 41:     CCPR1H = 0x00;
  3837  002F92  0E00               	movlw	0
  3838  002F94  6EAA               	movwf	170,c	;volatile
  3839                           
  3840                           ;movement.c: 42:     CCPR1L = 0xF0;
  3841  002F96  0EF0               	movlw	240
  3842  002F98  6EA9               	movwf	169,c	;volatile
  3843                           
  3844                           ;movement.c: 43:     CCPR2H = 0x00;
  3845  002F9A  0E00               	movlw	0
  3846  002F9C  6EA6               	movwf	166,c	;volatile
  3847                           
  3848                           ;movement.c: 44:     CCPR2L = 0xF0;
  3849  002F9E  0EF0               	movlw	240
  3850  002FA0  6EA5               	movwf	165,c	;volatile
  3851  002FA2  848E               	bsf	3982,2,c	;volatile
  3852  002FA4  9090               	bcf	3984,0,c	;volatile
  3853  002FA6  928E               	bcf	3982,1,c	;volatile
  3854  002FA8  808E               	bsf	3982,0,c	;volatile
  3855  002FAA                     
  3856                           ;movement.c: 49:     _delay((unsigned long)((110)*(8000000/4000.0)));
  3857  002FAA  0E02               	movlw	2
  3858  002FAC  0100               	movlb	0	; () banked
  3859  002FAE  6F61               	movwf	(??_rturn+1)& (0+255),b
  3860  002FB0  0E1E               	movlw	30
  3861  002FB2  6F60               	movwf	??_rturn& (0+255),b
  3862  002FB4  0EB3               	movlw	179
  3863  002FB6                     u5257:
  3864  002FB6  2EE8               	decfsz	wreg,f,c
  3865  002FB8  D7FE               	bra	u5257
  3866  002FBA  2F60               	decfsz	??_rturn& (0+255),f,b
  3867  002FBC  D7FC               	bra	u5257
  3868  002FBE  2F61               	decfsz	(??_rturn+1)& (0+255),f,b
  3869  002FC0  D7FA               	bra	u5257
  3870  002FC2  D000               	nop2	
  3871  002FC4  948E               	bcf	3982,2,c	;volatile
  3872  002FC6  9090               	bcf	3984,0,c	;volatile
  3873  002FC8  928E               	bcf	3982,1,c	;volatile
  3874  002FCA  908E               	bcf	3982,0,c	;volatile
  3875  002FCC                     
  3876                           ;movement.c: 54:     CCPR1H = 0x00;
  3877  002FCC  0E00               	movlw	0
  3878  002FCE  6EAA               	movwf	170,c	;volatile
  3879  002FD0                     
  3880                           ;movement.c: 55:     CCPR1L = 0x50;
  3881  002FD0  0E50               	movlw	80
  3882  002FD2  6EA9               	movwf	169,c	;volatile
  3883  002FD4                     
  3884                           ;movement.c: 56:     CCPR2H = 0x00;
  3885  002FD4  0E00               	movlw	0
  3886  002FD6  6EA6               	movwf	166,c	;volatile
  3887  002FD8                     
  3888                           ;movement.c: 57:     CCPR2L = 0x50;
  3889  002FD8  0E50               	movlw	80
  3890  002FDA  6EA5               	movwf	165,c	;volatile
  3891  002FDC  0012               	return		;funcret
  3892  002FDE                     __end_of_rturn:
  3893                           	opt callstack 0
  3894                           
  3895 ;; *************** function _reverser *****************
  3896 ;; Defined at:
  3897 ;;		line 110 in file "movement.c"
  3898 ;; Parameters:    Size  Location     Type
  3899 ;;		None
  3900 ;; Auto vars:     Size  Location     Type
  3901 ;;		None
  3902 ;; Return value:  Size  Location     Type
  3903 ;;                  1    wreg      void 
  3904 ;; Registers used:
  3905 ;;		wreg, status,2
  3906 ;; Tracked objects:
  3907 ;;		On entry : 0/0
  3908 ;;		On exit  : 0/0
  3909 ;;		Unchanged: 0/0
  3910 ;; Data sizes:     COMRAM   BANK0   BANK1   BANK2   BANK3   BANK4   BANK5   BANK6   BANK7
  3911 ;;      Params:         0       0       0       0       0       0       0       0       0
  3912 ;;      Locals:         0       0       0       0       0       0       0       0       0
  3913 ;;      Temps:          0       2       0       0       0       0       0       0       0
  3914 ;;      Totals:         0       2       0       0       0       0       0       0       0
  3915 ;;Total ram usage:        2 bytes
  3916 ;; Hardware stack levels used:    1
  3917 ;; Hardware stack levels required when called:    3
  3918 ;; This function calls:
  3919 ;;		Nothing
  3920 ;; This function is called by:
  3921 ;;		_IRpath1
  3922 ;;		_main
  3923 ;; This function uses a non-reentrant model
  3924 ;;
  3925                           
  3926                           	psect	text15
  3927  002FDE                     __ptext15:
  3928                           	opt callstack 0
  3929  002FDE                     _reverser:
  3930                           	opt callstack 27
  3931  002FDE                     
  3932                           ;movement.c: 111:     CCPR1H = 0x00;
  3933  002FDE  0E00               	movlw	0
  3934  002FE0  6EAA               	movwf	170,c	;volatile
  3935                           
  3936                           ;movement.c: 112:     CCPR1L = 0xF0;
  3937  002FE2  0EF0               	movlw	240
  3938  002FE4  6EA9               	movwf	169,c	;volatile
  3939                           
  3940                           ;movement.c: 113:     CCPR2H = 0x00;
  3941  002FE6  0E00               	movlw	0
  3942  002FE8  6EA6               	movwf	166,c	;volatile
  3943                           
  3944                           ;movement.c: 114:     CCPR2L = 0xF0;
  3945  002FEA  0EF0               	movlw	240
  3946  002FEC  6EA5               	movwf	165,c	;volatile
  3947  002FEE  848E               	bsf	3982,2,c	;volatile
  3948  002FF0  9090               	bcf	3984,0,c	;volatile
  3949  002FF2  928E               	bcf	3982,1,c	;volatile
  3950  002FF4  808E               	bsf	3982,0,c	;volatile
  3951  002FF6                     
  3952                           ;movement.c: 119:     _delay((unsigned long)((225)*(8000000/4000.0)));
  3953  002FF6  0E03               	movlw	3
  3954  002FF8  0100               	movlb	0	; () banked
  3955  002FFA  6F61               	movwf	(??_reverser+1)& (0+255),b
  3956  002FFC  0E49               	movlw	73
  3957  002FFE  6F60               	movwf	??_reverser& (0+255),b
  3958  003000  0E66               	movlw	102
  3959  003002                     u5267:
  3960  003002  2EE8               	decfsz	wreg,f,c
  3961  003004  D7FE               	bra	u5267
  3962  003006  2F60               	decfsz	??_reverser& (0+255),f,b
  3963  003008  D7FC               	bra	u5267
  3964  00300A  2F61               	decfsz	(??_reverser+1)& (0+255),f,b
  3965  00300C  D7FA               	bra	u5267
  3966  00300E  F000               	nop	
  3967  003010  948E               	bcf	3982,2,c	;volatile
  3968  003012  9090               	bcf	3984,0,c	;volatile
  3969  003014  928E               	bcf	3982,1,c	;volatile
  3970  003016  908E               	bcf	3982,0,c	;volatile
  3971  003018                     
  3972                           ;movement.c: 124:     CCPR1H = 0x00;
  3973  003018  0E00               	movlw	0
  3974  00301A  6EAA               	movwf	170,c	;volatile
  3975  00301C                     
  3976                           ;movement.c: 125:     CCPR1L = 0x50;
  3977  00301C  0E50               	movlw	80
  3978  00301E  6EA9               	movwf	169,c	;volatile
  3979  003020                     
  3980                           ;movement.c: 126:     CCPR2H = 0x00;
  3981  003020  0E00               	movlw	0
  3982  003022  6EA6               	movwf	166,c	;volatile
  3983  003024                     
  3984                           ;movement.c: 127:     CCPR2L = 0x50;
  3985  003024  0E50               	movlw	80
  3986  003026  6EA5               	movwf	165,c	;volatile
  3987  003028  0012               	return		;funcret
  3988  00302A                     __end_of_reverser:
  3989                           	opt callstack 0
  3990                           
  3991 ;; *************** function _reversel *****************
  3992 ;; Defined at:
  3993 ;;		line 87 in file "movement.c"
  3994 ;; Parameters:    Size  Location     Type
  3995 ;;		None
  3996 ;; Auto vars:     Size  Location     Type
  3997 ;;		None
  3998 ;; Return value:  Size  Location     Type
  3999 ;;                  1    wreg      void 
  4000 ;; Registers used:
  4001 ;;		wreg, status,2
  4002 ;; Tracked objects:
  4003 ;;		On entry : 0/0
  4004 ;;		On exit  : 0/0
  4005 ;;		Unchanged: 0/0
  4006 ;; Data sizes:     COMRAM   BANK0   BANK1   BANK2   BANK3   BANK4   BANK5   BANK6   BANK7
  4007 ;;      Params:         0       0       0       0       0       0       0       0       0
  4008 ;;      Locals:         0       0       0       0       0       0       0       0       0
  4009 ;;      Temps:          0       2       0       0       0       0       0       0       0
  4010 ;;      Totals:         0       2       0       0       0       0       0       0       0
  4011 ;;Total ram usage:        2 bytes
  4012 ;; Hardware stack levels used:    1
  4013 ;; Hardware stack levels required when called:    3
  4014 ;; This function calls:
  4015 ;;		Nothing
  4016 ;; This function is called by:
  4017 ;;		_IRpath1
  4018 ;;		_main
  4019 ;; This function uses a non-reentrant model
  4020 ;;
  4021                           
  4022                           	psect	text16
  4023  00302A                     __ptext16:
  4024                           	opt callstack 0
  4025  00302A                     _reversel:
  4026                           	opt callstack 27
  4027  00302A                     
  4028                           ;movement.c: 88:     CCPR1H = 0x00;
  4029  00302A  0E00               	movlw	0
  4030  00302C  6EAA               	movwf	170,c	;volatile
  4031                           
  4032                           ;movement.c: 89:     CCPR1L = 0xF0;
  4033  00302E  0EF0               	movlw	240
  4034  003030  6EA9               	movwf	169,c	;volatile
  4035                           
  4036                           ;movement.c: 90:     CCPR2H = 0x00;
  4037  003032  0E00               	movlw	0
  4038  003034  6EA6               	movwf	166,c	;volatile
  4039                           
  4040                           ;movement.c: 91:     CCPR2L = 0xF0;
  4041  003036  0EF0               	movlw	240
  4042  003038  6EA5               	movwf	165,c	;volatile
  4043  00303A  948E               	bcf	3982,2,c	;volatile
  4044  00303C  8090               	bsf	3984,0,c	;volatile
  4045  00303E  828E               	bsf	3982,1,c	;volatile
  4046  003040  908E               	bcf	3982,0,c	;volatile
  4047  003042                     
  4048                           ;movement.c: 96:     _delay((unsigned long)((225)*(8000000/4000.0)));
  4049  003042  0E03               	movlw	3
  4050  003044  0100               	movlb	0	; () banked
  4051  003046  6F61               	movwf	(??_reversel+1)& (0+255),b
  4052  003048  0E49               	movlw	73
  4053  00304A  6F60               	movwf	??_reversel& (0+255),b
  4054  00304C  0E66               	movlw	102
  4055  00304E                     u5277:
  4056  00304E  2EE8               	decfsz	wreg,f,c
  4057  003050  D7FE               	bra	u5277
  4058  003052  2F60               	decfsz	??_reversel& (0+255),f,b
  4059  003054  D7FC               	bra	u5277
  4060  003056  2F61               	decfsz	(??_reversel+1)& (0+255),f,b
  4061  003058  D7FA               	bra	u5277
  4062  00305A  F000               	nop	
  4063  00305C  948E               	bcf	3982,2,c	;volatile
  4064  00305E  9090               	bcf	3984,0,c	;volatile
  4065  003060  928E               	bcf	3982,1,c	;volatile
  4066  003062  908E               	bcf	3982,0,c	;volatile
  4067  003064                     
  4068                           ;movement.c: 101:     CCPR1H = 0x00;
  4069  003064  0E00               	movlw	0
  4070  003066  6EAA               	movwf	170,c	;volatile
  4071  003068                     
  4072                           ;movement.c: 102:     CCPR1L = 0x50;
  4073  003068  0E50               	movlw	80
  4074  00306A  6EA9               	movwf	169,c	;volatile
  4075  00306C                     
  4076                           ;movement.c: 103:     CCPR2H = 0x00;
  4077  00306C  0E00               	movlw	0
  4078  00306E  6EA6               	movwf	166,c	;volatile
  4079  003070                     
  4080                           ;movement.c: 104:     CCPR2L = 0x50;
  4081  003070  0E50               	movlw	80
  4082  003072  6EA5               	movwf	165,c	;volatile
  4083  003074  0012               	return		;funcret
  4084  003076                     __end_of_reversel:
  4085                           	opt callstack 0
  4086                           
  4087 ;; *************** function _lturn *****************
  4088 ;; Defined at:
  4089 ;;		line 63 in file "movement.c"
  4090 ;; Parameters:    Size  Location     Type
  4091 ;;		None
  4092 ;; Auto vars:     Size  Location     Type
  4093 ;;		None
  4094 ;; Return value:  Size  Location     Type
  4095 ;;                  1    wreg      void 
  4096 ;; Registers used:
  4097 ;;		wreg, status,2
  4098 ;; Tracked objects:
  4099 ;;		On entry : 0/0
  4100 ;;		On exit  : 0/0
  4101 ;;		Unchanged: 0/0
  4102 ;; Data sizes:     COMRAM   BANK0   BANK1   BANK2   BANK3   BANK4   BANK5   BANK6   BANK7
  4103 ;;      Params:         0       0       0       0       0       0       0       0       0
  4104 ;;      Locals:         0       0       0       0       0       0       0       0       0
  4105 ;;      Temps:          0       2       0       0       0       0       0       0       0
  4106 ;;      Totals:         0       2       0       0       0       0       0       0       0
  4107 ;;Total ram usage:        2 bytes
  4108 ;; Hardware stack levels used:    1
  4109 ;; Hardware stack levels required when called:    3
  4110 ;; This function calls:
  4111 ;;		Nothing
  4112 ;; This function is called by:
  4113 ;;		_IRpath1
  4114 ;;		_main
  4115 ;; This function uses a non-reentrant model
  4116 ;;
  4117                           
  4118                           	psect	text17
  4119  003076                     __ptext17:
  4120                           	opt callstack 0
  4121  003076                     _lturn:
  4122                           	opt callstack 27
  4123  003076                     
  4124                           ;movement.c: 65:     CCPR1H = 0x00;
  4125  003076  0E00               	movlw	0
  4126  003078  6EAA               	movwf	170,c	;volatile
  4127                           
  4128                           ;movement.c: 66:     CCPR1L = 0xF0;
  4129  00307A  0EF0               	movlw	240
  4130  00307C  6EA9               	movwf	169,c	;volatile
  4131                           
  4132                           ;movement.c: 67:     CCPR2H = 0x00;
  4133  00307E  0E00               	movlw	0
  4134  003080  6EA6               	movwf	166,c	;volatile
  4135                           
  4136                           ;movement.c: 68:     CCPR2L = 0xF0;
  4137  003082  0EF0               	movlw	240
  4138  003084  6EA5               	movwf	165,c	;volatile
  4139  003086  948E               	bcf	3982,2,c	;volatile
  4140  003088  8090               	bsf	3984,0,c	;volatile
  4141  00308A  828E               	bsf	3982,1,c	;volatile
  4142  00308C  908E               	bcf	3982,0,c	;volatile
  4143  00308E                     
  4144                           ;movement.c: 73:     _delay((unsigned long)((110)*(8000000/4000.0)));
  4145  00308E  0E02               	movlw	2
  4146  003090  0100               	movlb	0	; () banked
  4147  003092  6F61               	movwf	(??_lturn+1)& (0+255),b
  4148  003094  0E1E               	movlw	30
  4149  003096  6F60               	movwf	??_lturn& (0+255),b
  4150  003098  0EB3               	movlw	179
  4151  00309A                     u5287:
  4152  00309A  2EE8               	decfsz	wreg,f,c
  4153  00309C  D7FE               	bra	u5287
  4154  00309E  2F60               	decfsz	??_lturn& (0+255),f,b
  4155  0030A0  D7FC               	bra	u5287
  4156  0030A2  2F61               	decfsz	(??_lturn+1)& (0+255),f,b
  4157  0030A4  D7FA               	bra	u5287
  4158  0030A6  D000               	nop2	
  4159  0030A8  948E               	bcf	3982,2,c	;volatile
  4160  0030AA  9090               	bcf	3984,0,c	;volatile
  4161  0030AC  928E               	bcf	3982,1,c	;volatile
  4162  0030AE  908E               	bcf	3982,0,c	;volatile
  4163  0030B0                     
  4164                           ;movement.c: 78:     CCPR1H = 0x00;
  4165  0030B0  0E00               	movlw	0
  4166  0030B2  6EAA               	movwf	170,c	;volatile
  4167  0030B4                     
  4168                           ;movement.c: 79:     CCPR1L = 0x50;
  4169  0030B4  0E50               	movlw	80
  4170  0030B6  6EA9               	movwf	169,c	;volatile
  4171  0030B8                     
  4172                           ;movement.c: 80:     CCPR2H = 0x00;
  4173  0030B8  0E00               	movlw	0
  4174  0030BA  6EA6               	movwf	166,c	;volatile
  4175  0030BC                     
  4176                           ;movement.c: 81:     CCPR2L = 0x50;
  4177  0030BC  0E50               	movlw	80
  4178  0030BE  6EA5               	movwf	165,c	;volatile
  4179  0030C0  0012               	return		;funcret
  4180  0030C2                     __end_of_lturn:
  4181                           	opt callstack 0
  4182                           
  4183 ;; *************** function _lcdprint *****************
  4184 ;; Defined at:
  4185 ;;		line 281 in file "senior_main.c"
  4186 ;; Parameters:    Size  Location     Type
  4187 ;;		None
  4188 ;; Auto vars:     Size  Location     Type
  4189 ;;  i               2  105[BANK0 ] int 
  4190 ;;  array           2  108[BANK0 ] unsigned char [2]
  4191 ;;  temp1           1  112[BANK0 ] unsigned char 
  4192 ;;  d               1  111[BANK0 ] unsigned char [1]
  4193 ;;  temp2           1  110[BANK0 ] unsigned char 
  4194 ;;  dd              1  107[BANK0 ] unsigned char 
  4195 ;;  d3              1  104[BANK0 ] unsigned char 
  4196 ;;  d2              1  103[BANK0 ] unsigned char 
  4197 ;;  d1              1  102[BANK0 ] unsigned char 
  4198 ;; Return value:  Size  Location     Type
  4199 ;;                  1    wreg      void 
  4200 ;; Registers used:
  4201 ;;		wreg, fsr1l, fsr1h, fsr2l, fsr2h, status,2, status,0, tblptrl, tblptrh, tblptru, prodl, prodh, cstack
  4202 ;; Tracked objects:
  4203 ;;		On entry : 0/0
  4204 ;;		On exit  : 0/0
  4205 ;;		Unchanged: 0/0
  4206 ;; Data sizes:     COMRAM   BANK0   BANK1   BANK2   BANK3   BANK4   BANK5   BANK6   BANK7
  4207 ;;      Params:         0       0       0       0       0       0       0       0       0
  4208 ;;      Locals:         0      11       0       0       0       0       0       0       0
  4209 ;;      Temps:          0       1       0       0       0       0       0       0       0
  4210 ;;      Totals:         0      12       0       0       0       0       0       0       0
  4211 ;;Total ram usage:       12 bytes
  4212 ;; Hardware stack levels used:    1
  4213 ;; Hardware stack levels required when called:   11
  4214 ;; This function calls:
  4215 ;;		___awdiv
  4216 ;;		___awmod
  4217 ;;		_get_minutes
  4218 ;;		_get_seconds
  4219 ;;		_lcd_char
  4220 ;;		_lcd_command
  4221 ;;		_sprintf
  4222 ;; This function is called by:
  4223 ;;		_IRpath1
  4224 ;;		_main
  4225 ;; This function uses a non-reentrant model
  4226 ;;
  4227                           
  4228                           	psect	text18
  4229  001982                     __ptext18:
  4230                           	opt callstack 0
  4231  001982                     _lcdprint:
  4232                           	opt callstack 19
  4233  001982                     
  4234                           ;senior_main.c: 282:     temp2 = array[1];
  4235  001982  0E02               	movlw	2
  4236  001984  EC4C  F013         	call	_lcd_command
  4237  001988                     
  4238                           ;senior_main.c: 293:         lcd_char('0');
  4239  001988  0ECC               	movlw	low lcdprint@array
  4240  00198A  0100               	movlb	0	; () banked
  4241  00198C  6FB5               	movwf	sprintf@s& (0+255),b
  4242  00198E  0E00               	movlw	high lcdprint@array
  4243  001990  6FB6               	movwf	(sprintf@s+1)& (0+255),b
  4244  001992  0E05               	movlw	low STR_1
  4245  001994  6FB7               	movwf	sprintf@fmt& (0+255),b
  4246  001996  0E08               	movlw	high STR_1
  4247  001998  6FB8               	movwf	(sprintf@fmt+1)& (0+255),b
  4248  00199A  ECAA  F019         	call	_get_minutes	;wreg free
  4249  00199E  0100               	movlb	0	; () banked
  4250  0019A0  6FC5               	movwf	??_lcdprint& (0+255),b
  4251  0019A2  51C5               	movf	??_lcdprint& (0+255),w,b
  4252  0019A4  6FB9               	movwf	(?_sprintf+4)& (0+255),b
  4253  0019A6  6BBA               	clrf	(?_sprintf+5)& (0+255),b
  4254  0019A8  EC7A  F017         	call	_sprintf	;wreg free
  4255  0019AC                     
  4256                           ;senior_main.c: 294:     }
  4257  0019AC  C0CC  F0D0         	movff	lcdprint@array,lcdprint@temp1
  4258  0019B0                     
  4259                           ;senior_main.c: 295:     lcd_command(0xC0);
  4260  0019B0  C0CD  F0CE         	movff	lcdprint@array+1,lcdprint@temp2
  4261  0019B4                     
  4262                           ;senior_main.c: 296: 
  4263  0019B4  0100               	movlb	0	; () banked
  4264  0019B6  51D0               	movf	lcdprint@temp1& (0+255),w,b
  4265  0019B8  B4D8               	btfsc	status,2,c
  4266  0019BA  EFE1  F00C         	goto	u3101
  4267  0019BE  EFE3  F00C         	goto	u3100
  4268  0019C2                     u3101:
  4269  0019C2  EFF4  F00C         	goto	l3582
  4270  0019C6                     u3100:
  4271  0019C6                     
  4272                           ; BSR set to: 0
  4273  0019C6  51CE               	movf	lcdprint@temp2& (0+255),w,b
  4274  0019C8  B4D8               	btfsc	status,2,c
  4275  0019CA  EFE9  F00C         	goto	u3111
  4276  0019CE  EFEB  F00C         	goto	u3110
  4277  0019D2                     u3111:
  4278  0019D2  EFF4  F00C         	goto	l3582
  4279  0019D6                     u3110:
  4280  0019D6                     
  4281                           ; BSR set to: 0
  4282                           ;senior_main.c: 297: 
  4283  0019D6  51D0               	movf	lcdprint@temp1& (0+255),w,b
  4284  0019D8  ECB4  F013         	call	_lcd_char
  4285                           
  4286                           ;senior_main.c: 298:     char d1 = (distance/100)%10;
  4287  0019DC  0100               	movlb	0	; () banked
  4288  0019DE  51CE               	movf	lcdprint@temp2& (0+255),w,b
  4289  0019E0  ECB4  F013         	call	_lcd_char
  4290                           
  4291                           ;senior_main.c: 299:     char d2 = (distance/10)%10;
  4292  0019E4  EF13  F00D         	goto	l245
  4293  0019E8                     l3582:
  4294                           
  4295                           ; BSR set to: 0
  4296  0019E8  51D0               	movf	lcdprint@temp1& (0+255),w,b
  4297  0019EA  B4D8               	btfsc	status,2,c
  4298  0019EC  EFFA  F00C         	goto	u3121
  4299  0019F0  EFFC  F00C         	goto	u3120
  4300  0019F4                     u3121:
  4301  0019F4  EF0D  F00D         	goto	l3588
  4302  0019F8                     u3120:
  4303  0019F8                     
  4304                           ; BSR set to: 0
  4305  0019F8  51CE               	movf	lcdprint@temp2& (0+255),w,b
  4306  0019FA  A4D8               	btfss	status,2,c
  4307  0019FC  EF02  F00D         	goto	u3131
  4308  001A00  EF04  F00D         	goto	u3130
  4309  001A04                     u3131:
  4310  001A04  EF0D  F00D         	goto	l3588
  4311  001A08                     u3130:
  4312  001A08                     
  4313                           ; BSR set to: 0
  4314                           ;senior_main.c: 301: 
  4315  001A08  0E30               	movlw	48
  4316  001A0A  ECB4  F013         	call	_lcd_char
  4317                           
  4318                           ;senior_main.c: 302:     char d[1];
  4319  001A0E  0100               	movlb	0	; () banked
  4320  001A10  51D0               	movf	lcdprint@temp1& (0+255),w,b
  4321  001A12  ECB4  F013         	call	_lcd_char
  4322                           
  4323                           ;senior_main.c: 303: 
  4324  001A16  EF13  F00D         	goto	l245
  4325  001A1A                     l3588:
  4326                           
  4327                           ; BSR set to: 0
  4328                           ;senior_main.c: 305:         d[i]=0;
  4329  001A1A  0E30               	movlw	48
  4330  001A1C  ECB4  F013         	call	_lcd_char
  4331                           
  4332                           ;senior_main.c: 306:     }
  4333  001A20  0E30               	movlw	48
  4334  001A22  ECB4  F013         	call	_lcd_char
  4335  001A26                     l245:
  4336                           
  4337                           ;senior_main.c: 308:     char dd = d[0];
  4338  001A26  0E3A               	movlw	58
  4339  001A28  ECB4  F013         	call	_lcd_char
  4340  001A2C                     
  4341                           ;senior_main.c: 310:     sprintf(d, "%u", d2);
  4342  001A2C  0ECC               	movlw	low lcdprint@array
  4343  001A2E  0100               	movlb	0	; () banked
  4344  001A30  6FB5               	movwf	sprintf@s& (0+255),b
  4345  001A32  0E00               	movlw	high lcdprint@array
  4346  001A34  6FB6               	movwf	(sprintf@s+1)& (0+255),b
  4347  001A36  0E05               	movlw	low STR_1
  4348  001A38  6FB7               	movwf	sprintf@fmt& (0+255),b
  4349  001A3A  0E08               	movlw	high STR_1
  4350  001A3C  6FB8               	movwf	(sprintf@fmt+1)& (0+255),b
  4351  001A3E  EC97  F019         	call	_get_seconds	;wreg free
  4352  001A42  0100               	movlb	0	; () banked
  4353  001A44  6FC5               	movwf	??_lcdprint& (0+255),b
  4354  001A46  51C5               	movf	??_lcdprint& (0+255),w,b
  4355  001A48  6FB9               	movwf	(?_sprintf+4)& (0+255),b
  4356  001A4A  6BBA               	clrf	(?_sprintf+5)& (0+255),b
  4357  001A4C  EC7A  F017         	call	_sprintf	;wreg free
  4358  001A50                     
  4359                           ;senior_main.c: 311:     dd = d[0];
  4360  001A50  C0CC  F0D0         	movff	lcdprint@array,lcdprint@temp1
  4361  001A54                     
  4362                           ;senior_main.c: 312:     lcd_char(dd);
  4363  001A54  C0CD  F0CE         	movff	lcdprint@array+1,lcdprint@temp2
  4364  001A58                     
  4365                           ;senior_main.c: 313:     sprintf(d, "%u", d3);
  4366  001A58  0100               	movlb	0	; () banked
  4367  001A5A  51D0               	movf	lcdprint@temp1& (0+255),w,b
  4368  001A5C  B4D8               	btfsc	status,2,c
  4369  001A5E  EF33  F00D         	goto	u3141
  4370  001A62  EF35  F00D         	goto	u3140
  4371  001A66                     u3141:
  4372  001A66  EF46  F00D         	goto	l3602
  4373  001A6A                     u3140:
  4374  001A6A                     
  4375                           ; BSR set to: 0
  4376  001A6A  51CE               	movf	lcdprint@temp2& (0+255),w,b
  4377  001A6C  B4D8               	btfsc	status,2,c
  4378  001A6E  EF3B  F00D         	goto	u3151
  4379  001A72  EF3D  F00D         	goto	u3150
  4380  001A76                     u3151:
  4381  001A76  EF46  F00D         	goto	l3602
  4382  001A7A                     u3150:
  4383  001A7A                     
  4384                           ; BSR set to: 0
  4385                           ;senior_main.c: 314:     dd = d[0];
  4386  001A7A  51D0               	movf	lcdprint@temp1& (0+255),w,b
  4387  001A7C  ECB4  F013         	call	_lcd_char
  4388                           
  4389                           ;senior_main.c: 315:     lcd_char(dd);
  4390  001A80  0100               	movlb	0	; () banked
  4391  001A82  51CE               	movf	lcdprint@temp2& (0+255),w,b
  4392  001A84  ECB4  F013         	call	_lcd_char
  4393                           
  4394                           ;senior_main.c: 316:     lcd_char('c');
  4395  001A88  EF65  F00D         	goto	l249
  4396  001A8C                     l3602:
  4397                           
  4398                           ; BSR set to: 0
  4399  001A8C  51D0               	movf	lcdprint@temp1& (0+255),w,b
  4400  001A8E  B4D8               	btfsc	status,2,c
  4401  001A90  EF4C  F00D         	goto	u3161
  4402  001A94  EF4E  F00D         	goto	u3160
  4403  001A98                     u3161:
  4404  001A98  EF5F  F00D         	goto	l3608
  4405  001A9C                     u3160:
  4406  001A9C                     
  4407                           ; BSR set to: 0
  4408  001A9C  51CE               	movf	lcdprint@temp2& (0+255),w,b
  4409  001A9E  A4D8               	btfss	status,2,c
  4410  001AA0  EF54  F00D         	goto	u3171
  4411  001AA4  EF56  F00D         	goto	u3170
  4412  001AA8                     u3171:
  4413  001AA8  EF5F  F00D         	goto	l3608
  4414  001AAC                     u3170:
  4415  001AAC                     
  4416                           ; BSR set to: 0
  4417                           ;senior_main.c: 318: }
  4418  001AAC  0E30               	movlw	48
  4419  001AAE  ECB4  F013         	call	_lcd_char
  4420                           
  4421                           ;senior_main.c: 319: 
  4422  001AB2  0100               	movlb	0	; () banked
  4423  001AB4  51D0               	movf	lcdprint@temp1& (0+255),w,b
  4424  001AB6  ECB4  F013         	call	_lcd_char
  4425                           
  4426                           ;senior_main.c: 320: 
  4427  001ABA  EF65  F00D         	goto	l249
  4428  001ABE                     l3608:
  4429                           
  4430                           ; BSR set to: 0
  4431                           ;senior_main.c: 322: 
  4432  001ABE  0E30               	movlw	48
  4433  001AC0  ECB4  F013         	call	_lcd_char
  4434                           
  4435                           ;senior_main.c: 323: void IRpath1(){
  4436  001AC4  0E30               	movlw	48
  4437  001AC6  ECB4  F013         	call	_lcd_char
  4438  001ACA                     l249:
  4439                           
  4440                           ;senior_main.c: 325:     int turncheck = 1;
  4441  001ACA  0EC0               	movlw	192
  4442  001ACC  EC4C  F013         	call	_lcd_command
  4443                           
  4444                           ;senior_main.c: 328: 
  4445  001AD0  0E00               	movlw	0
  4446  001AD2  0100               	movlb	0	; () banked
  4447  001AD4  6F63               	movwf	(___awdiv@divisor+1)& (0+255),b
  4448  001AD6  0E64               	movlw	100
  4449  001AD8  6F62               	movwf	___awdiv@divisor& (0+255),b
  4450  001ADA  C0FD  F060         	movff	_distance,___awdiv@dividend
  4451  001ADE  C0FE  F061         	movff	_distance+1,___awdiv@dividend+1
  4452  001AE2  EC4B  F015         	call	___awdiv	;wreg free
  4453  001AE6  C060  F068         	movff	?___awdiv,___awmod@dividend
  4454  001AEA  C061  F069         	movff	?___awdiv+1,___awmod@dividend+1
  4455  001AEE  0E00               	movlw	0
  4456  001AF0  0100               	movlb	0	; () banked
  4457  001AF2  6F6B               	movwf	(___awmod@divisor+1)& (0+255),b
  4458  001AF4  0E0A               	movlw	10
  4459  001AF6  6F6A               	movwf	___awmod@divisor& (0+255),b
  4460  001AF8  ECAE  F015         	call	___awmod	;wreg free
  4461  001AFC  0100               	movlb	0	; () banked
  4462  001AFE  5168               	movf	?___awmod& (0+255),w,b
  4463  001B00  6FC6               	movwf	lcdprint@d1& (0+255),b
  4464                           
  4465                           ;senior_main.c: 329:         if(turncheck){
  4466  001B02  0E00               	movlw	0
  4467  001B04  6F63               	movwf	(___awdiv@divisor+1)& (0+255),b
  4468  001B06  0E0A               	movlw	10
  4469  001B08  6F62               	movwf	___awdiv@divisor& (0+255),b
  4470  001B0A  C0FD  F060         	movff	_distance,___awdiv@dividend
  4471  001B0E  C0FE  F061         	movff	_distance+1,___awdiv@dividend+1
  4472  001B12  EC4B  F015         	call	___awdiv	;wreg free
  4473  001B16  C060  F068         	movff	?___awdiv,___awmod@dividend
  4474  001B1A  C061  F069         	movff	?___awdiv+1,___awmod@dividend+1
  4475  001B1E  0E00               	movlw	0
  4476  001B20  0100               	movlb	0	; () banked
  4477  001B22  6F6B               	movwf	(___awmod@divisor+1)& (0+255),b
  4478  001B24  0E0A               	movlw	10
  4479  001B26  6F6A               	movwf	___awmod@divisor& (0+255),b
  4480  001B28  ECAE  F015         	call	___awmod	;wreg free
  4481  001B2C  0100               	movlb	0	; () banked
  4482  001B2E  5168               	movf	?___awmod& (0+255),w,b
  4483  001B30  6FC7               	movwf	lcdprint@d2& (0+255),b
  4484                           
  4485                           ;senior_main.c: 330:             PWM3DCH = 0x12;
  4486  001B32  C0FD  F068         	movff	_distance,___awmod@dividend
  4487  001B36  C0FE  F069         	movff	_distance+1,___awmod@dividend+1
  4488  001B3A  0E00               	movlw	0
  4489  001B3C  6F6B               	movwf	(___awmod@divisor+1)& (0+255),b
  4490  001B3E  0E0A               	movlw	10
  4491  001B40  6F6A               	movwf	___awmod@divisor& (0+255),b
  4492  001B42  ECAE  F015         	call	___awmod	;wreg free
  4493  001B46  0100               	movlb	0	; () banked
  4494  001B48  5168               	movf	?___awmod& (0+255),w,b
  4495  001B4A  6FC8               	movwf	lcdprint@d3& (0+255),b
  4496  001B4C                     
  4497                           ; BSR set to: 0
  4498                           ;senior_main.c: 332:             T2TMR = 0x00;;senior_main.c: 334:             _delay((u
      +                          nsigned long)((800)*(8000000/4000.0)));
  4499  001B4C  0E00               	movlw	0
  4500  001B4E  6FCA               	movwf	(lcdprint@i+1)& (0+255),b
  4501  001B50  0E00               	movlw	0
  4502  001B52  6FC9               	movwf	lcdprint@i& (0+255),b
  4503  001B54                     l3616:
  4504                           
  4505                           ; BSR set to: 0
  4506                           ;senior_main.c: 335:             PWM3CONbits.PWM3EN = 0;
  4507  001B54  0ECF               	movlw	low lcdprint@d
  4508  001B56  25C9               	addwf	lcdprint@i& (0+255),w,b
  4509  001B58  6ED9               	movwf	fsr2l,c
  4510  001B5A  0E00               	movlw	high lcdprint@d
  4511  001B5C  21CA               	addwfc	(lcdprint@i+1)& (0+255),w,b
  4512  001B5E  6EDA               	movwf	fsr2h,c
  4513  001B60  0E00               	movlw	0
  4514  001B62  6EDF               	movwf	indf2,c
  4515  001B64                     
  4516                           ; BSR set to: 0
  4517                           ;senior_main.c: 336:             turncheck = 0;
  4518  001B64  4BC9               	infsnz	lcdprint@i& (0+255),f,b
  4519  001B66  2BCA               	incf	(lcdprint@i+1)& (0+255),f,b
  4520  001B68                     
  4521                           ; BSR set to: 0
  4522  001B68  BFCA               	btfsc	(lcdprint@i+1)& (0+255),7,b
  4523  001B6A  EFBF  F00D         	goto	u3181
  4524  001B6E  51CA               	movf	(lcdprint@i+1)& (0+255),w,b
  4525  001B70  E108               	bnz	u3180
  4526  001B72  05C9               	decf	lcdprint@i& (0+255),w,b
  4527  001B74  A0D8               	btfss	status,0,c
  4528  001B76  EFBF  F00D         	goto	u3181
  4529  001B7A  EFC1  F00D         	goto	u3180
  4530  001B7E                     u3181:
  4531  001B7E  EFAA  F00D         	goto	l3616
  4532  001B82                     u3180:
  4533  001B82                     
  4534                           ; BSR set to: 0
  4535                           ;senior_main.c: 337:             lcdprint();
  4536  001B82  0ECF               	movlw	low lcdprint@d
  4537  001B84  6FB5               	movwf	sprintf@s& (0+255),b
  4538  001B86  0E00               	movlw	high lcdprint@d
  4539  001B88  6FB6               	movwf	(sprintf@s+1)& (0+255),b
  4540  001B8A  0E05               	movlw	low STR_1
  4541  001B8C  6FB7               	movwf	sprintf@fmt& (0+255),b
  4542  001B8E  0E08               	movlw	high STR_1
  4543  001B90  6FB8               	movwf	(sprintf@fmt+1)& (0+255),b
  4544  001B92  C0C6  F0B9         	movff	lcdprint@d1,?_sprintf+4
  4545  001B96  6BBA               	clrf	(?_sprintf+5)& (0+255),b
  4546  001B98  EC7A  F017         	call	_sprintf	;wreg free
  4547  001B9C                     
  4548                           ;senior_main.c: 338:         }
  4549  001B9C  C0CF  F0CB         	movff	lcdprint@d,lcdprint@dd
  4550  001BA0                     
  4551                           ;senior_main.c: 339:         int distlr = ultra_dist();
  4552  001BA0  0100               	movlb	0	; () banked
  4553  001BA2  51CB               	movf	lcdprint@dd& (0+255),w,b
  4554  001BA4  ECB4  F013         	call	_lcd_char
  4555  001BA8                     
  4556                           ;senior_main.c: 340: 
  4557  001BA8  0ECF               	movlw	low lcdprint@d
  4558  001BAA  0100               	movlb	0	; () banked
  4559  001BAC  6FB5               	movwf	sprintf@s& (0+255),b
  4560  001BAE  0E00               	movlw	high lcdprint@d
  4561  001BB0  6FB6               	movwf	(sprintf@s+1)& (0+255),b
  4562  001BB2  0E05               	movlw	low STR_1
  4563  001BB4  6FB7               	movwf	sprintf@fmt& (0+255),b
  4564  001BB6  0E08               	movlw	high STR_1
  4565  001BB8  6FB8               	movwf	(sprintf@fmt+1)& (0+255),b
  4566  001BBA  C0C7  F0B9         	movff	lcdprint@d2,?_sprintf+4
  4567  001BBE  6BBA               	clrf	(?_sprintf+5)& (0+255),b
  4568  001BC0  EC7A  F017         	call	_sprintf	;wreg free
  4569  001BC4                     
  4570                           ;senior_main.c: 341:         if(distlr < 60){
  4571  001BC4  C0CF  F0CB         	movff	lcdprint@d,lcdprint@dd
  4572                           
  4573                           ;senior_main.c: 342:             forward(go);
  4574  001BC8  0100               	movlb	0	; () banked
  4575  001BCA  51CB               	movf	lcdprint@dd& (0+255),w,b
  4576  001BCC  ECB4  F013         	call	_lcd_char
  4577  001BD0                     
  4578                           ;senior_main.c: 343:         }
  4579  001BD0  0ECF               	movlw	low lcdprint@d
  4580  001BD2  0100               	movlb	0	; () banked
  4581  001BD4  6FB5               	movwf	sprintf@s& (0+255),b
  4582  001BD6  0E00               	movlw	high lcdprint@d
  4583  001BD8  6FB6               	movwf	(sprintf@s+1)& (0+255),b
  4584  001BDA  0E05               	movlw	low STR_1
  4585  001BDC  6FB7               	movwf	sprintf@fmt& (0+255),b
  4586  001BDE  0E08               	movlw	high STR_1
  4587  001BE0  6FB8               	movwf	(sprintf@fmt+1)& (0+255),b
  4588  001BE2  C0C8  F0B9         	movff	lcdprint@d3,?_sprintf+4
  4589  001BE6  6BBA               	clrf	(?_sprintf+5)& (0+255),b
  4590  001BE8  EC7A  F017         	call	_sprintf	;wreg free
  4591  001BEC                     
  4592                           ;senior_main.c: 344:         else{
  4593  001BEC  C0CF  F0CB         	movff	lcdprint@d,lcdprint@dd
  4594  001BF0                     
  4595                           ;senior_main.c: 345:             _delay((unsigned long)((250)*(8000000/4000.0)));
  4596  001BF0  0100               	movlb	0	; () banked
  4597  001BF2  51CB               	movf	lcdprint@dd& (0+255),w,b
  4598  001BF4  ECB4  F013         	call	_lcd_char
  4599  001BF8                     
  4600                           ;senior_main.c: 346:             forward(stop);
  4601  001BF8  0E63               	movlw	99
  4602  001BFA  ECB4  F013         	call	_lcd_char
  4603  001BFE                     
  4604                           ;senior_main.c: 347:             lcdprint();
  4605  001BFE  0E6D               	movlw	109
  4606  001C00  ECB4  F013         	call	_lcd_char
  4607  001C04  0012               	return		;funcret
  4608  001C06                     __end_of_lcdprint:
  4609                           	opt callstack 0
  4610                           
  4611 ;; *************** function _sprintf *****************
  4612 ;; Defined at:
  4613 ;;		line 9 in file "C:\Program Files (x86)\Microchip\xc8\v2.10\pic\sources\c99\common\nf_sprintf.c"
  4614 ;; Parameters:    Size  Location     Type
  4615 ;;  s               2   85[BANK0 ] PTR unsigned char 
  4616 ;;		 -> lcdprint@d(1), lcdprint@array(2), 
  4617 ;;  fmt             2   87[BANK0 ] PTR const unsigned char 
  4618 ;;		 -> STR_5(3), STR_4(3), STR_3(3), STR_2(3), 
  4619 ;;		 -> STR_1(3), 
  4620 ;; Auto vars:     Size  Location     Type
  4621 ;;  f               6   95[BANK0 ] struct _IO_FILE
  4622 ;;  ap              2   93[BANK0 ] PTR void [1]
  4623 ;;		 -> ?_sprintf(2), 
  4624 ;;  ret             2    0        int 
  4625 ;; Return value:  Size  Location     Type
  4626 ;;                  2   85[BANK0 ] int 
  4627 ;; Registers used:
  4628 ;;		wreg, fsr1l, fsr1h, fsr2l, fsr2h, status,2, status,0, tblptrl, tblptrh, tblptru, cstack
  4629 ;; Tracked objects:
  4630 ;;		On entry : 0/0
  4631 ;;		On exit  : 0/0
  4632 ;;		Unchanged: 0/0
  4633 ;; Data sizes:     COMRAM   BANK0   BANK1   BANK2   BANK3   BANK4   BANK5   BANK6   BANK7
  4634 ;;      Params:         0       6       0       0       0       0       0       0       0
  4635 ;;      Locals:         0      10       0       0       0       0       0       0       0
  4636 ;;      Temps:          0       0       0       0       0       0       0       0       0
  4637 ;;      Totals:         0      16       0       0       0       0       0       0       0
  4638 ;;Total ram usage:       16 bytes
  4639 ;; Hardware stack levels used:    1
  4640 ;; Hardware stack levels required when called:   10
  4641 ;; This function calls:
  4642 ;;		_vfprintf
  4643 ;; This function is called by:
  4644 ;;		_lcdprint
  4645 ;; This function uses a non-reentrant model
  4646 ;;
  4647                           
  4648                           	psect	text19
  4649  002EF4                     __ptext19:
  4650                           	opt callstack 0
  4651  002EF4                     _sprintf:
  4652                           	opt callstack 19
  4653  002EF4  0EB9               	movlw	low (?_sprintf+4)
  4654  002EF6  0100               	movlb	0	; () banked
  4655  002EF8  6FBD               	movwf	sprintf@ap& (0+255),b
  4656  002EFA  0E00               	movlw	high (?_sprintf+4)
  4657  002EFC  6FBE               	movwf	(sprintf@ap+1)& (0+255),b
  4658  002EFE  C0B5  F0BF         	movff	sprintf@s,sprintf@f
  4659  002F02  C0B6  F0C0         	movff	sprintf@s+1,sprintf@f+1
  4660  002F06                     
  4661                           ; BSR set to: 0
  4662  002F06  0E00               	movlw	0
  4663  002F08  6FC2               	movwf	(sprintf@f+3)& (0+255),b
  4664  002F0A  0E00               	movlw	0
  4665  002F0C  6FC1               	movwf	(sprintf@f+2)& (0+255),b
  4666  002F0E                     
  4667                           ; BSR set to: 0
  4668  002F0E  0E00               	movlw	0
  4669  002F10  6FC4               	movwf	(sprintf@f+5)& (0+255),b
  4670  002F12  0E00               	movlw	0
  4671  002F14  6FC3               	movwf	(sprintf@f+4)& (0+255),b
  4672  002F16                     
  4673                           ; BSR set to: 0
  4674  002F16  0EBF               	movlw	low sprintf@f
  4675  002F18  6FAD               	movwf	vfprintf@fp& (0+255),b
  4676  002F1A  0E00               	movlw	high sprintf@f
  4677  002F1C  6FAE               	movwf	(vfprintf@fp+1)& (0+255),b
  4678  002F1E  C0B7  F0AF         	movff	sprintf@fmt,vfprintf@fmt
  4679  002F22  C0B8  F0B0         	movff	sprintf@fmt+1,vfprintf@fmt+1
  4680  002F26  0EBD               	movlw	low sprintf@ap
  4681  002F28  6FB1               	movwf	vfprintf@ap& (0+255),b
  4682  002F2A  0E00               	movlw	high sprintf@ap
  4683  002F2C  6FB2               	movwf	(vfprintf@ap+1)& (0+255),b
  4684  002F2E  EC19  F017         	call	_vfprintf	;wreg free
  4685  002F32  0100               	movlb	0	; () banked
  4686  002F34  51C1               	movf	(sprintf@f+2)& (0+255),w,b
  4687  002F36  25B5               	addwf	sprintf@s& (0+255),w,b
  4688  002F38  6ED9               	movwf	fsr2l,c
  4689  002F3A  51C2               	movf	(sprintf@f+3)& (0+255),w,b
  4690  002F3C  21B6               	addwfc	(sprintf@s+1)& (0+255),w,b
  4691  002F3E  6EDA               	movwf	fsr2h,c
  4692  002F40  0E00               	movlw	0
  4693  002F42  6EDF               	movwf	indf2,c
  4694  002F44                     
  4695                           ; BSR set to: 0
  4696  002F44  0012               	return		;funcret
  4697  002F46                     __end_of_sprintf:
  4698                           	opt callstack 0
  4699                           
  4700 ;; *************** function _vfprintf *****************
  4701 ;; Defined at:
  4702 ;;		line 1368 in file "C:\Program Files (x86)\Microchip\xc8\v2.10\pic\sources\c99\common\doprnt.c"
  4703 ;; Parameters:    Size  Location     Type
  4704 ;;  fp              2   77[BANK0 ] PTR struct _IO_FILE
  4705 ;;		 -> sprintf@f(6), 
  4706 ;;  fmt             2   79[BANK0 ] PTR const unsigned char 
  4707 ;;		 -> STR_5(3), STR_4(3), STR_3(3), STR_2(3), 
  4708 ;;		 -> STR_1(3), 
  4709 ;;  ap              2   81[BANK0 ] PTR PTR void 
  4710 ;;		 -> sprintf@ap(2), 
  4711 ;; Auto vars:     Size  Location     Type
  4712 ;;  cfmt            2   83[BANK0 ] PTR unsigned char 
  4713 ;;		 -> STR_5(3), STR_4(3), STR_3(3), STR_2(3), 
  4714 ;;		 -> STR_1(3), 
  4715 ;; Return value:  Size  Location     Type
  4716 ;;                  2   77[BANK0 ] int 
  4717 ;; Registers used:
  4718 ;;		wreg, fsr1l, fsr1h, fsr2l, fsr2h, status,2, status,0, tblptrl, tblptrh, tblptru, cstack
  4719 ;; Tracked objects:
  4720 ;;		On entry : 0/0
  4721 ;;		On exit  : 0/0
  4722 ;;		Unchanged: 0/0
  4723 ;; Data sizes:     COMRAM   BANK0   BANK1   BANK2   BANK3   BANK4   BANK5   BANK6   BANK7
  4724 ;;      Params:         0       6       0       0       0       0       0       0       0
  4725 ;;      Locals:         0       2       0       0       0       0       0       0       0
  4726 ;;      Temps:          0       0       0       0       0       0       0       0       0
  4727 ;;      Totals:         0       8       0       0       0       0       0       0       0
  4728 ;;Total ram usage:        8 bytes
  4729 ;; Hardware stack levels used:    1
  4730 ;; Hardware stack levels required when called:    9
  4731 ;; This function calls:
  4732 ;;		_vfpfcnvrt
  4733 ;; This function is called by:
  4734 ;;		_sprintf
  4735 ;; This function uses a non-reentrant model
  4736 ;;
  4737                           
  4738                           	psect	text20
  4739  002E32                     __ptext20:
  4740                           	opt callstack 0
  4741  002E32                     _vfprintf:
  4742                           	opt callstack 19
  4743  002E32                     
  4744                           ;C:\Program Files (x86)\Microchip\xc8\v2.10\pic\sources\c99\common\doprnt.c: 1368: int v
      +                          fprintf(FILE *fp, const char *fmt, va_list ap);C:\Program Files (x86)\Microchip\xc8\v2.1
      +                          0\pic\sources\c99\common\doprnt.c: 1369: {;C:\Program Files (x86)\Microchip\xc8\v2.10\pi
      +                          c\sources\c99\common\doprnt.c: 1371:     char *cfmt;;C:\Program Files (x86)\Microchip\xc
      +                          8\v2.10\pic\sources\c99\common\doprnt.c: 1373:     cfmt = (char *)fmt;
  4745  002E32  C0AF  F0B3         	movff	vfprintf@fmt,vfprintf@cfmt
  4746  002E36  C0B0  F0B4         	movff	vfprintf@fmt+1,vfprintf@cfmt+1
  4747  002E3A                     
  4748                           ;C:\Program Files (x86)\Microchip\xc8\v2.10\pic\sources\c99\common\doprnt.c: 1374:     n
      +                          out = 0;
  4749  002E3A  0E00               	movlw	0
  4750  002E3C  6E4D               	movwf	(_nout+1)^0,c
  4751  002E3E  0E00               	movlw	0
  4752  002E40  6E4C               	movwf	_nout^0,c
  4753                           
  4754                           ;C:\Program Files (x86)\Microchip\xc8\v2.10\pic\sources\c99\common\doprnt.c: 1375:     w
      +                          hile (*cfmt) {
  4755  002E42  EF37  F017         	goto	l3354
  4756  002E46                     l3352:
  4757                           
  4758                           ;C:\Program Files (x86)\Microchip\xc8\v2.10\pic\sources\c99\common\doprnt.c: 1376:      
      +                             nout += vfpfcnvrt(fp, &cfmt, ap);
  4759  002E46  C0AD  F09B         	movff	vfprintf@fp,vfpfcnvrt@fp
  4760  002E4A  C0AE  F09C         	movff	vfprintf@fp+1,vfpfcnvrt@fp+1
  4761  002E4E  0EB3               	movlw	low vfprintf@cfmt
  4762  002E50  0100               	movlb	0	; () banked
  4763  002E52  6F9D               	movwf	vfpfcnvrt@fmt& (0+255),b
  4764  002E54  0E00               	movlw	high vfprintf@cfmt
  4765  002E56  6F9E               	movwf	(vfpfcnvrt@fmt+1)& (0+255),b
  4766  002E58  C0B1  F09F         	movff	vfprintf@ap,vfpfcnvrt@ap
  4767  002E5C  C0B2  F0A0         	movff	vfprintf@ap+1,vfpfcnvrt@ap+1
  4768  002E60  ECE0  F00F         	call	_vfpfcnvrt	;wreg free
  4769  002E64  0100               	movlb	0	; () banked
  4770  002E66  519B               	movf	?_vfpfcnvrt& (0+255),w,b
  4771  002E68  264C               	addwf	_nout^0,f,c
  4772  002E6A  519C               	movf	(?_vfpfcnvrt+1)& (0+255),w,b
  4773  002E6C  224D               	addwfc	(_nout+1)^0,f,c
  4774  002E6E                     l3354:
  4775                           
  4776                           ;C:\Program Files (x86)\Microchip\xc8\v2.10\pic\sources\c99\common\doprnt.c: 1375:     w
      +                          hile (*cfmt) {
  4777  002E6E  C0B3  FFF6         	movff	vfprintf@cfmt,tblptrl
  4778  002E72  C0B4  FFF7         	movff	vfprintf@cfmt+1,tblptrh
  4779  002E76                     	if	0	;tblptru may be non-zero
  4780  002E76                     	endif
  4781  002E76                     	if	0	;tblptru may be non-zero
  4782  002E76                     	endif
  4783  002E76  0008               	tblrd		*
  4784  002E78  50F5               	movf	tablat,w,c
  4785  002E7A  0900               	iorlw	0
  4786  002E7C  A4D8               	btfss	status,2,c
  4787  002E7E  EF43  F017         	goto	u2931
  4788  002E82  EF45  F017         	goto	u2930
  4789  002E86                     u2931:
  4790  002E86  EF23  F017         	goto	l3352
  4791  002E8A                     u2930:
  4792  002E8A                     
  4793                           ;C:\Program Files (x86)\Microchip\xc8\v2.10\pic\sources\c99\common\doprnt.c: 1378:     r
      +                          eturn nout;
  4794  002E8A  C04C  F0AD         	movff	_nout,?_vfprintf
  4795  002E8E  C04D  F0AE         	movff	_nout+1,?_vfprintf+1
  4796  002E92  0012               	return		;funcret
  4797  002E94                     __end_of_vfprintf:
  4798                           	opt callstack 0
  4799                           
  4800 ;; *************** function _vfpfcnvrt *****************
  4801 ;; Defined at:
  4802 ;;		line 670 in file "C:\Program Files (x86)\Microchip\xc8\v2.10\pic\sources\c99\common\doprnt.c"
  4803 ;; Parameters:    Size  Location     Type
  4804 ;;  fp              2   59[BANK0 ] PTR struct _IO_FILE
  4805 ;;		 -> sprintf@f(6), 
  4806 ;;  fmt             2   61[BANK0 ] PTR PTR unsigned char 
  4807 ;;		 -> vfprintf@cfmt(2), 
  4808 ;;  ap              2   63[BANK0 ] PTR PTR void 
  4809 ;;		 -> sprintf@ap(2), 
  4810 ;; Auto vars:     Size  Location     Type
  4811 ;;  llu             8   69[BANK0 ] unsigned long long 
  4812 ;;  ll              8    0        long long 
  4813 ;;  f               4    0        long long 
  4814 ;;  vp              3    0        PTR void 
  4815 ;;  ct              3    0        unsigned char [3]
  4816 ;;  cp              3    0        PTR unsigned char 
  4817 ;;  i               2    0        int 
  4818 ;;  done            2    0        int 
  4819 ;;  c               1    0        unsigned char 
  4820 ;; Return value:  Size  Location     Type
  4821 ;;                  2   59[BANK0 ] int 
  4822 ;; Registers used:
  4823 ;;		wreg, fsr1l, fsr1h, fsr2l, fsr2h, status,2, status,0, tblptrl, tblptrh, tblptru, cstack
  4824 ;; Tracked objects:
  4825 ;;		On entry : 0/0
  4826 ;;		On exit  : 0/0
  4827 ;;		Unchanged: 0/0
  4828 ;; Data sizes:     COMRAM   BANK0   BANK1   BANK2   BANK3   BANK4   BANK5   BANK6   BANK7
  4829 ;;      Params:         0       6       0       0       0       0       0       0       0
  4830 ;;      Locals:         0       8       0       0       0       0       0       0       0
  4831 ;;      Temps:          0       4       0       0       0       0       0       0       0
  4832 ;;      Totals:         0      18       0       0       0       0       0       0       0
  4833 ;;Total ram usage:       18 bytes
  4834 ;; Hardware stack levels used:    1
  4835 ;; Hardware stack levels required when called:    8
  4836 ;; This function calls:
  4837 ;;		_fputc
  4838 ;;		_utoa
  4839 ;; This function is called by:
  4840 ;;		_vfprintf
  4841 ;; This function uses a non-reentrant model
  4842 ;;
  4843                           
  4844                           	psect	text21
  4845  001FC0                     __ptext21:
  4846                           	opt callstack 0
  4847  001FC0                     _vfpfcnvrt:
  4848                           	opt callstack 19
  4849  001FC0                     
  4850                           ;C:\Program Files (x86)\Microchip\xc8\v2.10\pic\sources\c99\common\doprnt.c: 670: static
      +                           int vfpfcnvrt(FILE *fp, char *fmt[], va_list ap);C:\Program Files (x86)\Microchip\xc8\v
      +                          2.10\pic\sources\c99\common\doprnt.c: 671: {;C:\Program Files (x86)\Microchip\xc8\v2.10\
      +                          pic\sources\c99\common\doprnt.c: 672:     char c, *cp, ct[3];;C:\Program Files (x86)\Mic
      +                          rochip\xc8\v2.10\pic\sources\c99\common\doprnt.c: 673:     int done, i;;C:\Program Files
      +                           (x86)\Microchip\xc8\v2.10\pic\sources\c99\common\doprnt.c: 674:     long long ll;
  4851  001FC0  C09D  FFD9         	movff	vfpfcnvrt@fmt,fsr2l
  4852  001FC4  C09E  FFDA         	movff	vfpfcnvrt@fmt+1,fsr2h
  4853  001FC8  CFDE FFF6          	movff	postinc2,tblptrl
  4854  001FCC  CFDD FFF7          	movff	postdec2,tblptrh
  4855  001FD0                     	if	0	;tblptru may be non-zero
  4856  001FD0                     	endif
  4857  001FD0                     	if	0	;tblptru may be non-zero
  4858  001FD0                     	endif
  4859  001FD0  0008               	tblrd		*
  4860  001FD2  50F5               	movf	tablat,w,c
  4861  001FD4  0A25               	xorlw	37
  4862  001FD6  A4D8               	btfss	status,2,c
  4863  001FD8  EFF0  F00F         	goto	u2741
  4864  001FDC  EFF2  F00F         	goto	u2740
  4865  001FE0                     u2741:
  4866  001FE0  EF8E  F010         	goto	l3302
  4867  001FE4                     u2740:
  4868  001FE4                     
  4869                           ;C:\Program Files (x86)\Microchip\xc8\v2.10\pic\sources\c99\common\doprnt.c: 681:       
      +                            ++*fmt;
  4870  001FE4  C09D  FFD9         	movff	vfpfcnvrt@fmt,fsr2l
  4871  001FE8  C09E  FFDA         	movff	vfpfcnvrt@fmt+1,fsr2h
  4872  001FEC  2ADE               	incf	postinc2,f,c
  4873  001FEE  0E00               	movlw	0
  4874  001FF0  22DD               	addwfc	postdec2,f,c
  4875  001FF2                     
  4876                           ;C:\Program Files (x86)\Microchip\xc8\v2.10\pic\sources\c99\common\doprnt.c: 683:       
      +                            flags = width = 0;
  4877  001FF2  0E00               	movlw	0
  4878  001FF4  6E4F               	movwf	(_width+1)^0,c
  4879  001FF6  0E00               	movlw	0
  4880  001FF8  6E4E               	movwf	_width^0,c
  4881  001FFA  C04E  F0F9         	movff	_width,_flags
  4882  001FFE  C04F  F0FA         	movff	_width+1,_flags+1
  4883  002002                     
  4884                           ;C:\Program Files (x86)\Microchip\xc8\v2.10\pic\sources\c99\common\doprnt.c: 684:       
      +                            prec = -1;
  4885  002002  0100               	movlb	0	; () banked
  4886  002004  69F7               	setf	_prec& (0+255),b
  4887  002006  69F8               	setf	(_prec+1)& (0+255),b
  4888  002008                     
  4889                           ; BSR set to: 0
  4890                           ;C:\Program Files (x86)\Microchip\xc8\v2.10\pic\sources\c99\common\doprnt.c: 1182:      
      +                             if (*fmt[0] == 'u') {
  4891  002008  C09D  FFD9         	movff	vfpfcnvrt@fmt,fsr2l
  4892  00200C  C09E  FFDA         	movff	vfpfcnvrt@fmt+1,fsr2h
  4893  002010  CFDE FFF6          	movff	postinc2,tblptrl
  4894  002014  CFDD FFF7          	movff	postdec2,tblptrh
  4895  002018                     	if	0	;tblptru may be non-zero
  4896  002018                     	endif
  4897  002018                     	if	0	;tblptru may be non-zero
  4898  002018                     	endif
  4899  002018  0008               	tblrd		*
  4900  00201A  50F5               	movf	tablat,w,c
  4901  00201C  0A75               	xorlw	117
  4902  00201E  A4D8               	btfss	status,2,c
  4903  002020  EF14  F010         	goto	u2751
  4904  002024  EF16  F010         	goto	u2750
  4905  002028                     u2751:
  4906  002028  EF57  F010         	goto	l3286
  4907  00202C                     u2750:
  4908  00202C                     
  4909                           ; BSR set to: 0
  4910                           ;C:\Program Files (x86)\Microchip\xc8\v2.10\pic\sources\c99\common\doprnt.c: 1184:      
      +                                 ++*fmt;
  4911  00202C  C09D  FFD9         	movff	vfpfcnvrt@fmt,fsr2l
  4912  002030  C09E  FFDA         	movff	vfpfcnvrt@fmt+1,fsr2h
  4913  002034  2ADE               	incf	postinc2,f,c
  4914  002036  0E00               	movlw	0
  4915  002038  22DD               	addwfc	postdec2,f,c
  4916                           
  4917                           ;C:\Program Files (x86)\Microchip\xc8\v2.10\pic\sources\c99\common\doprnt.c: 1185:      
      +                                 llu = (unsigned long long)(*(unsigned int *)__va_arg(*(unsigned int **)ap, (unsig
      +                          ned int)0));
  4918  00203A  C09F  FFD9         	movff	vfpfcnvrt@ap,fsr2l
  4919  00203E  C0A0  FFDA         	movff	vfpfcnvrt@ap+1,fsr2h
  4920  002042  CFDF F0A1          	movff	indf2,??_vfpfcnvrt
  4921  002046  0E02               	movlw	2
  4922  002048  26DE               	addwf	postinc2,f,c
  4923  00204A  CFDF F0A2          	movff	indf2,??_vfpfcnvrt+1
  4924  00204E  0E00               	movlw	0
  4925  002050  22DD               	addwfc	postdec2,f,c
  4926  002052  C0A1  FFD9         	movff	??_vfpfcnvrt,fsr2l
  4927  002056  C0A2  FFDA         	movff	??_vfpfcnvrt+1,fsr2h
  4928  00205A  CFDE F0A3          	movff	postinc2,??_vfpfcnvrt+2
  4929  00205E  CFDD F0A4          	movff	postdec2,??_vfpfcnvrt+3
  4930  002062  C0A3  F0A5         	movff	??_vfpfcnvrt+2,vfpfcnvrt@llu
  4931  002066  C0A4  F0A6         	movff	??_vfpfcnvrt+3,vfpfcnvrt@llu+1
  4932  00206A  6BA7               	clrf	(vfpfcnvrt@llu+2)& (0+255),b
  4933  00206C  6BA8               	clrf	(vfpfcnvrt@llu+3)& (0+255),b
  4934  00206E  6BA9               	clrf	(vfpfcnvrt@llu+4)& (0+255),b
  4935  002070  6BAA               	clrf	(vfpfcnvrt@llu+5)& (0+255),b
  4936  002072  6BAB               	clrf	(vfpfcnvrt@llu+6)& (0+255),b
  4937  002074  6BAC               	clrf	(vfpfcnvrt@llu+7)& (0+255),b
  4938  002076                     
  4939                           ; BSR set to: 0
  4940                           ;C:\Program Files (x86)\Microchip\xc8\v2.10\pic\sources\c99\common\doprnt.c: 1187:      
      +                                 return utoa(fp, llu);
  4941  002076  C09B  F07B         	movff	vfpfcnvrt@fp,utoa@fp
  4942  00207A  C09C  F07C         	movff	vfpfcnvrt@fp+1,utoa@fp+1
  4943  00207E  C0A5  F07D         	movff	vfpfcnvrt@llu,utoa@d
  4944  002082  C0A6  F07E         	movff	vfpfcnvrt@llu+1,utoa@d+1
  4945  002086  C0A7  F07F         	movff	vfpfcnvrt@llu+2,utoa@d+2
  4946  00208A  C0A8  F080         	movff	vfpfcnvrt@llu+3,utoa@d+3
  4947  00208E  C0A9  F081         	movff	vfpfcnvrt@llu+4,utoa@d+4
  4948  002092  C0AA  F082         	movff	vfpfcnvrt@llu+5,utoa@d+5
  4949  002096  C0AB  F083         	movff	vfpfcnvrt@llu+6,utoa@d+6
  4950  00209A  C0AC  F084         	movff	vfpfcnvrt@llu+7,utoa@d+7
  4951  00209E  EC03  F00E         	call	_utoa	;wreg free
  4952  0020A2  C07B  F09B         	movff	?_utoa,?_vfpfcnvrt
  4953  0020A6  C07C  F09C         	movff	?_utoa+1,?_vfpfcnvrt+1
  4954  0020AA  EFAA  F010         	goto	l615
  4955  0020AE                     l3286:
  4956                           
  4957                           ; BSR set to: 0
  4958                           ;C:\Program Files (x86)\Microchip\xc8\v2.10\pic\sources\c99\common\doprnt.c: 1350:      
      +                             if ((*fmt)[0] == '%') {
  4959  0020AE  C09D  FFD9         	movff	vfpfcnvrt@fmt,fsr2l
  4960  0020B2  C09E  FFDA         	movff	vfpfcnvrt@fmt+1,fsr2h
  4961  0020B6  CFDE FFF6          	movff	postinc2,tblptrl
  4962  0020BA  CFDD FFF7          	movff	postdec2,tblptrh
  4963  0020BE                     	if	0	;tblptru may be non-zero
  4964  0020BE                     	endif
  4965  0020BE                     	if	0	;tblptru may be non-zero
  4966  0020BE                     	endif
  4967  0020BE  0008               	tblrd		*
  4968  0020C0  50F5               	movf	tablat,w,c
  4969  0020C2  0A25               	xorlw	37
  4970  0020C4  A4D8               	btfss	status,2,c
  4971  0020C6  EF67  F010         	goto	u2761
  4972  0020CA  EF69  F010         	goto	u2760
  4973  0020CE                     u2761:
  4974  0020CE  EF81  F010         	goto	l3296
  4975  0020D2                     u2760:
  4976  0020D2                     
  4977                           ; BSR set to: 0
  4978                           ;C:\Program Files (x86)\Microchip\xc8\v2.10\pic\sources\c99\common\doprnt.c: 1351:      
      +                                 ++*fmt;
  4979  0020D2  C09D  FFD9         	movff	vfpfcnvrt@fmt,fsr2l
  4980  0020D6  C09E  FFDA         	movff	vfpfcnvrt@fmt+1,fsr2h
  4981  0020DA  2ADE               	incf	postinc2,f,c
  4982  0020DC  0E00               	movlw	0
  4983  0020DE  22DD               	addwfc	postdec2,f,c
  4984  0020E0                     
  4985                           ; BSR set to: 0
  4986                           ;C:\Program Files (x86)\Microchip\xc8\v2.10\pic\sources\c99\common\doprnt.c: 1352:      
      +                                 fputc((int)'%', fp);
  4987  0020E0  0E00               	movlw	0
  4988  0020E2  6F61               	movwf	(fputc@c+1)& (0+255),b
  4989  0020E4  0E25               	movlw	37
  4990  0020E6  6F60               	movwf	fputc@c& (0+255),b
  4991  0020E8  C09B  F062         	movff	vfpfcnvrt@fp,fputc@fp
  4992  0020EC  C09C  F063         	movff	vfpfcnvrt@fp+1,fputc@fp+1
  4993  0020F0  EC1C  F014         	call	_fputc	;wreg free
  4994  0020F4                     l3292:
  4995                           
  4996                           ;C:\Program Files (x86)\Microchip\xc8\v2.10\pic\sources\c99\common\doprnt.c: 1353:      
      +                                 return 1;
  4997  0020F4  0E00               	movlw	0
  4998  0020F6  0100               	movlb	0	; () banked
  4999  0020F8  6F9C               	movwf	(?_vfpfcnvrt+1)& (0+255),b
  5000  0020FA  0E01               	movlw	1
  5001  0020FC  6F9B               	movwf	?_vfpfcnvrt& (0+255),b
  5002  0020FE  EFAA  F010         	goto	l615
  5003  002102                     l3296:
  5004                           
  5005                           ; BSR set to: 0
  5006                           ;C:\Program Files (x86)\Microchip\xc8\v2.10\pic\sources\c99\common\doprnt.c: 1357:      
      +                             ++*fmt;
  5007  002102  C09D  FFD9         	movff	vfpfcnvrt@fmt,fsr2l
  5008  002106  C09E  FFDA         	movff	vfpfcnvrt@fmt+1,fsr2h
  5009  00210A  2ADE               	incf	postinc2,f,c
  5010  00210C  0E00               	movlw	0
  5011  00210E  22DD               	addwfc	postdec2,f,c
  5012  002110                     
  5013                           ; BSR set to: 0
  5014                           ;C:\Program Files (x86)\Microchip\xc8\v2.10\pic\sources\c99\common\doprnt.c: 1358:      
      +                             return 0;
  5015  002110  0E00               	movlw	0
  5016  002112  6F9C               	movwf	(?_vfpfcnvrt+1)& (0+255),b
  5017  002114  0E00               	movlw	0
  5018  002116  6F9B               	movwf	?_vfpfcnvrt& (0+255),b
  5019  002118  EFAA  F010         	goto	l615
  5020  00211C                     l3302:
  5021                           
  5022                           ;C:\Program Files (x86)\Microchip\xc8\v2.10\pic\sources\c99\common\doprnt.c: 1362:     f
      +                          putc((int)(*fmt)[0], fp);
  5023  00211C  C09D  FFD9         	movff	vfpfcnvrt@fmt,fsr2l
  5024  002120  C09E  FFDA         	movff	vfpfcnvrt@fmt+1,fsr2h
  5025  002124  CFDE FFF6          	movff	postinc2,tblptrl
  5026  002128  CFDD FFF7          	movff	postdec2,tblptrh
  5027  00212C                     	if	0	;tblptru may be non-zero
  5028  00212C                     	endif
  5029  00212C                     	if	0	;tblptru may be non-zero
  5030  00212C                     	endif
  5031  00212C  0008               	tblrd		*
  5032  00212E  50F5               	movf	tablat,w,c
  5033  002130  0100               	movlb	0	; () banked
  5034  002132  6F60               	movwf	fputc@c& (0+255),b
  5035  002134  6B61               	clrf	(fputc@c+1)& (0+255),b
  5036  002136  C09B  F062         	movff	vfpfcnvrt@fp,fputc@fp
  5037  00213A  C09C  F063         	movff	vfpfcnvrt@fp+1,fputc@fp+1
  5038  00213E  EC1C  F014         	call	_fputc	;wreg free
  5039  002142                     
  5040                           ;C:\Program Files (x86)\Microchip\xc8\v2.10\pic\sources\c99\common\doprnt.c: 1363:     +
      +                          +*fmt;
  5041  002142  C09D  FFD9         	movff	vfpfcnvrt@fmt,fsr2l
  5042  002146  C09E  FFDA         	movff	vfpfcnvrt@fmt+1,fsr2h
  5043  00214A  2ADE               	incf	postinc2,f,c
  5044  00214C  0E00               	movlw	0
  5045  00214E  22DD               	addwfc	postdec2,f,c
  5046  002150  EF7A  F010         	goto	l3292
  5047  002154                     l615:
  5048  002154  0012               	return		;funcret
  5049  002156                     __end_of_vfpfcnvrt:
  5050                           	opt callstack 0
  5051                           
  5052 ;; *************** function _utoa *****************
  5053 ;; Defined at:
  5054 ;;		line 593 in file "C:\Program Files (x86)\Microchip\xc8\v2.10\pic\sources\c99\common\doprnt.c"
  5055 ;; Parameters:    Size  Location     Type
  5056 ;;  fp              2   27[BANK0 ] PTR struct _IO_FILE
  5057 ;;		 -> sprintf@f(6), 
  5058 ;;  d               8   29[BANK0 ] unsigned long long 
  5059 ;; Auto vars:     Size  Location     Type
  5060 ;;  n               8   49[BANK0 ] unsigned long long 
  5061 ;;  i               2   57[BANK0 ] int 
  5062 ;;  w               2   47[BANK0 ] int 
  5063 ;;  p               2   45[BANK0 ] int 
  5064 ;; Return value:  Size  Location     Type
  5065 ;;                  2   27[BANK0 ] int 
  5066 ;; Registers used:
  5067 ;;		wreg, fsr1l, fsr1h, fsr2l, fsr2h, status,2, status,0, cstack
  5068 ;; Tracked objects:
  5069 ;;		On entry : 0/0
  5070 ;;		On exit  : 0/0
  5071 ;;		Unchanged: 0/0
  5072 ;; Data sizes:     COMRAM   BANK0   BANK1   BANK2   BANK3   BANK4   BANK5   BANK6   BANK7
  5073 ;;      Params:         0      10       0       0       0       0       0       0       0
  5074 ;;      Locals:         0      14       0       0       0       0       0       0       0
  5075 ;;      Temps:          0       8       0       0       0       0       0       0       0
  5076 ;;      Totals:         0      32       0       0       0       0       0       0       0
  5077 ;;Total ram usage:       32 bytes
  5078 ;; Hardware stack levels used:    1
  5079 ;; Hardware stack levels required when called:    7
  5080 ;; This function calls:
  5081 ;;		___lodiv
  5082 ;;		___lomod
  5083 ;;		_pad
  5084 ;; This function is called by:
  5085 ;;		_vfpfcnvrt
  5086 ;; This function uses a non-reentrant model
  5087 ;;
  5088                           
  5089                           	psect	text22
  5090  001C06                     __ptext22:
  5091                           	opt callstack 0
  5092  001C06                     _utoa:
  5093                           	opt callstack 19
  5094  001C06                     
  5095                           ;C:\Program Files (x86)\Microchip\xc8\v2.10\pic\sources\c99\common\doprnt.c: 593: static
      +                           int utoa(FILE *fp, unsigned long long d);C:\Program Files (x86)\Microchip\xc8\v2.10\pic
      +                          \sources\c99\common\doprnt.c: 594: {;C:\Program Files (x86)\Microchip\xc8\v2.10\pic\sour
      +                          ces\c99\common\doprnt.c: 595:     int i, p, w;;C:\Program Files (x86)\Microchip\xc8\v2.1
      +                          0\pic\sources\c99\common\doprnt.c: 596:     unsigned long long n;;C:\Program Files (x86)
      +                          \Microchip\xc8\v2.10\pic\sources\c99\common\doprnt.c: 599:     if (!(prec < 0)) {
  5096  001C06  0100               	movlb	0	; () banked
  5097  001C08  BFF8               	btfsc	(_prec+1)& (0+255),7,b
  5098  001C0A  EF09  F00E         	goto	u2671
  5099  001C0E  EF0B  F00E         	goto	u2670
  5100  001C12                     u2671:
  5101  001C12  EF0C  F00E         	goto	l3238
  5102  001C16                     u2670:
  5103  001C16                     
  5104                           ; BSR set to: 0
  5105                           ;C:\Program Files (x86)\Microchip\xc8\v2.10\pic\sources\c99\common\doprnt.c: 600:       
      +                            flags &= ~(1 << 1);
  5106  001C16  93F9               	bcf	_flags& (0+255),1,b
  5107  001C18                     l3238:
  5108                           
  5109                           ; BSR set to: 0
  5110                           ;C:\Program Files (x86)\Microchip\xc8\v2.10\pic\sources\c99\common\doprnt.c: 602:     p 
      +                          = (0 < prec) ? prec : 1;
  5111  001C18  BFF8               	btfsc	(_prec+1)& (0+255),7,b
  5112  001C1A  EF19  F00E         	goto	u2680
  5113  001C1E  51F8               	movf	(_prec+1)& (0+255),w,b
  5114  001C20  E106               	bnz	u2681
  5115  001C22  05F7               	decf	_prec& (0+255),w,b
  5116  001C24  B0D8               	btfsc	status,0,c
  5117  001C26  EF17  F00E         	goto	u2681
  5118  001C2A  EF19  F00E         	goto	u2680
  5119  001C2E                     u2681:
  5120  001C2E  EF1F  F00E         	goto	l600
  5121  001C32                     u2680:
  5122  001C32                     
  5123                           ; BSR set to: 0
  5124  001C32  0E00               	movlw	0
  5125  001C34  6F8E               	movwf	(utoa@p+1)& (0+255),b
  5126  001C36  0E01               	movlw	1
  5127  001C38  6F8D               	movwf	utoa@p& (0+255),b
  5128  001C3A  EF23  F00E         	goto	l602
  5129  001C3E                     l600:
  5130                           
  5131                           ; BSR set to: 0
  5132  001C3E  C0F7  F08D         	movff	_prec,utoa@p
  5133  001C42  C0F8  F08E         	movff	_prec+1,utoa@p+1
  5134  001C46                     l602:
  5135                           
  5136                           ; BSR set to: 0
  5137                           ;C:\Program Files (x86)\Microchip\xc8\v2.10\pic\sources\c99\common\doprnt.c: 603:     w 
      +                          = width;
  5138  001C46  C04E  F08F         	movff	_width,utoa@w
  5139  001C4A  C04F  F090         	movff	_width+1,utoa@w+1
  5140                           
  5141                           ;C:\Program Files (x86)\Microchip\xc8\v2.10\pic\sources\c99\common\doprnt.c: 606:     n 
      +                          = d;
  5142  001C4E  C07D  F091         	movff	utoa@d,utoa@n
  5143  001C52  C07E  F092         	movff	utoa@d+1,utoa@n+1
  5144  001C56  C07F  F093         	movff	utoa@d+2,utoa@n+2
  5145  001C5A  C080  F094         	movff	utoa@d+3,utoa@n+3
  5146  001C5E  C081  F095         	movff	utoa@d+4,utoa@n+4
  5147  001C62  C082  F096         	movff	utoa@d+5,utoa@n+5
  5148  001C66  C083  F097         	movff	utoa@d+6,utoa@n+6
  5149  001C6A  C084  F098         	movff	utoa@d+7,utoa@n+7
  5150  001C6E                     
  5151                           ; BSR set to: 0
  5152                           ;C:\Program Files (x86)\Microchip\xc8\v2.10\pic\sources\c99\common\doprnt.c: 607:     i 
      +                          = sizeof(dbuf) - 1;
  5153  001C6E  0E00               	movlw	0
  5154  001C70  6F9A               	movwf	(utoa@i+1)& (0+255),b
  5155  001C72  0E1F               	movlw	31
  5156  001C74  6F99               	movwf	utoa@i& (0+255),b
  5157  001C76                     
  5158                           ; BSR set to: 0
  5159                           ;C:\Program Files (x86)\Microchip\xc8\v2.10\pic\sources\c99\common\doprnt.c: 608:     db
      +                          uf[i] = '\0';
  5160  001C76  0E00               	movlw	0
  5161  001C78  0101               	movlb	1	; () banked
  5162  001C7A  6F5B               	movwf	(_dbuf+31)& (0+255),b
  5163                           
  5164                           ;C:\Program Files (x86)\Microchip\xc8\v2.10\pic\sources\c99\common\doprnt.c: 609:     wh
      +                          ile (i && (n || (0 < p) || ((0 < w) && (flags & (1 << 1))))) {
  5165  001C7C  EFB7  F00E         	goto	l3256
  5166  001C80                     l3246:
  5167                           
  5168                           ; BSR set to: 0
  5169                           ;C:\Program Files (x86)\Microchip\xc8\v2.10\pic\sources\c99\common\doprnt.c: 610:       
      +                            --i;
  5170  001C80  0799               	decf	utoa@i& (0+255),f,b
  5171  001C82  A0D8               	btfss	status,0,c
  5172  001C84  079A               	decf	(utoa@i+1)& (0+255),f,b
  5173  001C86                     
  5174                           ; BSR set to: 0
  5175                           ;C:\Program Files (x86)\Microchip\xc8\v2.10\pic\sources\c99\common\doprnt.c: 611:       
      +                            dbuf[i] = '0' + (n % 10);
  5176  001C86  0E3C               	movlw	low _dbuf
  5177  001C88  2599               	addwf	utoa@i& (0+255),w,b
  5178  001C8A  6ED9               	movwf	fsr2l,c
  5179  001C8C  0E01               	movlw	high _dbuf
  5180  001C8E  219A               	addwfc	(utoa@i+1)& (0+255),w,b
  5181  001C90  6EDA               	movwf	fsr2h,c
  5182  001C92  C091  F060         	movff	utoa@n,___lomod@dividend
  5183  001C96  C092  F061         	movff	utoa@n+1,___lomod@dividend+1
  5184  001C9A  C093  F062         	movff	utoa@n+2,___lomod@dividend+2
  5185  001C9E  C094  F063         	movff	utoa@n+3,___lomod@dividend+3
  5186  001CA2  C095  F064         	movff	utoa@n+4,___lomod@dividend+4
  5187  001CA6  C096  F065         	movff	utoa@n+5,___lomod@dividend+5
  5188  001CAA  C097  F066         	movff	utoa@n+6,___lomod@dividend+6
  5189  001CAE  C098  F067         	movff	utoa@n+7,___lomod@dividend+7
  5190  001CB2  0E0A               	movlw	10
  5191  001CB4  6F68               	movwf	___lomod@divisor& (0+255),b
  5192  001CB6  0E00               	movlw	0
  5193  001CB8  6F69               	movwf	(___lomod@divisor+1)& (0+255),b
  5194  001CBA  0E00               	movlw	0
  5195  001CBC  6F6A               	movwf	(___lomod@divisor+2)& (0+255),b
  5196  001CBE  0E00               	movlw	0
  5197  001CC0  6F6B               	movwf	(___lomod@divisor+3)& (0+255),b
  5198  001CC2  0E00               	movlw	0
  5199  001CC4  6F6C               	movwf	(___lomod@divisor+4)& (0+255),b
  5200  001CC6  0E00               	movlw	0
  5201  001CC8  6F6D               	movwf	(___lomod@divisor+5)& (0+255),b
  5202  001CCA  0E00               	movlw	0
  5203  001CCC  6F6E               	movwf	(___lomod@divisor+6)& (0+255),b
  5204  001CCE  0E00               	movlw	0
  5205  001CD0  6F6F               	movwf	(___lomod@divisor+7)& (0+255),b
  5206  001CD2  ECE3  F012         	call	___lomod	;wreg free
  5207  001CD6  C060  F085         	movff	?___lomod,??_utoa
  5208  001CDA  C061  F086         	movff	?___lomod+1,??_utoa+1
  5209  001CDE  C062  F087         	movff	?___lomod+2,??_utoa+2
  5210  001CE2  C063  F088         	movff	?___lomod+3,??_utoa+3
  5211  001CE6  C064  F089         	movff	?___lomod+4,??_utoa+4
  5212  001CEA  C065  F08A         	movff	?___lomod+5,??_utoa+5
  5213  001CEE  C066  F08B         	movff	?___lomod+6,??_utoa+6
  5214  001CF2  C067  F08C         	movff	?___lomod+7,??_utoa+7
  5215  001CF6  0100               	movlb	0	; () banked
  5216  001CF8  5185               	movf	??_utoa& (0+255),w,b
  5217  001CFA  0F30               	addlw	48
  5218  001CFC  6EDF               	movwf	indf2,c
  5219  001CFE                     
  5220                           ; BSR set to: 0
  5221                           ;C:\Program Files (x86)\Microchip\xc8\v2.10\pic\sources\c99\common\doprnt.c: 612:       
      +                            --p;
  5222  001CFE  078D               	decf	utoa@p& (0+255),f,b
  5223  001D00  A0D8               	btfss	status,0,c
  5224  001D02  078E               	decf	(utoa@p+1)& (0+255),f,b
  5225  001D04                     
  5226                           ; BSR set to: 0
  5227                           ;C:\Program Files (x86)\Microchip\xc8\v2.10\pic\sources\c99\common\doprnt.c: 613:       
      +                            --w;
  5228  001D04  078F               	decf	utoa@w& (0+255),f,b
  5229  001D06  A0D8               	btfss	status,0,c
  5230  001D08  0790               	decf	(utoa@w+1)& (0+255),f,b
  5231  001D0A                     
  5232                           ; BSR set to: 0
  5233                           ;C:\Program Files (x86)\Microchip\xc8\v2.10\pic\sources\c99\common\doprnt.c: 614:       
      +                            n = n / 10;
  5234  001D0A  C091  F060         	movff	utoa@n,___lodiv@dividend
  5235  001D0E  C092  F061         	movff	utoa@n+1,___lodiv@dividend+1
  5236  001D12  C093  F062         	movff	utoa@n+2,___lodiv@dividend+2
  5237  001D16  C094  F063         	movff	utoa@n+3,___lodiv@dividend+3
  5238  001D1A  C095  F064         	movff	utoa@n+4,___lodiv@dividend+4
  5239  001D1E  C096  F065         	movff	utoa@n+5,___lodiv@dividend+5
  5240  001D22  C097  F066         	movff	utoa@n+6,___lodiv@dividend+6
  5241  001D26  C098  F067         	movff	utoa@n+7,___lodiv@dividend+7
  5242  001D2A  0E0A               	movlw	10
  5243  001D2C  6F68               	movwf	___lodiv@divisor& (0+255),b
  5244  001D2E  0E00               	movlw	0
  5245  001D30  6F69               	movwf	(___lodiv@divisor+1)& (0+255),b
  5246  001D32  0E00               	movlw	0
  5247  001D34  6F6A               	movwf	(___lodiv@divisor+2)& (0+255),b
  5248  001D36  0E00               	movlw	0
  5249  001D38  6F6B               	movwf	(___lodiv@divisor+3)& (0+255),b
  5250  001D3A  0E00               	movlw	0
  5251  001D3C  6F6C               	movwf	(___lodiv@divisor+4)& (0+255),b
  5252  001D3E  0E00               	movlw	0
  5253  001D40  6F6D               	movwf	(___lodiv@divisor+5)& (0+255),b
  5254  001D42  0E00               	movlw	0
  5255  001D44  6F6E               	movwf	(___lodiv@divisor+6)& (0+255),b
  5256  001D46  0E00               	movlw	0
  5257  001D48  6F6F               	movwf	(___lodiv@divisor+7)& (0+255),b
  5258  001D4A  EC6A  F012         	call	___lodiv	;wreg free
  5259  001D4E  C060  F091         	movff	?___lodiv,utoa@n
  5260  001D52  C061  F092         	movff	?___lodiv+1,utoa@n+1
  5261  001D56  C062  F093         	movff	?___lodiv+2,utoa@n+2
  5262  001D5A  C063  F094         	movff	?___lodiv+3,utoa@n+3
  5263  001D5E  C064  F095         	movff	?___lodiv+4,utoa@n+4
  5264  001D62  C065  F096         	movff	?___lodiv+5,utoa@n+5
  5265  001D66  C066  F097         	movff	?___lodiv+6,utoa@n+6
  5266  001D6A  C067  F098         	movff	?___lodiv+7,utoa@n+7
  5267  001D6E                     l3256:
  5268                           
  5269                           ;C:\Program Files (x86)\Microchip\xc8\v2.10\pic\sources\c99\common\doprnt.c: 609:     wh
      +                          ile (i && (n || (0 < p) || ((0 < w) && (flags & (1 << 1))))) {
  5270  001D6E  0100               	movlb	0	; () banked
  5271  001D70  5199               	movf	utoa@i& (0+255),w,b
  5272  001D72  119A               	iorwf	(utoa@i+1)& (0+255),w,b
  5273  001D74  B4D8               	btfsc	status,2,c
  5274  001D76  EFBF  F00E         	goto	u2691
  5275  001D7A  EFC1  F00E         	goto	u2690
  5276  001D7E                     u2691:
  5277  001D7E  EFF1  F00E         	goto	l3266
  5278  001D82                     u2690:
  5279  001D82                     
  5280                           ; BSR set to: 0
  5281  001D82  5191               	movf	utoa@n& (0+255),w,b
  5282  001D84  1192               	iorwf	(utoa@n+1)& (0+255),w,b
  5283  001D86  1193               	iorwf	(utoa@n+2)& (0+255),w,b
  5284  001D88  1194               	iorwf	(utoa@n+3)& (0+255),w,b
  5285  001D8A  1195               	iorwf	(utoa@n+4)& (0+255),w,b
  5286  001D8C  1196               	iorwf	(utoa@n+5)& (0+255),w,b
  5287  001D8E  1197               	iorwf	(utoa@n+6)& (0+255),w,b
  5288  001D90  1198               	iorwf	(utoa@n+7)& (0+255),w,b
  5289  001D92  A4D8               	btfss	status,2,c
  5290  001D94  EFCE  F00E         	goto	u2701
  5291  001D98  EFD0  F00E         	goto	u2700
  5292  001D9C                     u2701:
  5293  001D9C  EF40  F00E         	goto	l3246
  5294  001DA0                     u2700:
  5295  001DA0                     
  5296                           ; BSR set to: 0
  5297  001DA0  BF8E               	btfsc	(utoa@p+1)& (0+255),7,b
  5298  001DA2  EFDD  F00E         	goto	u2710
  5299  001DA6  518E               	movf	(utoa@p+1)& (0+255),w,b
  5300  001DA8  E106               	bnz	u2711
  5301  001DAA  058D               	decf	utoa@p& (0+255),w,b
  5302  001DAC  B0D8               	btfsc	status,0,c
  5303  001DAE  EFDB  F00E         	goto	u2711
  5304  001DB2  EFDD  F00E         	goto	u2710
  5305  001DB6                     u2711:
  5306  001DB6  EF40  F00E         	goto	l3246
  5307  001DBA                     u2710:
  5308  001DBA                     
  5309                           ; BSR set to: 0
  5310  001DBA  BF90               	btfsc	(utoa@w+1)& (0+255),7,b
  5311  001DBC  EFE8  F00E         	goto	u2721
  5312  001DC0  5190               	movf	(utoa@w+1)& (0+255),w,b
  5313  001DC2  E108               	bnz	u2720
  5314  001DC4  058F               	decf	utoa@w& (0+255),w,b
  5315  001DC6  A0D8               	btfss	status,0,c
  5316  001DC8  EFE8  F00E         	goto	u2721
  5317  001DCC  EFEA  F00E         	goto	u2720
  5318  001DD0                     u2721:
  5319  001DD0  EFF1  F00E         	goto	l3266
  5320  001DD4                     u2720:
  5321  001DD4                     
  5322                           ; BSR set to: 0
  5323  001DD4  B3F9               	btfsc	_flags& (0+255),1,b
  5324  001DD6  EFEF  F00E         	goto	u2731
  5325  001DDA  EFF1  F00E         	goto	u2730
  5326  001DDE                     u2731:
  5327  001DDE  EF40  F00E         	goto	l3246
  5328  001DE2                     u2730:
  5329  001DE2                     l3266:
  5330                           
  5331                           ; BSR set to: 0
  5332                           ;C:\Program Files (x86)\Microchip\xc8\v2.10\pic\sources\c99\common\doprnt.c: 618:     re
      +                          turn pad(fp, &dbuf[i], w);
  5333  001DE2  C07B  F070         	movff	utoa@fp,pad@fp
  5334  001DE6  C07C  F071         	movff	utoa@fp+1,pad@fp+1
  5335  001DEA  0E3C               	movlw	low _dbuf
  5336  001DEC  2599               	addwf	utoa@i& (0+255),w,b
  5337  001DEE  6F72               	movwf	pad@buf& (0+255),b
  5338  001DF0  0E01               	movlw	high _dbuf
  5339  001DF2  219A               	addwfc	(utoa@i+1)& (0+255),w,b
  5340  001DF4  6F73               	movwf	(pad@buf+1)& (0+255),b
  5341  001DF6  C08F  F074         	movff	utoa@w,pad@p
  5342  001DFA  C090  F075         	movff	utoa@w+1,pad@p+1
  5343  001DFE  EC82  F014         	call	_pad	;wreg free
  5344  001E02  C070  F07B         	movff	?_pad,?_utoa
  5345  001E06  C071  F07C         	movff	?_pad+1,?_utoa+1
  5346  001E0A  0012               	return		;funcret
  5347  001E0C                     __end_of_utoa:
  5348                           	opt callstack 0
  5349                           
  5350 ;; *************** function _pad *****************
  5351 ;; Defined at:
  5352 ;;		line 72 in file "C:\Program Files (x86)\Microchip\xc8\v2.10\pic\sources\c99\common\doprnt.c"
  5353 ;; Parameters:    Size  Location     Type
  5354 ;;  fp              2   16[BANK0 ] PTR struct _IO_FILE
  5355 ;;		 -> sprintf@f(6), 
  5356 ;;  buf             2   18[BANK0 ] PTR unsigned char 
  5357 ;;		 -> dbuf(32), 
  5358 ;;  p               2   20[BANK0 ] int 
  5359 ;; Auto vars:     Size  Location     Type
  5360 ;;  w               2   25[BANK0 ] int 
  5361 ;;  i               2   23[BANK0 ] int 
  5362 ;; Return value:  Size  Location     Type
  5363 ;;                  2   16[BANK0 ] int 
  5364 ;; Registers used:
  5365 ;;		wreg, fsr1l, fsr1h, fsr2l, fsr2h, status,2, status,0, cstack
  5366 ;; Tracked objects:
  5367 ;;		On entry : 0/0
  5368 ;;		On exit  : 0/0
  5369 ;;		Unchanged: 0/0
  5370 ;; Data sizes:     COMRAM   BANK0   BANK1   BANK2   BANK3   BANK4   BANK5   BANK6   BANK7
  5371 ;;      Params:         0       6       0       0       0       0       0       0       0
  5372 ;;      Locals:         0       4       0       0       0       0       0       0       0
  5373 ;;      Temps:          0       1       0       0       0       0       0       0       0
  5374 ;;      Totals:         0      11       0       0       0       0       0       0       0
  5375 ;;Total ram usage:       11 bytes
  5376 ;; Hardware stack levels used:    1
  5377 ;; Hardware stack levels required when called:    6
  5378 ;; This function calls:
  5379 ;;		_fputc
  5380 ;;		_fputs
  5381 ;;		_strlen
  5382 ;; This function is called by:
  5383 ;;		_utoa
  5384 ;; This function uses a non-reentrant model
  5385 ;;
  5386                           
  5387                           	psect	text23
  5388  002904                     __ptext23:
  5389                           	opt callstack 0
  5390  002904                     _pad:
  5391                           	opt callstack 19
  5392  002904                     
  5393                           ;C:\Program Files (x86)\Microchip\xc8\v2.10\pic\sources\c99\common\doprnt.c: 72: static 
      +                          int pad(FILE *fp, char *buf, int p);C:\Program Files (x86)\Microchip\xc8\v2.10\pic\sourc
      +                          es\c99\common\doprnt.c: 73: {;C:\Program Files (x86)\Microchip\xc8\v2.10\pic\sources\c99
      +                          \common\doprnt.c: 74:     int i, w;;C:\Program Files (x86)\Microchip\xc8\v2.10\pic\sourc
      +                          es\c99\common\doprnt.c: 77:     if (flags & (1 << 0)) {
  5394  002904  0100               	movlb	0	; () banked
  5395  002906  A1F9               	btfss	_flags& (0+255),0,b
  5396  002908  EF88  F014         	goto	u2561
  5397  00290C  EF8A  F014         	goto	u2560
  5398  002910                     u2561:
  5399  002910  EF94  F014         	goto	l3178
  5400  002914                     u2560:
  5401  002914                     
  5402                           ; BSR set to: 0
  5403                           ;C:\Program Files (x86)\Microchip\xc8\v2.10\pic\sources\c99\common\doprnt.c: 78:        
      +                           fputs((const char *)buf, fp);
  5404  002914  C072  F069         	movff	pad@buf,fputs@s
  5405  002918  C073  F06A         	movff	pad@buf+1,fputs@s+1
  5406  00291C  C070  F06B         	movff	pad@fp,fputs@fp
  5407  002920  C071  F06C         	movff	pad@fp+1,fputs@fp+1
  5408  002924  EC61  F018         	call	_fputs	;wreg free
  5409  002928                     l3178:
  5410                           
  5411                           ;C:\Program Files (x86)\Microchip\xc8\v2.10\pic\sources\c99\common\doprnt.c: 82:     w =
      +                           (p < 0) ? 0 : p;
  5412  002928  0100               	movlb	0	; () banked
  5413  00292A  BF75               	btfsc	(pad@p+1)& (0+255),7,b
  5414  00292C  EF9A  F014         	goto	u2571
  5415  002930  EF9C  F014         	goto	u2570
  5416  002934                     u2571:
  5417  002934  EFA2  F014         	goto	l3182
  5418  002938                     u2570:
  5419  002938                     
  5420                           ; BSR set to: 0
  5421  002938  C074  F079         	movff	pad@p,pad@w
  5422  00293C  C075  F07A         	movff	pad@p+1,pad@w+1
  5423  002940  EFA6  F014         	goto	l590
  5424  002944                     l3182:
  5425                           
  5426                           ; BSR set to: 0
  5427  002944  0E00               	movlw	0
  5428  002946  6F7A               	movwf	(pad@w+1)& (0+255),b
  5429  002948  0E00               	movlw	0
  5430  00294A  6F79               	movwf	pad@w& (0+255),b
  5431  00294C                     l590:
  5432                           
  5433                           ; BSR set to: 0
  5434                           ;C:\Program Files (x86)\Microchip\xc8\v2.10\pic\sources\c99\common\doprnt.c: 83:     i =
      +                           0;
  5435  00294C  0E00               	movlw	0
  5436  00294E  6F78               	movwf	(pad@i+1)& (0+255),b
  5437  002950  0E00               	movlw	0
  5438  002952  6F77               	movwf	pad@i& (0+255),b
  5439                           
  5440                           ;C:\Program Files (x86)\Microchip\xc8\v2.10\pic\sources\c99\common\doprnt.c: 84:     whi
      +                          le (i < w) {
  5441  002954  EFB9  F014         	goto	l3188
  5442  002958                     l3184:
  5443                           
  5444                           ; BSR set to: 0
  5445                           ;C:\Program Files (x86)\Microchip\xc8\v2.10\pic\sources\c99\common\doprnt.c: 85:        
      +                           fputc(' ', fp);
  5446  002958  0E00               	movlw	0
  5447  00295A  6F61               	movwf	(fputc@c+1)& (0+255),b
  5448  00295C  0E20               	movlw	32
  5449  00295E  6F60               	movwf	fputc@c& (0+255),b
  5450  002960  C070  F062         	movff	pad@fp,fputc@fp
  5451  002964  C071  F063         	movff	pad@fp+1,fputc@fp+1
  5452  002968  EC1C  F014         	call	_fputc	;wreg free
  5453  00296C                     
  5454                           ;C:\Program Files (x86)\Microchip\xc8\v2.10\pic\sources\c99\common\doprnt.c: 86:        
      +                           ++i;
  5455  00296C  0100               	movlb	0	; () banked
  5456  00296E  4B77               	infsnz	pad@i& (0+255),f,b
  5457  002970  2B78               	incf	(pad@i+1)& (0+255),f,b
  5458  002972                     l3188:
  5459                           
  5460                           ; BSR set to: 0
  5461                           ;C:\Program Files (x86)\Microchip\xc8\v2.10\pic\sources\c99\common\doprnt.c: 84:     whi
      +                          le (i < w) {
  5462  002972  5179               	movf	pad@w& (0+255),w,b
  5463  002974  5D77               	subwf	pad@i& (0+255),w,b
  5464  002976  5178               	movf	(pad@i+1)& (0+255),w,b
  5465  002978  0A80               	xorlw	128
  5466  00297A  6F76               	movwf	??_pad& (0+255),b
  5467  00297C  517A               	movf	(pad@w+1)& (0+255),w,b
  5468  00297E  0A80               	xorlw	128
  5469  002980  5976               	subwfb	??_pad& (0+255),w,b
  5470  002982  A0D8               	btfss	status,0,c
  5471  002984  EFC6  F014         	goto	u2581
  5472  002988  EFC8  F014         	goto	u2580
  5473  00298C                     u2581:
  5474  00298C  EFAC  F014         	goto	l3184
  5475  002990                     u2580:
  5476  002990                     
  5477                           ; BSR set to: 0
  5478                           ;C:\Program Files (x86)\Microchip\xc8\v2.10\pic\sources\c99\common\doprnt.c: 90:     if 
      +                          (!(flags & (1 << 0))) {
  5479  002990  B1F9               	btfsc	_flags& (0+255),0,b
  5480  002992  EFCD  F014         	goto	u2591
  5481  002996  EFCF  F014         	goto	u2590
  5482  00299A                     u2591:
  5483  00299A  EFD9  F014         	goto	l3192
  5484  00299E                     u2590:
  5485  00299E                     
  5486                           ; BSR set to: 0
  5487                           ;C:\Program Files (x86)\Microchip\xc8\v2.10\pic\sources\c99\common\doprnt.c: 91:        
      +                           fputs((const char *)buf, fp);
  5488  00299E  C072  F069         	movff	pad@buf,fputs@s
  5489  0029A2  C073  F06A         	movff	pad@buf+1,fputs@s+1
  5490  0029A6  C070  F06B         	movff	pad@fp,fputs@fp
  5491  0029AA  C071  F06C         	movff	pad@fp+1,fputs@fp+1
  5492  0029AE  EC61  F018         	call	_fputs	;wreg free
  5493  0029B2                     l3192:
  5494                           
  5495                           ;C:\Program Files (x86)\Microchip\xc8\v2.10\pic\sources\c99\common\doprnt.c: 94:     ret
      +                          urn strlen(buf) + w;
  5496  0029B2  C072  F060         	movff	pad@buf,strlen@s
  5497  0029B6  C073  F061         	movff	pad@buf+1,strlen@s+1
  5498  0029BA  EC21  F019         	call	_strlen	;wreg free
  5499  0029BE  0100               	movlb	0	; () banked
  5500  0029C0  5179               	movf	pad@w& (0+255),w,b
  5501  0029C2  2560               	addwf	?_strlen& (0+255),w,b
  5502  0029C4  6F70               	movwf	?_pad& (0+255),b
  5503  0029C6  517A               	movf	(pad@w+1)& (0+255),w,b
  5504  0029C8  2161               	addwfc	(?_strlen+1)& (0+255),w,b
  5505  0029CA  6F71               	movwf	(?_pad+1)& (0+255),b
  5506  0029CC                     
  5507                           ; BSR set to: 0
  5508  0029CC  0012               	return		;funcret
  5509  0029CE                     __end_of_pad:
  5510                           	opt callstack 0
  5511                           
  5512 ;; *************** function _strlen *****************
  5513 ;; Defined at:
  5514 ;;		line 5 in file "C:\Program Files (x86)\Microchip\xc8\v2.10\pic\sources\c99\common\strlen.c"
  5515 ;; Parameters:    Size  Location     Type
  5516 ;;  s               2    0[BANK0 ] PTR const unsigned char 
  5517 ;;		 -> dbuf(32), 
  5518 ;; Auto vars:     Size  Location     Type
  5519 ;;  a               2    2[BANK0 ] PTR const unsigned char 
  5520 ;;		 -> dbuf(32), 
  5521 ;; Return value:  Size  Location     Type
  5522 ;;                  2    0[BANK0 ] unsigned int 
  5523 ;; Registers used:
  5524 ;;		wreg, fsr2l, fsr2h, status,2, status,0
  5525 ;; Tracked objects:
  5526 ;;		On entry : 0/0
  5527 ;;		On exit  : 0/0
  5528 ;;		Unchanged: 0/0
  5529 ;; Data sizes:     COMRAM   BANK0   BANK1   BANK2   BANK3   BANK4   BANK5   BANK6   BANK7
  5530 ;;      Params:         0       2       0       0       0       0       0       0       0
  5531 ;;      Locals:         0       2       0       0       0       0       0       0       0
  5532 ;;      Temps:          0       0       0       0       0       0       0       0       0
  5533 ;;      Totals:         0       4       0       0       0       0       0       0       0
  5534 ;;Total ram usage:        4 bytes
  5535 ;; Hardware stack levels used:    1
  5536 ;; Hardware stack levels required when called:    3
  5537 ;; This function calls:
  5538 ;;		Nothing
  5539 ;; This function is called by:
  5540 ;;		_pad
  5541 ;; This function uses a non-reentrant model
  5542 ;;
  5543                           
  5544                           	psect	text24
  5545  003242                     __ptext24:
  5546                           	opt callstack 0
  5547  003242                     _strlen:
  5548                           	opt callstack 21
  5549  003242  C060  F062         	movff	strlen@s,strlen@a
  5550  003246  C061  F063         	movff	strlen@s+1,strlen@a+1
  5551  00324A  EF2A  F019         	goto	l3168
  5552  00324E                     l3166:
  5553  00324E  0100               	movlb	0	; () banked
  5554  003250  4B60               	infsnz	strlen@s& (0+255),f,b
  5555  003252  2B61               	incf	(strlen@s+1)& (0+255),f,b
  5556  003254                     l3168:
  5557  003254  C060  FFD9         	movff	strlen@s,fsr2l
  5558  003258  C061  FFDA         	movff	strlen@s+1,fsr2h
  5559  00325C  50DF               	movf	indf2,w,c
  5560  00325E  A4D8               	btfss	status,2,c
  5561  003260  EF34  F019         	goto	u2551
  5562  003264  EF36  F019         	goto	u2550
  5563  003268                     u2551:
  5564  003268  EF27  F019         	goto	l3166
  5565  00326C                     u2550:
  5566  00326C  0100               	movlb	0	; () banked
  5567  00326E  5162               	movf	strlen@a& (0+255),w,b
  5568  003270  5D60               	subwf	strlen@s& (0+255),w,b
  5569  003272  6F60               	movwf	?_strlen& (0+255),b
  5570  003274  5163               	movf	(strlen@a+1)& (0+255),w,b
  5571  003276  5961               	subwfb	(strlen@s+1)& (0+255),w,b
  5572  003278  6F61               	movwf	(?_strlen+1)& (0+255),b
  5573  00327A                     
  5574                           ; BSR set to: 0
  5575  00327A  0012               	return		;funcret
  5576  00327C                     __end_of_strlen:
  5577                           	opt callstack 0
  5578                           
  5579 ;; *************** function _fputs *****************
  5580 ;; Defined at:
  5581 ;;		line 8 in file "C:\Program Files (x86)\Microchip\xc8\v2.10\pic\sources\c99\common\nf_fputs.c"
  5582 ;; Parameters:    Size  Location     Type
  5583 ;;  s               2    9[BANK0 ] PTR const unsigned char 
  5584 ;;		 -> dbuf(32), 
  5585 ;;  fp              2   11[BANK0 ] PTR struct _IO_FILE
  5586 ;;		 -> sprintf@f(6), 
  5587 ;; Auto vars:     Size  Location     Type
  5588 ;;  i               2   14[BANK0 ] int 
  5589 ;;  c               1   13[BANK0 ] unsigned char 
  5590 ;; Return value:  Size  Location     Type
  5591 ;;                  2    9[BANK0 ] int 
  5592 ;; Registers used:
  5593 ;;		wreg, fsr1l, fsr1h, fsr2l, fsr2h, status,2, status,0, cstack
  5594 ;; Tracked objects:
  5595 ;;		On entry : 0/0
  5596 ;;		On exit  : 0/0
  5597 ;;		Unchanged: 0/0
  5598 ;; Data sizes:     COMRAM   BANK0   BANK1   BANK2   BANK3   BANK4   BANK5   BANK6   BANK7
  5599 ;;      Params:         0       4       0       0       0       0       0       0       0
  5600 ;;      Locals:         0       3       0       0       0       0       0       0       0
  5601 ;;      Temps:          0       0       0       0       0       0       0       0       0
  5602 ;;      Totals:         0       7       0       0       0       0       0       0       0
  5603 ;;Total ram usage:        7 bytes
  5604 ;; Hardware stack levels used:    1
  5605 ;; Hardware stack levels required when called:    5
  5606 ;; This function calls:
  5607 ;;		_fputc
  5608 ;; This function is called by:
  5609 ;;		_pad
  5610 ;; This function uses a non-reentrant model
  5611 ;;
  5612                           
  5613                           	psect	text25
  5614  0030C2                     __ptext25:
  5615                           	opt callstack 0
  5616  0030C2                     _fputs:
  5617                           	opt callstack 19
  5618  0030C2  0E00               	movlw	0
  5619  0030C4  0100               	movlb	0	; () banked
  5620  0030C6  6F6F               	movwf	(fputs@i+1)& (0+255),b
  5621  0030C8  0E00               	movlw	0
  5622  0030CA  6F6E               	movwf	fputs@i& (0+255),b
  5623  0030CC  EF74  F018         	goto	l3162
  5624  0030D0                     l3158:
  5625                           
  5626                           ; BSR set to: 0
  5627  0030D0  C06D  F060         	movff	fputs@c,fputc@c
  5628  0030D4  6B61               	clrf	(fputc@c+1)& (0+255),b
  5629  0030D6  C06B  F062         	movff	fputs@fp,fputc@fp
  5630  0030DA  C06C  F063         	movff	fputs@fp+1,fputc@fp+1
  5631  0030DE  EC1C  F014         	call	_fputc	;wreg free
  5632  0030E2  0100               	movlb	0	; () banked
  5633  0030E4  4B6E               	infsnz	fputs@i& (0+255),f,b
  5634  0030E6  2B6F               	incf	(fputs@i+1)& (0+255),f,b
  5635  0030E8                     l3162:
  5636                           
  5637                           ; BSR set to: 0
  5638  0030E8  516E               	movf	fputs@i& (0+255),w,b
  5639  0030EA  2569               	addwf	fputs@s& (0+255),w,b
  5640  0030EC  6ED9               	movwf	fsr2l,c
  5641  0030EE  516F               	movf	(fputs@i+1)& (0+255),w,b
  5642  0030F0  216A               	addwfc	(fputs@s+1)& (0+255),w,b
  5643  0030F2  6EDA               	movwf	fsr2h,c
  5644  0030F4  50DF               	movf	indf2,w,c
  5645  0030F6  6F6D               	movwf	fputs@c& (0+255),b
  5646  0030F8  516D               	movf	fputs@c& (0+255),w,b
  5647  0030FA  A4D8               	btfss	status,2,c
  5648  0030FC  EF82  F018         	goto	u2541
  5649  003100  EF84  F018         	goto	u2540
  5650  003104                     u2541:
  5651  003104  EF68  F018         	goto	l3158
  5652  003108                     u2540:
  5653  003108                     
  5654                           ; BSR set to: 0
  5655  003108  0012               	return		;funcret
  5656  00310A                     __end_of_fputs:
  5657                           	opt callstack 0
  5658                           
  5659 ;; *************** function _fputc *****************
  5660 ;; Defined at:
  5661 ;;		line 8 in file "C:\Program Files (x86)\Microchip\xc8\v2.10\pic\sources\c99\common\nf_fputc.c"
  5662 ;; Parameters:    Size  Location     Type
  5663 ;;  c               2    0[BANK0 ] int 
  5664 ;;  fp              2    2[BANK0 ] PTR struct _IO_FILE
  5665 ;;		 -> sprintf@f(6), 
  5666 ;; Auto vars:     Size  Location     Type
  5667 ;;		None
  5668 ;; Return value:  Size  Location     Type
  5669 ;;                  2    0[BANK0 ] int 
  5670 ;; Registers used:
  5671 ;;		wreg, fsr1l, fsr1h, fsr2l, fsr2h, status,2, status,0, cstack
  5672 ;; Tracked objects:
  5673 ;;		On entry : 0/0
  5674 ;;		On exit  : 0/0
  5675 ;;		Unchanged: 0/0
  5676 ;; Data sizes:     COMRAM   BANK0   BANK1   BANK2   BANK3   BANK4   BANK5   BANK6   BANK7
  5677 ;;      Params:         0       4       0       0       0       0       0       0       0
  5678 ;;      Locals:         0       0       0       0       0       0       0       0       0
  5679 ;;      Temps:          0       5       0       0       0       0       0       0       0
  5680 ;;      Totals:         0       9       0       0       0       0       0       0       0
  5681 ;;Total ram usage:        9 bytes
  5682 ;; Hardware stack levels used:    1
  5683 ;; Hardware stack levels required when called:    4
  5684 ;; This function calls:
  5685 ;;		_putch
  5686 ;; This function is called by:
  5687 ;;		_pad
  5688 ;;		_vfpfcnvrt
  5689 ;;		_fputs
  5690 ;; This function uses a non-reentrant model
  5691 ;;
  5692                           
  5693                           	psect	text26
  5694  002838                     __ptext26:
  5695                           	opt callstack 0
  5696  002838                     _fputc:
  5697                           	opt callstack 19
  5698  002838  0100               	movlb	0	; () banked
  5699  00283A  5162               	movf	fputc@fp& (0+255),w,b
  5700  00283C  1163               	iorwf	(fputc@fp+1)& (0+255),w,b
  5701  00283E  B4D8               	btfsc	status,2,c
  5702  002840  EF24  F014         	goto	u2501
  5703  002844  EF26  F014         	goto	u2500
  5704  002848                     u2501:
  5705  002848  EF2F  F014         	goto	l3146
  5706  00284C                     u2500:
  5707  00284C                     
  5708                           ; BSR set to: 0
  5709  00284C  5162               	movf	fputc@fp& (0+255),w,b
  5710  00284E  1163               	iorwf	(fputc@fp+1)& (0+255),w,b
  5711  002850  A4D8               	btfss	status,2,c
  5712  002852  EF2D  F014         	goto	u2511
  5713  002856  EF2F  F014         	goto	u2510
  5714  00285A                     u2511:
  5715  00285A  EF34  F014         	goto	l3148
  5716  00285E                     u2510:
  5717  00285E                     l3146:
  5718                           
  5719                           ; BSR set to: 0
  5720  00285E  5160               	movf	fputc@c& (0+255),w,b
  5721  002860  ECD1  F019         	call	_putch
  5722  002864  EF81  F014         	goto	l1308
  5723  002868                     l3148:
  5724                           
  5725                           ; BSR set to: 0
  5726  002868  EE20 F004          	lfsr	2,4
  5727  00286C  5162               	movf	fputc@fp& (0+255),w,b
  5728  00286E  26D9               	addwf	fsr2l,f,c
  5729  002870  5163               	movf	(fputc@fp+1)& (0+255),w,b
  5730  002872  22DA               	addwfc	fsr2h,f,c
  5731  002874  50DE               	movf	postinc2,w,c
  5732  002876  10DE               	iorwf	postinc2,w,c
  5733  002878  B4D8               	btfsc	status,2,c
  5734  00287A  EF41  F014         	goto	u2521
  5735  00287E  EF43  F014         	goto	u2520
  5736  002882                     u2521:
  5737  002882  EF5E  F014         	goto	l3152
  5738  002886                     u2520:
  5739  002886                     
  5740                           ; BSR set to: 0
  5741  002886  EE20 F004          	lfsr	2,4
  5742  00288A  5162               	movf	fputc@fp& (0+255),w,b
  5743  00288C  26D9               	addwf	fsr2l,f,c
  5744  00288E  5163               	movf	(fputc@fp+1)& (0+255),w,b
  5745  002890  22DA               	addwfc	fsr2h,f,c
  5746  002892  EE10 F002          	lfsr	1,2
  5747  002896  5162               	movf	fputc@fp& (0+255),w,b
  5748  002898  26E1               	addwf	fsr1l,f,c
  5749  00289A  5163               	movf	(fputc@fp+1)& (0+255),w,b
  5750  00289C  22E2               	addwfc	fsr1h,f,c
  5751  00289E  50DE               	movf	postinc2,w,c
  5752  0028A0  5CE6               	subwf	postinc1,w,c
  5753  0028A2  50E6               	movf	postinc1,w,c
  5754  0028A4  0A80               	xorlw	128
  5755  0028A6  6F68               	movwf	(??_fputc+4)& (0+255),b
  5756  0028A8  50DE               	movf	postinc2,w,c
  5757  0028AA  0A80               	xorlw	128
  5758  0028AC  5968               	subwfb	(??_fputc+4)& (0+255),w,b
  5759  0028AE  B0D8               	btfsc	status,0,c
  5760  0028B0  EF5C  F014         	goto	u2531
  5761  0028B4  EF5E  F014         	goto	u2530
  5762  0028B8                     u2531:
  5763  0028B8  EF81  F014         	goto	l1308
  5764  0028BC                     u2530:
  5765  0028BC                     l3152:
  5766                           
  5767                           ; BSR set to: 0
  5768  0028BC  EE20 F002          	lfsr	2,2
  5769  0028C0  5162               	movf	fputc@fp& (0+255),w,b
  5770  0028C2  26D9               	addwf	fsr2l,f,c
  5771  0028C4  5163               	movf	(fputc@fp+1)& (0+255),w,b
  5772  0028C6  22DA               	addwfc	fsr2h,f,c
  5773  0028C8  CFDE F064          	movff	postinc2,??_fputc
  5774  0028CC  CFDD F065          	movff	postdec2,??_fputc+1
  5775  0028D0  C062  FFD9         	movff	fputc@fp,fsr2l
  5776  0028D4  C063  FFDA         	movff	fputc@fp+1,fsr2h
  5777  0028D8  CFDE F066          	movff	postinc2,??_fputc+2
  5778  0028DC  CFDD F067          	movff	postdec2,??_fputc+3
  5779  0028E0  5164               	movf	??_fputc& (0+255),w,b
  5780  0028E2  2566               	addwf	(??_fputc+2)& (0+255),w,b
  5781  0028E4  6ED9               	movwf	fsr2l,c
  5782  0028E6  5165               	movf	(??_fputc+1)& (0+255),w,b
  5783  0028E8  2167               	addwfc	(??_fputc+3)& (0+255),w,b
  5784  0028EA  6EDA               	movwf	fsr2h,c
  5785  0028EC  C060  FFDF         	movff	fputc@c,indf2
  5786  0028F0  EE20 F002          	lfsr	2,2
  5787  0028F4  5162               	movf	fputc@fp& (0+255),w,b
  5788  0028F6  26D9               	addwf	fsr2l,f,c
  5789  0028F8  5163               	movf	(fputc@fp+1)& (0+255),w,b
  5790  0028FA  22DA               	addwfc	fsr2h,f,c
  5791  0028FC  2ADE               	incf	postinc2,f,c
  5792  0028FE  0E00               	movlw	0
  5793  002900  22DD               	addwfc	postdec2,f,c
  5794  002902                     l1308:
  5795  002902  0012               	return		;funcret
  5796  002904                     __end_of_fputc:
  5797                           	opt callstack 0
  5798                           
  5799 ;; *************** function _putch *****************
  5800 ;; Defined at:
  5801 ;;		line 7 in file "C:\Program Files (x86)\Microchip\xc8\v2.10\pic\sources\c99\common\putch.c"
  5802 ;; Parameters:    Size  Location     Type
  5803 ;;  c               1    wreg     unsigned char 
  5804 ;; Auto vars:     Size  Location     Type
  5805 ;;  c               1    0[COMRAM] unsigned char 
  5806 ;; Return value:  Size  Location     Type
  5807 ;;                  1    wreg      void 
  5808 ;; Registers used:
  5809 ;;		wreg
  5810 ;; Tracked objects:
  5811 ;;		On entry : 0/0
  5812 ;;		On exit  : 0/0
  5813 ;;		Unchanged: 0/0
  5814 ;; Data sizes:     COMRAM   BANK0   BANK1   BANK2   BANK3   BANK4   BANK5   BANK6   BANK7
  5815 ;;      Params:         0       0       0       0       0       0       0       0       0
  5816 ;;      Locals:         0       0       0       0       0       0       0       0       0
  5817 ;;      Temps:          0       0       0       0       0       0       0       0       0
  5818 ;;      Totals:         0       0       0       0       0       0       0       0       0
  5819 ;;Total ram usage:        0 bytes
  5820 ;; Hardware stack levels used:    1
  5821 ;; Hardware stack levels required when called:    3
  5822 ;; This function calls:
  5823 ;;		Nothing
  5824 ;; This function is called by:
  5825 ;;		_fputc
  5826 ;; This function uses a non-reentrant model
  5827 ;;
  5828                           
  5829                           	psect	text27
  5830  0033A2                     __ptext27:
  5831                           	opt callstack 0
  5832  0033A2                     _putch:
  5833                           	opt callstack 19
  5834  0033A2  0012               	return		;funcret
  5835  0033A4                     __end_of_putch:
  5836                           	opt callstack 0
  5837                           
  5838 ;; *************** function ___lomod *****************
  5839 ;; Defined at:
  5840 ;;		line 9 in file "C:\Program Files (x86)\Microchip\xc8\v2.10\pic\sources\c99\common\lomod.c"
  5841 ;; Parameters:    Size  Location     Type
  5842 ;;  dividend        8    0[BANK0 ] unsigned long long 
  5843 ;;  divisor         8    8[BANK0 ] unsigned long long 
  5844 ;; Auto vars:     Size  Location     Type
  5845 ;;  counter         1   16[BANK0 ] unsigned char 
  5846 ;; Return value:  Size  Location     Type
  5847 ;;                  8    0[BANK0 ] unsigned long long 
  5848 ;; Registers used:
  5849 ;;		wreg, status,2, status,0
  5850 ;; Tracked objects:
  5851 ;;		On entry : 0/0
  5852 ;;		On exit  : 0/0
  5853 ;;		Unchanged: 0/0
  5854 ;; Data sizes:     COMRAM   BANK0   BANK1   BANK2   BANK3   BANK4   BANK5   BANK6   BANK7
  5855 ;;      Params:         0      16       0       0       0       0       0       0       0
  5856 ;;      Locals:         0       1       0       0       0       0       0       0       0
  5857 ;;      Temps:          0       0       0       0       0       0       0       0       0
  5858 ;;      Totals:         0      17       0       0       0       0       0       0       0
  5859 ;;Total ram usage:       17 bytes
  5860 ;; Hardware stack levels used:    1
  5861 ;; Hardware stack levels required when called:    3
  5862 ;; This function calls:
  5863 ;;		Nothing
  5864 ;; This function is called by:
  5865 ;;		_utoa
  5866 ;; This function uses a non-reentrant model
  5867 ;;
  5868                           
  5869                           	psect	text28
  5870  0025C6                     __ptext28:
  5871                           	opt callstack 0
  5872  0025C6                     ___lomod:
  5873                           	opt callstack 22
  5874  0025C6  0100               	movlb	0	; () banked
  5875  0025C8  5168               	movf	___lomod@divisor& (0+255),w,b
  5876  0025CA  1169               	iorwf	(___lomod@divisor+1)& (0+255),w,b
  5877  0025CC  116A               	iorwf	(___lomod@divisor+2)& (0+255),w,b
  5878  0025CE  116B               	iorwf	(___lomod@divisor+3)& (0+255),w,b
  5879  0025D0  116C               	iorwf	(___lomod@divisor+4)& (0+255),w,b
  5880  0025D2  116D               	iorwf	(___lomod@divisor+5)& (0+255),w,b
  5881  0025D4  116E               	iorwf	(___lomod@divisor+6)& (0+255),w,b
  5882  0025D6  116F               	iorwf	(___lomod@divisor+7)& (0+255),w,b
  5883  0025D8  B4D8               	btfsc	status,2,c
  5884  0025DA  EFF1  F012         	goto	u2641
  5885  0025DE  EFF3  F012         	goto	u2640
  5886  0025E2                     u2641:
  5887  0025E2  EF3B  F013         	goto	l1073
  5888  0025E6                     u2640:
  5889  0025E6                     
  5890                           ; BSR set to: 0
  5891  0025E6  0E01               	movlw	1
  5892  0025E8  6F70               	movwf	___lomod@counter& (0+255),b
  5893  0025EA  EF01  F013         	goto	l3224
  5894  0025EE                     l3222:
  5895                           
  5896                           ; BSR set to: 0
  5897  0025EE  90D8               	bcf	status,0,c
  5898  0025F0  3768               	rlcf	___lomod@divisor& (0+255),f,b
  5899  0025F2  3769               	rlcf	(___lomod@divisor+1)& (0+255),f,b
  5900  0025F4  376A               	rlcf	(___lomod@divisor+2)& (0+255),f,b
  5901  0025F6  376B               	rlcf	(___lomod@divisor+3)& (0+255),f,b
  5902  0025F8  376C               	rlcf	(___lomod@divisor+4)& (0+255),f,b
  5903  0025FA  376D               	rlcf	(___lomod@divisor+5)& (0+255),f,b
  5904  0025FC  376E               	rlcf	(___lomod@divisor+6)& (0+255),f,b
  5905  0025FE  376F               	rlcf	(___lomod@divisor+7)& (0+255),f,b
  5906  002600  2B70               	incf	___lomod@counter& (0+255),f,b
  5907  002602                     l3224:
  5908                           
  5909                           ; BSR set to: 0
  5910  002602  AF6F               	btfss	(___lomod@divisor+7)& (0+255),7,b
  5911  002604  EF06  F013         	goto	u2651
  5912  002608  EF08  F013         	goto	u2650
  5913  00260C                     u2651:
  5914  00260C  EFF7  F012         	goto	l3222
  5915  002610                     u2650:
  5916  002610                     l3226:
  5917                           
  5918                           ; BSR set to: 0
  5919  002610  5168               	movf	___lomod@divisor& (0+255),w,b
  5920  002612  5D60               	subwf	___lomod@dividend& (0+255),w,b
  5921  002614  5169               	movf	(___lomod@divisor+1)& (0+255),w,b
  5922  002616  5961               	subwfb	(___lomod@dividend+1)& (0+255),w,b
  5923  002618  516A               	movf	(___lomod@divisor+2)& (0+255),w,b
  5924  00261A  5962               	subwfb	(___lomod@dividend+2)& (0+255),w,b
  5925  00261C  516B               	movf	(___lomod@divisor+3)& (0+255),w,b
  5926  00261E  5963               	subwfb	(___lomod@dividend+3)& (0+255),w,b
  5927  002620  516C               	movf	(___lomod@divisor+4)& (0+255),w,b
  5928  002622  5964               	subwfb	(___lomod@dividend+4)& (0+255),w,b
  5929  002624  516D               	movf	(___lomod@divisor+5)& (0+255),w,b
  5930  002626  5965               	subwfb	(___lomod@dividend+5)& (0+255),w,b
  5931  002628  516E               	movf	(___lomod@divisor+6)& (0+255),w,b
  5932  00262A  5966               	subwfb	(___lomod@dividend+6)& (0+255),w,b
  5933  00262C  516F               	movf	(___lomod@divisor+7)& (0+255),w,b
  5934  00262E  5967               	subwfb	(___lomod@dividend+7)& (0+255),w,b
  5935  002630  A0D8               	btfss	status,0,c
  5936  002632  EF1D  F013         	goto	u2661
  5937  002636  EF1F  F013         	goto	u2660
  5938  00263A                     u2661:
  5939  00263A  EF2F  F013         	goto	l3230
  5940  00263E                     u2660:
  5941  00263E                     
  5942                           ; BSR set to: 0
  5943  00263E  5168               	movf	___lomod@divisor& (0+255),w,b
  5944  002640  5F60               	subwf	___lomod@dividend& (0+255),f,b
  5945  002642  5169               	movf	(___lomod@divisor+1)& (0+255),w,b
  5946  002644  5B61               	subwfb	(___lomod@dividend+1)& (0+255),f,b
  5947  002646  516A               	movf	(___lomod@divisor+2)& (0+255),w,b
  5948  002648  5B62               	subwfb	(___lomod@dividend+2)& (0+255),f,b
  5949  00264A  516B               	movf	(___lomod@divisor+3)& (0+255),w,b
  5950  00264C  5B63               	subwfb	(___lomod@dividend+3)& (0+255),f,b
  5951  00264E  516C               	movf	(___lomod@divisor+4)& (0+255),w,b
  5952  002650  5B64               	subwfb	(___lomod@dividend+4)& (0+255),f,b
  5953  002652  516D               	movf	(___lomod@divisor+5)& (0+255),w,b
  5954  002654  5B65               	subwfb	(___lomod@dividend+5)& (0+255),f,b
  5955  002656  516E               	movf	(___lomod@divisor+6)& (0+255),w,b
  5956  002658  5B66               	subwfb	(___lomod@dividend+6)& (0+255),f,b
  5957  00265A  516F               	movf	(___lomod@divisor+7)& (0+255),w,b
  5958  00265C  5B67               	subwfb	(___lomod@dividend+7)& (0+255),f,b
  5959  00265E                     l3230:
  5960                           
  5961                           ; BSR set to: 0
  5962  00265E  90D8               	bcf	status,0,c
  5963  002660  336F               	rrcf	(___lomod@divisor+7)& (0+255),f,b
  5964  002662  336E               	rrcf	(___lomod@divisor+6)& (0+255),f,b
  5965  002664  336D               	rrcf	(___lomod@divisor+5)& (0+255),f,b
  5966  002666  336C               	rrcf	(___lomod@divisor+4)& (0+255),f,b
  5967  002668  336B               	rrcf	(___lomod@divisor+3)& (0+255),f,b
  5968  00266A  336A               	rrcf	(___lomod@divisor+2)& (0+255),f,b
  5969  00266C  3369               	rrcf	(___lomod@divisor+1)& (0+255),f,b
  5970  00266E  3368               	rrcf	___lomod@divisor& (0+255),f,b
  5971  002670                     
  5972                           ; BSR set to: 0
  5973  002670  2F70               	decfsz	___lomod@counter& (0+255),f,b
  5974  002672  EF08  F013         	goto	l3226
  5975  002676                     l1073:
  5976                           
  5977                           ; BSR set to: 0
  5978  002676  C060  F060         	movff	___lomod@dividend,?___lomod
  5979  00267A  C061  F061         	movff	___lomod@dividend+1,?___lomod+1
  5980  00267E  C062  F062         	movff	___lomod@dividend+2,?___lomod+2
  5981  002682  C063  F063         	movff	___lomod@dividend+3,?___lomod+3
  5982  002686  C064  F064         	movff	___lomod@dividend+4,?___lomod+4
  5983  00268A  C065  F065         	movff	___lomod@dividend+5,?___lomod+5
  5984  00268E  C066  F066         	movff	___lomod@dividend+6,?___lomod+6
  5985  002692  C067  F067         	movff	___lomod@dividend+7,?___lomod+7
  5986  002696                     
  5987                           ; BSR set to: 0
  5988  002696  0012               	return		;funcret
  5989  002698                     __end_of___lomod:
  5990                           	opt callstack 0
  5991                           
  5992 ;; *************** function ___lodiv *****************
  5993 ;; Defined at:
  5994 ;;		line 9 in file "C:\Program Files (x86)\Microchip\xc8\v2.10\pic\sources\c99\common\lodiv.c"
  5995 ;; Parameters:    Size  Location     Type
  5996 ;;  dividend        8    0[BANK0 ] unsigned long long 
  5997 ;;  divisor         8    8[BANK0 ] unsigned long long 
  5998 ;; Auto vars:     Size  Location     Type
  5999 ;;  quotient        8   16[BANK0 ] unsigned long long 
  6000 ;;  counter         1   24[BANK0 ] unsigned char 
  6001 ;; Return value:  Size  Location     Type
  6002 ;;                  8    0[BANK0 ] unsigned long long 
  6003 ;; Registers used:
  6004 ;;		wreg, fsr2l, fsr2h, status,2, status,0
  6005 ;; Tracked objects:
  6006 ;;		On entry : 0/0
  6007 ;;		On exit  : 0/0
  6008 ;;		Unchanged: 0/0
  6009 ;; Data sizes:     COMRAM   BANK0   BANK1   BANK2   BANK3   BANK4   BANK5   BANK6   BANK7
  6010 ;;      Params:         0      16       0       0       0       0       0       0       0
  6011 ;;      Locals:         0       9       0       0       0       0       0       0       0
  6012 ;;      Temps:          0       0       0       0       0       0       0       0       0
  6013 ;;      Totals:         0      25       0       0       0       0       0       0       0
  6014 ;;Total ram usage:       25 bytes
  6015 ;; Hardware stack levels used:    1
  6016 ;; Hardware stack levels required when called:    3
  6017 ;; This function calls:
  6018 ;;		Nothing
  6019 ;; This function is called by:
  6020 ;;		_utoa
  6021 ;; This function uses a non-reentrant model
  6022 ;;
  6023                           
  6024                           	psect	text29
  6025  0024D4                     __ptext29:
  6026                           	opt callstack 0
  6027  0024D4                     ___lodiv:
  6028                           	opt callstack 22
  6029  0024D4  EE20  F070         	lfsr	2,___lodiv@quotient
  6030  0024D8  0E07               	movlw	7
  6031  0024DA                     u2601:
  6032  0024DA  6ADE               	clrf	postinc2,c
  6033  0024DC  06E8               	decf	wreg,f,c
  6034  0024DE  E2FD               	bc	u2601
  6035  0024E0  0100               	movlb	0	; () banked
  6036  0024E2  5168               	movf	___lodiv@divisor& (0+255),w,b
  6037  0024E4  1169               	iorwf	(___lodiv@divisor+1)& (0+255),w,b
  6038  0024E6  116A               	iorwf	(___lodiv@divisor+2)& (0+255),w,b
  6039  0024E8  116B               	iorwf	(___lodiv@divisor+3)& (0+255),w,b
  6040  0024EA  116C               	iorwf	(___lodiv@divisor+4)& (0+255),w,b
  6041  0024EC  116D               	iorwf	(___lodiv@divisor+5)& (0+255),w,b
  6042  0024EE  116E               	iorwf	(___lodiv@divisor+6)& (0+255),w,b
  6043  0024F0  116F               	iorwf	(___lodiv@divisor+7)& (0+255),w,b
  6044  0024F2  B4D8               	btfsc	status,2,c
  6045  0024F4  EF7E  F012         	goto	u2611
  6046  0024F8  EF80  F012         	goto	u2610
  6047  0024FC                     u2611:
  6048  0024FC  EFD2  F012         	goto	l1063
  6049  002500                     u2610:
  6050  002500                     
  6051                           ; BSR set to: 0
  6052  002500  0E01               	movlw	1
  6053  002502  6F78               	movwf	___lodiv@counter& (0+255),b
  6054  002504  EF8E  F012         	goto	l3204
  6055  002508                     l3202:
  6056                           
  6057                           ; BSR set to: 0
  6058  002508  90D8               	bcf	status,0,c
  6059  00250A  3768               	rlcf	___lodiv@divisor& (0+255),f,b
  6060  00250C  3769               	rlcf	(___lodiv@divisor+1)& (0+255),f,b
  6061  00250E  376A               	rlcf	(___lodiv@divisor+2)& (0+255),f,b
  6062  002510  376B               	rlcf	(___lodiv@divisor+3)& (0+255),f,b
  6063  002512  376C               	rlcf	(___lodiv@divisor+4)& (0+255),f,b
  6064  002514  376D               	rlcf	(___lodiv@divisor+5)& (0+255),f,b
  6065  002516  376E               	rlcf	(___lodiv@divisor+6)& (0+255),f,b
  6066  002518  376F               	rlcf	(___lodiv@divisor+7)& (0+255),f,b
  6067  00251A  2B78               	incf	___lodiv@counter& (0+255),f,b
  6068  00251C                     l3204:
  6069                           
  6070                           ; BSR set to: 0
  6071  00251C  AF6F               	btfss	(___lodiv@divisor+7)& (0+255),7,b
  6072  00251E  EF93  F012         	goto	u2621
  6073  002522  EF95  F012         	goto	u2620
  6074  002526                     u2621:
  6075  002526  EF84  F012         	goto	l3202
  6076  00252A                     u2620:
  6077  00252A                     l3206:
  6078                           
  6079                           ; BSR set to: 0
  6080  00252A  90D8               	bcf	status,0,c
  6081  00252C  3770               	rlcf	___lodiv@quotient& (0+255),f,b
  6082  00252E  3771               	rlcf	(___lodiv@quotient+1)& (0+255),f,b
  6083  002530  3772               	rlcf	(___lodiv@quotient+2)& (0+255),f,b
  6084  002532  3773               	rlcf	(___lodiv@quotient+3)& (0+255),f,b
  6085  002534  3774               	rlcf	(___lodiv@quotient+4)& (0+255),f,b
  6086  002536  3775               	rlcf	(___lodiv@quotient+5)& (0+255),f,b
  6087  002538  3776               	rlcf	(___lodiv@quotient+6)& (0+255),f,b
  6088  00253A  3777               	rlcf	(___lodiv@quotient+7)& (0+255),f,b
  6089  00253C                     
  6090                           ; BSR set to: 0
  6091  00253C  5168               	movf	___lodiv@divisor& (0+255),w,b
  6092  00253E  5D60               	subwf	___lodiv@dividend& (0+255),w,b
  6093  002540  5169               	movf	(___lodiv@divisor+1)& (0+255),w,b
  6094  002542  5961               	subwfb	(___lodiv@dividend+1)& (0+255),w,b
  6095  002544  516A               	movf	(___lodiv@divisor+2)& (0+255),w,b
  6096  002546  5962               	subwfb	(___lodiv@dividend+2)& (0+255),w,b
  6097  002548  516B               	movf	(___lodiv@divisor+3)& (0+255),w,b
  6098  00254A  5963               	subwfb	(___lodiv@dividend+3)& (0+255),w,b
  6099  00254C  516C               	movf	(___lodiv@divisor+4)& (0+255),w,b
  6100  00254E  5964               	subwfb	(___lodiv@dividend+4)& (0+255),w,b
  6101  002550  516D               	movf	(___lodiv@divisor+5)& (0+255),w,b
  6102  002552  5965               	subwfb	(___lodiv@dividend+5)& (0+255),w,b
  6103  002554  516E               	movf	(___lodiv@divisor+6)& (0+255),w,b
  6104  002556  5966               	subwfb	(___lodiv@dividend+6)& (0+255),w,b
  6105  002558  516F               	movf	(___lodiv@divisor+7)& (0+255),w,b
  6106  00255A  5967               	subwfb	(___lodiv@dividend+7)& (0+255),w,b
  6107  00255C  A0D8               	btfss	status,0,c
  6108  00255E  EFB3  F012         	goto	u2631
  6109  002562  EFB5  F012         	goto	u2630
  6110  002566                     u2631:
  6111  002566  EFC6  F012         	goto	l3214
  6112  00256A                     u2630:
  6113  00256A                     
  6114                           ; BSR set to: 0
  6115  00256A  5168               	movf	___lodiv@divisor& (0+255),w,b
  6116  00256C  5F60               	subwf	___lodiv@dividend& (0+255),f,b
  6117  00256E  5169               	movf	(___lodiv@divisor+1)& (0+255),w,b
  6118  002570  5B61               	subwfb	(___lodiv@dividend+1)& (0+255),f,b
  6119  002572  516A               	movf	(___lodiv@divisor+2)& (0+255),w,b
  6120  002574  5B62               	subwfb	(___lodiv@dividend+2)& (0+255),f,b
  6121  002576  516B               	movf	(___lodiv@divisor+3)& (0+255),w,b
  6122  002578  5B63               	subwfb	(___lodiv@dividend+3)& (0+255),f,b
  6123  00257A  516C               	movf	(___lodiv@divisor+4)& (0+255),w,b
  6124  00257C  5B64               	subwfb	(___lodiv@dividend+4)& (0+255),f,b
  6125  00257E  516D               	movf	(___lodiv@divisor+5)& (0+255),w,b
  6126  002580  5B65               	subwfb	(___lodiv@dividend+5)& (0+255),f,b
  6127  002582  516E               	movf	(___lodiv@divisor+6)& (0+255),w,b
  6128  002584  5B66               	subwfb	(___lodiv@dividend+6)& (0+255),f,b
  6129  002586  516F               	movf	(___lodiv@divisor+7)& (0+255),w,b
  6130  002588  5B67               	subwfb	(___lodiv@dividend+7)& (0+255),f,b
  6131  00258A                     
  6132                           ; BSR set to: 0
  6133  00258A  8170               	bsf	___lodiv@quotient& (0+255),0,b
  6134  00258C                     l3214:
  6135                           
  6136                           ; BSR set to: 0
  6137  00258C  90D8               	bcf	status,0,c
  6138  00258E  336F               	rrcf	(___lodiv@divisor+7)& (0+255),f,b
  6139  002590  336E               	rrcf	(___lodiv@divisor+6)& (0+255),f,b
  6140  002592  336D               	rrcf	(___lodiv@divisor+5)& (0+255),f,b
  6141  002594  336C               	rrcf	(___lodiv@divisor+4)& (0+255),f,b
  6142  002596  336B               	rrcf	(___lodiv@divisor+3)& (0+255),f,b
  6143  002598  336A               	rrcf	(___lodiv@divisor+2)& (0+255),f,b
  6144  00259A  3369               	rrcf	(___lodiv@divisor+1)& (0+255),f,b
  6145  00259C  3368               	rrcf	___lodiv@divisor& (0+255),f,b
  6146  00259E                     
  6147                           ; BSR set to: 0
  6148  00259E  2F78               	decfsz	___lodiv@counter& (0+255),f,b
  6149  0025A0  EF95  F012         	goto	l3206
  6150  0025A4                     l1063:
  6151                           
  6152                           ; BSR set to: 0
  6153  0025A4  C070  F060         	movff	___lodiv@quotient,?___lodiv
  6154  0025A8  C071  F061         	movff	___lodiv@quotient+1,?___lodiv+1
  6155  0025AC  C072  F062         	movff	___lodiv@quotient+2,?___lodiv+2
  6156  0025B0  C073  F063         	movff	___lodiv@quotient+3,?___lodiv+3
  6157  0025B4  C074  F064         	movff	___lodiv@quotient+4,?___lodiv+4
  6158  0025B8  C075  F065         	movff	___lodiv@quotient+5,?___lodiv+5
  6159  0025BC  C076  F066         	movff	___lodiv@quotient+6,?___lodiv+6
  6160  0025C0  C077  F067         	movff	___lodiv@quotient+7,?___lodiv+7
  6161  0025C4                     
  6162                           ; BSR set to: 0
  6163  0025C4  0012               	return		;funcret
  6164  0025C6                     __end_of___lodiv:
  6165                           	opt callstack 0
  6166                           
  6167 ;; *************** function _lcd_command *****************
  6168 ;; Defined at:
  6169 ;;		line 13 in file "lcd.c"
  6170 ;; Parameters:    Size  Location     Type
  6171 ;;  x               1    wreg     unsigned char 
  6172 ;; Auto vars:     Size  Location     Type
  6173 ;;  x               1    2[BANK0 ] unsigned char 
  6174 ;;  temp            1    1[BANK0 ] unsigned char 
  6175 ;; Return value:  Size  Location     Type
  6176 ;;                  1    wreg      void 
  6177 ;; Registers used:
  6178 ;;		wreg, status,2, status,0, cstack
  6179 ;; Tracked objects:
  6180 ;;		On entry : 0/0
  6181 ;;		On exit  : 0/0
  6182 ;;		Unchanged: 0/0
  6183 ;; Data sizes:     COMRAM   BANK0   BANK1   BANK2   BANK3   BANK4   BANK5   BANK6   BANK7
  6184 ;;      Params:         0       0       0       0       0       0       0       0       0
  6185 ;;      Locals:         0       2       0       0       0       0       0       0       0
  6186 ;;      Temps:          0       1       0       0       0       0       0       0       0
  6187 ;;      Totals:         0       3       0       0       0       0       0       0       0
  6188 ;;Total ram usage:        3 bytes
  6189 ;; Hardware stack levels used:    1
  6190 ;; Hardware stack levels required when called:    3
  6191 ;; This function calls:
  6192 ;;		Nothing
  6193 ;; This function is called by:
  6194 ;;		_lcdprint
  6195 ;;		_lcd_init
  6196 ;; This function uses a non-reentrant model
  6197 ;;
  6198                           
  6199                           	psect	text30
  6200  002698                     __ptext30:
  6201                           	opt callstack 0
  6202  002698                     _lcd_command:
  6203                           	opt callstack 26
  6204                           
  6205                           ; BSR set to: 0
  6206                           ;incstack = 0
  6207                           ;lcd_command@x stored from wreg
  6208  002698  0100               	movlb	0	; () banked
  6209  00269A  6F62               	movwf	lcd_command@x& (0+255),b
  6210  00269C                     
  6211                           ;lcd.c: 14:  char temp;;lcd.c: 17:  TRISDbits.TRISD0 = 0;
  6212  00269C  908A               	bcf	138,0,c	;volatile
  6213                           
  6214                           ;lcd.c: 18:  TRISDbits.TRISD1 = 0;
  6215  00269E  928A               	bcf	138,1,c	;volatile
  6216                           
  6217                           ;lcd.c: 19:  TRISDbits.TRISD2 = 0;
  6218  0026A0  948A               	bcf	138,2,c	;volatile
  6219                           
  6220                           ;lcd.c: 20:  TRISDbits.TRISD3 = 0;
  6221  0026A2  968A               	bcf	138,3,c	;volatile
  6222                           
  6223                           ;lcd.c: 21:  TRISDbits.TRISD4 = 0;
  6224  0026A4  988A               	bcf	138,4,c	;volatile
  6225                           
  6226                           ;lcd.c: 22:  TRISDbits.TRISD7 = 0;
  6227  0026A6  9E8A               	bcf	138,7,c	;volatile
  6228  0026A8                     
  6229                           ;lcd.c: 24:  temp = x;
  6230  0026A8  C062  F061         	movff	lcd_command@x,lcd_command@temp
  6231  0026AC                     
  6232                           ;lcd.c: 27:     PORTD = 0;
  6233  0026AC  0E00               	movlw	0
  6234  0026AE  6E8F               	movwf	143,c	;volatile
  6235  0026B0                     
  6236                           ;lcd.c: 28:     _delay((unsigned long)((2)*(8000000/4000.0)));
  6237  0026B0  0E06               	movlw	6
  6238  0026B2  0100               	movlb	0	; () banked
  6239  0026B4  6F60               	movwf	??_lcd_command& (0+255),b
  6240  0026B6  0E30               	movlw	48
  6241  0026B8                     u5297:
  6242  0026B8  2EE8               	decfsz	wreg,f,c
  6243  0026BA  D7FE               	bra	u5297
  6244  0026BC  2F60               	decfsz	??_lcd_command& (0+255),f,b
  6245  0026BE  D7FC               	bra	u5297
  6246  0026C0  F000               	nop	
  6247  0026C2                     
  6248                           ;lcd.c: 30:  x = x >>4;
  6249  0026C2  0100               	movlb	0	; () banked
  6250  0026C4  3962               	swapf	lcd_command@x& (0+255),w,b
  6251  0026C6  0B0F               	andlw	15
  6252  0026C8  6F62               	movwf	lcd_command@x& (0+255),b
  6253  0026CA                     
  6254                           ; BSR set to: 0
  6255                           ;lcd.c: 31:  x = x & 0xF;
  6256  0026CA  5162               	movf	lcd_command@x& (0+255),w,b
  6257  0026CC  0B0F               	andlw	15
  6258  0026CE  6F62               	movwf	lcd_command@x& (0+255),b
  6259  0026D0                     
  6260                           ; BSR set to: 0
  6261                           ;lcd.c: 32:  x = x | 0x80;
  6262  0026D0  5162               	movf	lcd_command@x& (0+255),w,b
  6263  0026D2  0980               	iorlw	128
  6264  0026D4  6F62               	movwf	lcd_command@x& (0+255),b
  6265  0026D6                     
  6266                           ; BSR set to: 0
  6267                           ;lcd.c: 33:  PORTD = x;
  6268  0026D6  C062  FF8F         	movff	lcd_command@x,3983	;volatile
  6269  0026DA                     
  6270                           ; BSR set to: 0
  6271                           ;lcd.c: 34:  _delay((unsigned long)((2)*(8000000/4000.0)));
  6272  0026DA  0E06               	movlw	6
  6273  0026DC  0100               	movlb	0	; () banked
  6274  0026DE  6F60               	movwf	??_lcd_command& (0+255),b
  6275  0026E0  0E30               	movlw	48
  6276  0026E2                     u5307:
  6277  0026E2  2EE8               	decfsz	wreg,f,c
  6278  0026E4  D7FE               	bra	u5307
  6279  0026E6  2F60               	decfsz	??_lcd_command& (0+255),f,b
  6280  0026E8  D7FC               	bra	u5307
  6281  0026EA  F000               	nop	
  6282  0026EC                     
  6283                           ;lcd.c: 36:  x = x & 0xF;
  6284  0026EC  0100               	movlb	0	; () banked
  6285  0026EE  5162               	movf	lcd_command@x& (0+255),w,b
  6286  0026F0  0B0F               	andlw	15
  6287  0026F2  6F62               	movwf	lcd_command@x& (0+255),b
  6288  0026F4                     
  6289                           ; BSR set to: 0
  6290                           ;lcd.c: 37:  PORTD = x;
  6291  0026F4  C062  FF8F         	movff	lcd_command@x,3983	;volatile
  6292  0026F8                     
  6293                           ; BSR set to: 0
  6294                           ;lcd.c: 38:  _delay((unsigned long)((2)*(8000000/4000.0)));
  6295  0026F8  0E06               	movlw	6
  6296  0026FA  0100               	movlb	0	; () banked
  6297  0026FC  6F60               	movwf	??_lcd_command& (0+255),b
  6298  0026FE  0E30               	movlw	48
  6299  002700                     u5317:
  6300  002700  2EE8               	decfsz	wreg,f,c
  6301  002702  D7FE               	bra	u5317
  6302  002704  2F60               	decfsz	??_lcd_command& (0+255),f,b
  6303  002706  D7FC               	bra	u5317
  6304  002708  F000               	nop	
  6305  00270A                     
  6306                           ;lcd.c: 40:  PORTD = 0;
  6307  00270A  0E00               	movlw	0
  6308  00270C  6E8F               	movwf	143,c	;volatile
  6309  00270E                     
  6310                           ;lcd.c: 41:  _delay((unsigned long)((2)*(8000000/4000.0)));
  6311  00270E  0E06               	movlw	6
  6312  002710  0100               	movlb	0	; () banked
  6313  002712  6F60               	movwf	??_lcd_command& (0+255),b
  6314  002714  0E30               	movlw	48
  6315  002716                     u5327:
  6316  002716  2EE8               	decfsz	wreg,f,c
  6317  002718  D7FE               	bra	u5327
  6318  00271A  2F60               	decfsz	??_lcd_command& (0+255),f,b
  6319  00271C  D7FC               	bra	u5327
  6320  00271E  F000               	nop	
  6321  002720                     
  6322                           ;lcd.c: 44:  x = temp;
  6323  002720  C061  F062         	movff	lcd_command@temp,lcd_command@x
  6324  002724                     
  6325                           ;lcd.c: 45:  x = x & 0xF;
  6326  002724  0100               	movlb	0	; () banked
  6327  002726  5162               	movf	lcd_command@x& (0+255),w,b
  6328  002728  0B0F               	andlw	15
  6329  00272A  6F62               	movwf	lcd_command@x& (0+255),b
  6330  00272C                     
  6331                           ; BSR set to: 0
  6332                           ;lcd.c: 46:  x = x | 0x80;
  6333  00272C  5162               	movf	lcd_command@x& (0+255),w,b
  6334  00272E  0980               	iorlw	128
  6335  002730  6F62               	movwf	lcd_command@x& (0+255),b
  6336  002732                     
  6337                           ; BSR set to: 0
  6338                           ;lcd.c: 47:  PORTD = x;
  6339  002732  C062  FF8F         	movff	lcd_command@x,3983	;volatile
  6340  002736                     
  6341                           ; BSR set to: 0
  6342                           ;lcd.c: 48:  _delay((unsigned long)((2)*(8000000/4000.0)));
  6343  002736  0E06               	movlw	6
  6344  002738  0100               	movlb	0	; () banked
  6345  00273A  6F60               	movwf	??_lcd_command& (0+255),b
  6346  00273C  0E30               	movlw	48
  6347  00273E                     u5337:
  6348  00273E  2EE8               	decfsz	wreg,f,c
  6349  002740  D7FE               	bra	u5337
  6350  002742  2F60               	decfsz	??_lcd_command& (0+255),f,b
  6351  002744  D7FC               	bra	u5337
  6352  002746  F000               	nop	
  6353  002748                     
  6354                           ;lcd.c: 50:  x = x & 0xF;
  6355  002748  0100               	movlb	0	; () banked
  6356  00274A  5162               	movf	lcd_command@x& (0+255),w,b
  6357  00274C  0B0F               	andlw	15
  6358  00274E  6F62               	movwf	lcd_command@x& (0+255),b
  6359  002750                     
  6360                           ; BSR set to: 0
  6361                           ;lcd.c: 51:  PORTD = x;
  6362  002750  C062  FF8F         	movff	lcd_command@x,3983	;volatile
  6363  002754                     
  6364                           ; BSR set to: 0
  6365                           ;lcd.c: 52:  _delay((unsigned long)((2)*(8000000/4000.0)));
  6366  002754  0E06               	movlw	6
  6367  002756  0100               	movlb	0	; () banked
  6368  002758  6F60               	movwf	??_lcd_command& (0+255),b
  6369  00275A  0E30               	movlw	48
  6370  00275C                     u5347:
  6371  00275C  2EE8               	decfsz	wreg,f,c
  6372  00275E  D7FE               	bra	u5347
  6373  002760  2F60               	decfsz	??_lcd_command& (0+255),f,b
  6374  002762  D7FC               	bra	u5347
  6375  002764  F000               	nop	
  6376  002766  0012               	return		;funcret
  6377  002768                     __end_of_lcd_command:
  6378                           	opt callstack 0
  6379                           
  6380 ;; *************** function _lcd_char *****************
  6381 ;; Defined at:
  6382 ;;		line 75 in file "lcd.c"
  6383 ;; Parameters:    Size  Location     Type
  6384 ;;  x               1    wreg     unsigned char 
  6385 ;; Auto vars:     Size  Location     Type
  6386 ;;  x               1    2[BANK0 ] unsigned char 
  6387 ;;  temp            1    1[BANK0 ] unsigned char 
  6388 ;; Return value:  Size  Location     Type
  6389 ;;                  1    wreg      void 
  6390 ;; Registers used:
  6391 ;;		wreg, status,2, status,0, cstack
  6392 ;; Tracked objects:
  6393 ;;		On entry : 0/0
  6394 ;;		On exit  : 0/0
  6395 ;;		Unchanged: 0/0
  6396 ;; Data sizes:     COMRAM   BANK0   BANK1   BANK2   BANK3   BANK4   BANK5   BANK6   BANK7
  6397 ;;      Params:         0       0       0       0       0       0       0       0       0
  6398 ;;      Locals:         0       2       0       0       0       0       0       0       0
  6399 ;;      Temps:          0       1       0       0       0       0       0       0       0
  6400 ;;      Totals:         0       3       0       0       0       0       0       0       0
  6401 ;;Total ram usage:        3 bytes
  6402 ;; Hardware stack levels used:    1
  6403 ;; Hardware stack levels required when called:    3
  6404 ;; This function calls:
  6405 ;;		Nothing
  6406 ;; This function is called by:
  6407 ;;		_lcdprint
  6408 ;; This function uses a non-reentrant model
  6409 ;;
  6410                           
  6411                           	psect	text31
  6412  002768                     __ptext31:
  6413                           	opt callstack 0
  6414  002768                     _lcd_char:
  6415                           	opt callstack 26
  6416                           
  6417                           ;incstack = 0
  6418                           ;lcd_char@x stored from wreg
  6419  002768  0100               	movlb	0	; () banked
  6420  00276A  6F62               	movwf	lcd_char@x& (0+255),b
  6421  00276C                     
  6422                           ;lcd.c: 76:  char temp;;lcd.c: 79:  TRISDbits.TRISD0 = 0;
  6423  00276C  908A               	bcf	138,0,c	;volatile
  6424                           
  6425                           ;lcd.c: 80:  TRISDbits.TRISD1 = 0;
  6426  00276E  928A               	bcf	138,1,c	;volatile
  6427                           
  6428                           ;lcd.c: 81:  TRISDbits.TRISD2 = 0;
  6429  002770  948A               	bcf	138,2,c	;volatile
  6430                           
  6431                           ;lcd.c: 82:  TRISDbits.TRISD3 = 0;
  6432  002772  968A               	bcf	138,3,c	;volatile
  6433                           
  6434                           ;lcd.c: 83:  TRISDbits.TRISD4 = 0;
  6435  002774  988A               	bcf	138,4,c	;volatile
  6436                           
  6437                           ;lcd.c: 84:  TRISDbits.TRISD7 = 0;
  6438  002776  9E8A               	bcf	138,7,c	;volatile
  6439  002778                     
  6440                           ;lcd.c: 86:  temp = x;
  6441  002778  C062  F061         	movff	lcd_char@x,lcd_char@temp
  6442  00277C                     
  6443                           ;lcd.c: 89:  PORTD = 0x10;
  6444  00277C  0E10               	movlw	16
  6445  00277E  6E8F               	movwf	143,c	;volatile
  6446  002780                     
  6447                           ;lcd.c: 90:  _delay((unsigned long)((2)*(8000000/4000.0)));
  6448  002780  0E06               	movlw	6
  6449  002782  0100               	movlb	0	; () banked
  6450  002784  6F60               	movwf	??_lcd_char& (0+255),b
  6451  002786  0E30               	movlw	48
  6452  002788                     u5357:
  6453  002788  2EE8               	decfsz	wreg,f,c
  6454  00278A  D7FE               	bra	u5357
  6455  00278C  2F60               	decfsz	??_lcd_char& (0+255),f,b
  6456  00278E  D7FC               	bra	u5357
  6457  002790  F000               	nop	
  6458  002792                     
  6459                           ;lcd.c: 92:  x = x >>4;
  6460  002792  0100               	movlb	0	; () banked
  6461  002794  3962               	swapf	lcd_char@x& (0+255),w,b
  6462  002796  0B0F               	andlw	15
  6463  002798  6F62               	movwf	lcd_char@x& (0+255),b
  6464  00279A                     
  6465                           ; BSR set to: 0
  6466                           ;lcd.c: 93:  x = x & 0xF;
  6467  00279A  5162               	movf	lcd_char@x& (0+255),w,b
  6468  00279C  0B0F               	andlw	15
  6469  00279E  6F62               	movwf	lcd_char@x& (0+255),b
  6470  0027A0                     
  6471                           ; BSR set to: 0
  6472                           ;lcd.c: 94:  x = x | 0x90;
  6473  0027A0  5162               	movf	lcd_char@x& (0+255),w,b
  6474  0027A2  0990               	iorlw	144
  6475  0027A4  6F62               	movwf	lcd_char@x& (0+255),b
  6476  0027A6                     
  6477                           ; BSR set to: 0
  6478                           ;lcd.c: 95:  PORTD = x;
  6479  0027A6  C062  FF8F         	movff	lcd_char@x,3983	;volatile
  6480  0027AA                     
  6481                           ; BSR set to: 0
  6482                           ;lcd.c: 96:  _delay((unsigned long)((2)*(8000000/4000.0)));
  6483  0027AA  0E06               	movlw	6
  6484  0027AC  0100               	movlb	0	; () banked
  6485  0027AE  6F60               	movwf	??_lcd_char& (0+255),b
  6486  0027B0  0E30               	movlw	48
  6487  0027B2                     u5367:
  6488  0027B2  2EE8               	decfsz	wreg,f,c
  6489  0027B4  D7FE               	bra	u5367
  6490  0027B6  2F60               	decfsz	??_lcd_char& (0+255),f,b
  6491  0027B8  D7FC               	bra	u5367
  6492  0027BA  F000               	nop	
  6493  0027BC                     
  6494                           ;lcd.c: 98:  x = x & 0x1F;
  6495  0027BC  0100               	movlb	0	; () banked
  6496  0027BE  5162               	movf	lcd_char@x& (0+255),w,b
  6497  0027C0  0B1F               	andlw	31
  6498  0027C2  6F62               	movwf	lcd_char@x& (0+255),b
  6499  0027C4                     
  6500                           ; BSR set to: 0
  6501                           ;lcd.c: 99:  PORTD = x;
  6502  0027C4  C062  FF8F         	movff	lcd_char@x,3983	;volatile
  6503  0027C8                     
  6504                           ; BSR set to: 0
  6505                           ;lcd.c: 100:  _delay((unsigned long)((2)*(8000000/4000.0)));
  6506  0027C8  0E06               	movlw	6
  6507  0027CA  0100               	movlb	0	; () banked
  6508  0027CC  6F60               	movwf	??_lcd_char& (0+255),b
  6509  0027CE  0E30               	movlw	48
  6510  0027D0                     u5377:
  6511  0027D0  2EE8               	decfsz	wreg,f,c
  6512  0027D2  D7FE               	bra	u5377
  6513  0027D4  2F60               	decfsz	??_lcd_char& (0+255),f,b
  6514  0027D6  D7FC               	bra	u5377
  6515  0027D8  F000               	nop	
  6516  0027DA                     
  6517                           ;lcd.c: 102:  PORTD = 0x10;
  6518  0027DA  0E10               	movlw	16
  6519  0027DC  6E8F               	movwf	143,c	;volatile
  6520  0027DE                     
  6521                           ;lcd.c: 103:  _delay((unsigned long)((2)*(8000000/4000.0)));
  6522  0027DE  0E06               	movlw	6
  6523  0027E0  0100               	movlb	0	; () banked
  6524  0027E2  6F60               	movwf	??_lcd_char& (0+255),b
  6525  0027E4  0E30               	movlw	48
  6526  0027E6                     u5387:
  6527  0027E6  2EE8               	decfsz	wreg,f,c
  6528  0027E8  D7FE               	bra	u5387
  6529  0027EA  2F60               	decfsz	??_lcd_char& (0+255),f,b
  6530  0027EC  D7FC               	bra	u5387
  6531  0027EE  F000               	nop	
  6532  0027F0                     
  6533                           ;lcd.c: 106:  x = temp;
  6534  0027F0  C061  F062         	movff	lcd_char@temp,lcd_char@x
  6535  0027F4                     
  6536                           ;lcd.c: 107:  x = x & 0xF;
  6537  0027F4  0100               	movlb	0	; () banked
  6538  0027F6  5162               	movf	lcd_char@x& (0+255),w,b
  6539  0027F8  0B0F               	andlw	15
  6540  0027FA  6F62               	movwf	lcd_char@x& (0+255),b
  6541  0027FC                     
  6542                           ; BSR set to: 0
  6543                           ;lcd.c: 108:  x = x | 0x90;
  6544  0027FC  5162               	movf	lcd_char@x& (0+255),w,b
  6545  0027FE  0990               	iorlw	144
  6546  002800  6F62               	movwf	lcd_char@x& (0+255),b
  6547  002802                     
  6548                           ; BSR set to: 0
  6549                           ;lcd.c: 109:  PORTD = x;
  6550  002802  C062  FF8F         	movff	lcd_char@x,3983	;volatile
  6551  002806                     
  6552                           ; BSR set to: 0
  6553                           ;lcd.c: 110:  _delay((unsigned long)((2)*(8000000/4000.0)));
  6554  002806  0E06               	movlw	6
  6555  002808  0100               	movlb	0	; () banked
  6556  00280A  6F60               	movwf	??_lcd_char& (0+255),b
  6557  00280C  0E30               	movlw	48
  6558  00280E                     u5397:
  6559  00280E  2EE8               	decfsz	wreg,f,c
  6560  002810  D7FE               	bra	u5397
  6561  002812  2F60               	decfsz	??_lcd_char& (0+255),f,b
  6562  002814  D7FC               	bra	u5397
  6563  002816  F000               	nop	
  6564  002818                     
  6565                           ;lcd.c: 112:  x = x & 0x1F;
  6566  002818  0100               	movlb	0	; () banked
  6567  00281A  5162               	movf	lcd_char@x& (0+255),w,b
  6568  00281C  0B1F               	andlw	31
  6569  00281E  6F62               	movwf	lcd_char@x& (0+255),b
  6570  002820                     
  6571                           ; BSR set to: 0
  6572                           ;lcd.c: 113:  PORTD = x;
  6573  002820  C062  FF8F         	movff	lcd_char@x,3983	;volatile
  6574  002824                     
  6575                           ; BSR set to: 0
  6576                           ;lcd.c: 114:  _delay((unsigned long)((2)*(8000000/4000.0)));
  6577  002824  0E06               	movlw	6
  6578  002826  0100               	movlb	0	; () banked
  6579  002828  6F60               	movwf	??_lcd_char& (0+255),b
  6580  00282A  0E30               	movlw	48
  6581  00282C                     u5407:
  6582  00282C  2EE8               	decfsz	wreg,f,c
  6583  00282E  D7FE               	bra	u5407
  6584  002830  2F60               	decfsz	??_lcd_char& (0+255),f,b
  6585  002832  D7FC               	bra	u5407
  6586  002834  F000               	nop	
  6587  002836  0012               	return		;funcret
  6588  002838                     __end_of_lcd_char:
  6589                           	opt callstack 0
  6590                           
  6591 ;; *************** function _get_seconds *****************
  6592 ;; Defined at:
  6593 ;;		line 37 in file "timer.c"
  6594 ;; Parameters:    Size  Location     Type
  6595 ;;		None
  6596 ;; Auto vars:     Size  Location     Type
  6597 ;;  sec             1    8[BANK0 ] unsigned char 
  6598 ;; Return value:  Size  Location     Type
  6599 ;;                  1    wreg      unsigned char 
  6600 ;; Registers used:
  6601 ;;		wreg, status,2, status,0, prodl, prodh, cstack
  6602 ;; Tracked objects:
  6603 ;;		On entry : 0/0
  6604 ;;		On exit  : 0/0
  6605 ;;		Unchanged: 0/0
  6606 ;; Data sizes:     COMRAM   BANK0   BANK1   BANK2   BANK3   BANK4   BANK5   BANK6   BANK7
  6607 ;;      Params:         0       0       0       0       0       0       0       0       0
  6608 ;;      Locals:         0       1       0       0       0       0       0       0       0
  6609 ;;      Temps:          0       1       0       0       0       0       0       0       0
  6610 ;;      Totals:         0       2       0       0       0       0       0       0       0
  6611 ;;Total ram usage:        2 bytes
  6612 ;; Hardware stack levels used:    1
  6613 ;; Hardware stack levels required when called:    4
  6614 ;; This function calls:
  6615 ;;		_i2c_read
  6616 ;; This function is called by:
  6617 ;;		_lcdprint
  6618 ;; This function uses a non-reentrant model
  6619 ;;
  6620                           
  6621                           	psect	text32
  6622  00332E                     __ptext32:
  6623                           	opt callstack 0
  6624  00332E                     _get_seconds:
  6625                           	opt callstack 25
  6626  00332E                     
  6627                           ;timer.c: 38:  unsigned char sec = i2c_read(104, 0x00);
  6628  00332E  0E00               	movlw	0
  6629  003330  0100               	movlb	0	; () banked
  6630  003332  6F60               	movwf	i2c_read@registers& (0+255),b
  6631  003334  0E68               	movlw	104
  6632  003336  ECAB  F010         	call	_i2c_read
  6633  00333A  0100               	movlb	0	; () banked
  6634  00333C  6F68               	movwf	get_seconds@sec& (0+255),b
  6635  00333E                     
  6636                           ; BSR set to: 0
  6637                           ;timer.c: 41:  return (sec&0x0f)+(((sec>>4)&0x07)*10);
  6638  00333E  C068  F067         	movff	get_seconds@sec,??_get_seconds
  6639  003342  0E0F               	movlw	15
  6640  003344  1767               	andwf	??_get_seconds& (0+255),f,b
  6641  003346  3968               	swapf	get_seconds@sec& (0+255),w,b
  6642  003348  0B0F               	andlw	15
  6643  00334A  0B07               	andlw	7
  6644  00334C  0D0A               	mullw	10
  6645  00334E  50F3               	movf	243,w,c
  6646  003350  2567               	addwf	??_get_seconds& (0+255),w,b
  6647  003352                     
  6648                           ; BSR set to: 0
  6649  003352  0012               	return		;funcret
  6650  003354                     __end_of_get_seconds:
  6651                           	opt callstack 0
  6652                           
  6653 ;; *************** function _get_minutes *****************
  6654 ;; Defined at:
  6655 ;;		line 67 in file "timer.c"
  6656 ;; Parameters:    Size  Location     Type
  6657 ;;		None
  6658 ;; Auto vars:     Size  Location     Type
  6659 ;;  min             1    8[BANK0 ] unsigned char 
  6660 ;; Return value:  Size  Location     Type
  6661 ;;                  1    wreg      unsigned char 
  6662 ;; Registers used:
  6663 ;;		wreg, status,2, status,0, prodl, prodh, cstack
  6664 ;; Tracked objects:
  6665 ;;		On entry : 0/0
  6666 ;;		On exit  : 0/0
  6667 ;;		Unchanged: 0/0
  6668 ;; Data sizes:     COMRAM   BANK0   BANK1   BANK2   BANK3   BANK4   BANK5   BANK6   BANK7
  6669 ;;      Params:         0       0       0       0       0       0       0       0       0
  6670 ;;      Locals:         0       1       0       0       0       0       0       0       0
  6671 ;;      Temps:          0       1       0       0       0       0       0       0       0
  6672 ;;      Totals:         0       2       0       0       0       0       0       0       0
  6673 ;;Total ram usage:        2 bytes
  6674 ;; Hardware stack levels used:    1
  6675 ;; Hardware stack levels required when called:    4
  6676 ;; This function calls:
  6677 ;;		_i2c_read
  6678 ;; This function is called by:
  6679 ;;		_lcdprint
  6680 ;; This function uses a non-reentrant model
  6681 ;;
  6682                           
  6683                           	psect	text33
  6684  003354                     __ptext33:
  6685                           	opt callstack 0
  6686  003354                     _get_minutes:
  6687                           	opt callstack 25
  6688  003354                     
  6689                           ;timer.c: 68:  unsigned char min = i2c_read(104, 0x01);
  6690  003354  0E01               	movlw	1
  6691  003356  0100               	movlb	0	; () banked
  6692  003358  6F60               	movwf	i2c_read@registers& (0+255),b
  6693  00335A  0E68               	movlw	104
  6694  00335C  ECAB  F010         	call	_i2c_read
  6695  003360  0100               	movlb	0	; () banked
  6696  003362  6F68               	movwf	get_minutes@min& (0+255),b
  6697  003364                     
  6698                           ; BSR set to: 0
  6699                           ;timer.c: 71:  return (min&0x0f)+((min >> 4)*10);
  6700  003364  C068  F067         	movff	get_minutes@min,??_get_minutes
  6701  003368  0E0F               	movlw	15
  6702  00336A  1767               	andwf	??_get_minutes& (0+255),f,b
  6703  00336C  3968               	swapf	get_minutes@min& (0+255),w,b
  6704  00336E  0B0F               	andlw	15
  6705  003370  0D0A               	mullw	10
  6706  003372  50F3               	movf	243,w,c
  6707  003374  2567               	addwf	??_get_minutes& (0+255),w,b
  6708  003376                     
  6709                           ; BSR set to: 0
  6710  003376  0012               	return		;funcret
  6711  003378                     __end_of_get_minutes:
  6712                           	opt callstack 0
  6713                           
  6714 ;; *************** function _i2c_read *****************
  6715 ;; Defined at:
  6716 ;;		line 36 in file "i2c.c"
  6717 ;; Parameters:    Size  Location     Type
  6718 ;;  address         1    wreg     unsigned char 
  6719 ;;  registers       1    0[BANK0 ] unsigned char 
  6720 ;; Auto vars:     Size  Location     Type
  6721 ;;  address         1    6[BANK0 ] unsigned char 
  6722 ;;  num             4    1[BANK0 ] unsigned long 
  6723 ;;  read            1    5[BANK0 ] unsigned char 
  6724 ;; Return value:  Size  Location     Type
  6725 ;;                  1    wreg      unsigned char 
  6726 ;; Registers used:
  6727 ;;		wreg, status,2, status,0
  6728 ;; Tracked objects:
  6729 ;;		On entry : 0/0
  6730 ;;		On exit  : 0/0
  6731 ;;		Unchanged: 0/0
  6732 ;; Data sizes:     COMRAM   BANK0   BANK1   BANK2   BANK3   BANK4   BANK5   BANK6   BANK7
  6733 ;;      Params:         0       1       0       0       0       0       0       0       0
  6734 ;;      Locals:         0       6       0       0       0       0       0       0       0
  6735 ;;      Temps:          0       0       0       0       0       0       0       0       0
  6736 ;;      Totals:         0       7       0       0       0       0       0       0       0
  6737 ;;Total ram usage:        7 bytes
  6738 ;; Hardware stack levels used:    1
  6739 ;; Hardware stack levels required when called:    3
  6740 ;; This function calls:
  6741 ;;		Nothing
  6742 ;; This function is called by:
  6743 ;;		_rtc_init
  6744 ;;		_get_seconds
  6745 ;;		_set_seconds
  6746 ;;		_get_minutes
  6747 ;;		_get_hours
  6748 ;;		_set_hours
  6749 ;;		_get_dayname
  6750 ;;		_get_months
  6751 ;;		_get_days
  6752 ;;		_get_years
  6753 ;;		_get_Aseconds
  6754 ;;		_get_Aminutes
  6755 ;;		_get_Ahours
  6756 ;;		_set_Ahours
  6757 ;; This function uses a non-reentrant model
  6758 ;;
  6759                           
  6760                           	psect	text34
  6761  002156                     __ptext34:
  6762                           	opt callstack 0
  6763  002156                     _i2c_read:
  6764                           	opt callstack 26
  6765                           
  6766                           ; BSR set to: 0
  6767                           ;incstack = 0
  6768                           ;i2c_read@address stored from wreg
  6769  002156  0100               	movlb	0	; () banked
  6770  002158  6F66               	movwf	i2c_read@address& (0+255),b
  6771  00215A                     
  6772                           ;i2c.c: 37:  SSP1CON2bits.SEN = 1;
  6773  00215A  8096               	bsf	150,0,c	;volatile
  6774  00215C                     l357:
  6775  00215C  B096               	btfsc	150,0,c	;volatile
  6776  00215E  EFB3  F010         	goto	u2771
  6777  002162  EFB5  F010         	goto	u2770
  6778  002166                     u2771:
  6779  002166  EFAE  F010         	goto	l357
  6780  00216A                     u2770:
  6781  00216A                     
  6782                           ;i2c.c: 40:  SSP1BUF = (address << 1) & 0xfe;
  6783  00216A  0100               	movlb	0	; () banked
  6784  00216C  5166               	movf	i2c_read@address& (0+255),w,b
  6785  00216E  2566               	addwf	i2c_read@address& (0+255),w,b
  6786  002170  0BFE               	andlw	254
  6787  002172  6E91               	movwf	145,c	;volatile
  6788  002174                     l360:
  6789  002174  B494               	btfsc	148,2,c	;volatile
  6790  002176  EFBF  F010         	goto	u2781
  6791  00217A  EFC1  F010         	goto	u2780
  6792  00217E                     u2781:
  6793  00217E  EFBA  F010         	goto	l360
  6794  002182                     u2780:
  6795  002182                     
  6796                           ;i2c.c: 45:  if (SSP1CON2bits.ACKSTAT == 1) {
  6797  002182  AC96               	btfss	150,6,c	;volatile
  6798  002184  EFC6  F010         	goto	u2791
  6799  002188  EFC8  F010         	goto	u2790
  6800  00218C                     u2791:
  6801  00218C  EFD3  F010         	goto	l363
  6802  002190                     u2790:
  6803  002190                     
  6804                           ;i2c.c: 46:   SSP1CON2bits.PEN = 1;
  6805  002190  8496               	bsf	150,2,c	;volatile
  6806  002192                     l364:
  6807  002192  B496               	btfsc	150,2,c	;volatile
  6808  002194  EFCE  F010         	goto	u2801
  6809  002198  EFD0  F010         	goto	u2800
  6810  00219C                     u2801:
  6811  00219C  EFC9  F010         	goto	l364
  6812  0021A0                     u2800:
  6813  0021A0                     l3316:
  6814                           
  6815                           ;i2c.c: 48:   return 0;
  6816  0021A0  0E00               	movlw	0
  6817  0021A2  EF53  F011         	goto	l367
  6818  0021A6                     l363:
  6819                           
  6820                           ;i2c.c: 51:  SSP1BUF = registers;
  6821  0021A6  C060  FF91         	movff	i2c_read@registers,3985	;volatile
  6822  0021AA                     l368:
  6823  0021AA  B494               	btfsc	148,2,c	;volatile
  6824  0021AC  EFDA  F010         	goto	u2811
  6825  0021B0  EFDC  F010         	goto	u2810
  6826  0021B4                     u2811:
  6827  0021B4  EFD5  F010         	goto	l368
  6828  0021B8                     u2810:
  6829  0021B8                     
  6830                           ;i2c.c: 56:  if (SSP1CON2bits.ACKSTAT == 1) {
  6831  0021B8  AC96               	btfss	150,6,c	;volatile
  6832  0021BA  EFE1  F010         	goto	u2821
  6833  0021BE  EFE3  F010         	goto	u2820
  6834  0021C2                     u2821:
  6835  0021C2  EFED  F010         	goto	l371
  6836  0021C6                     u2820:
  6837  0021C6                     
  6838                           ;i2c.c: 57:   SSP1CON2bits.PEN = 1;
  6839  0021C6  8496               	bsf	150,2,c	;volatile
  6840  0021C8                     l372:
  6841  0021C8  B496               	btfsc	150,2,c	;volatile
  6842  0021CA  EFE9  F010         	goto	u2831
  6843  0021CE  EFEB  F010         	goto	u2830
  6844  0021D2                     u2831:
  6845  0021D2  EFE4  F010         	goto	l372
  6846  0021D6                     u2830:
  6847  0021D6  EFD0  F010         	goto	l3316
  6848  0021DA                     l371:
  6849                           
  6850                           ;i2c.c: 63:  SSP1CON2bits.RSEN = 1;
  6851  0021DA  8296               	bsf	150,1,c	;volatile
  6852  0021DC                     l375:
  6853  0021DC  B296               	btfsc	150,1,c	;volatile
  6854  0021DE  EFF3  F010         	goto	u2841
  6855  0021E2  EFF5  F010         	goto	u2840
  6856  0021E6                     u2841:
  6857  0021E6  EFEE  F010         	goto	l375
  6858  0021EA                     u2840:
  6859  0021EA                     
  6860                           ;i2c.c: 66:  SSP1BUF = (address << 1) | 0x01;
  6861  0021EA  80D8               	bsf	status,0,c
  6862  0021EC  0100               	movlb	0	; () banked
  6863  0021EE  3566               	rlcf	i2c_read@address& (0+255),w,b
  6864  0021F0  6E91               	movwf	145,c	;volatile
  6865  0021F2                     l378:
  6866  0021F2  B494               	btfsc	148,2,c	;volatile
  6867  0021F4  EFFE  F010         	goto	u2851
  6868  0021F8  EF00  F011         	goto	u2850
  6869  0021FC                     u2851:
  6870  0021FC  EFF9  F010         	goto	l378
  6871  002200                     u2850:
  6872  002200                     
  6873                           ;i2c.c: 70:  if (SSP1CON2bits.ACKSTAT == 1) {
  6874  002200  AC96               	btfss	150,6,c	;volatile
  6875  002202  EF05  F011         	goto	u2861
  6876  002206  EF07  F011         	goto	u2860
  6877  00220A                     u2861:
  6878  00220A  EF11  F011         	goto	l381
  6879  00220E                     u2860:
  6880  00220E                     
  6881                           ;i2c.c: 71:   SSP1CON2bits.PEN = 1;
  6882  00220E  8496               	bsf	150,2,c	;volatile
  6883  002210                     l382:
  6884  002210  B496               	btfsc	150,2,c	;volatile
  6885  002212  EF0D  F011         	goto	u2871
  6886  002216  EF0F  F011         	goto	u2870
  6887  00221A                     u2871:
  6888  00221A  EF08  F011         	goto	l382
  6889  00221E                     u2870:
  6890  00221E  EFD0  F010         	goto	l3316
  6891  002222                     l381:
  6892                           
  6893                           ;i2c.c: 76:  SSP1CON2bits.RCEN = 1;
  6894  002222  8696               	bsf	150,3,c	;volatile
  6895  002224                     
  6896                           ;i2c.c: 78:  unsigned long num = 10000L;
  6897  002224  0E10               	movlw	16
  6898  002226  0100               	movlb	0	; () banked
  6899  002228  6F61               	movwf	i2c_read@num& (0+255),b
  6900  00222A  0E27               	movlw	39
  6901  00222C  6F62               	movwf	(i2c_read@num+1)& (0+255),b
  6902  00222E  0E00               	movlw	0
  6903  002230  6F63               	movwf	(i2c_read@num+2)& (0+255),b
  6904  002232  0E00               	movlw	0
  6905  002234  6F64               	movwf	(i2c_read@num+3)& (0+255),b
  6906                           
  6907                           ;i2c.c: 79:  while (SSP1STATbits.BF == 0) {
  6908  002236  EF37  F011         	goto	l385
  6909  00223A                     l3336:
  6910                           
  6911                           ; BSR set to: 0
  6912                           ;i2c.c: 80:         if (--num == 0) {
  6913  00223A  0761               	decf	i2c_read@num& (0+255),f,b
  6914  00223C  0E00               	movlw	0
  6915  00223E  5B62               	subwfb	(i2c_read@num+1)& (0+255),f,b
  6916  002240  5B63               	subwfb	(i2c_read@num+2)& (0+255),f,b
  6917  002242  5B64               	subwfb	(i2c_read@num+3)& (0+255),f,b
  6918  002244  5161               	movf	i2c_read@num& (0+255),w,b
  6919  002246  1162               	iorwf	(i2c_read@num+1)& (0+255),w,b
  6920  002248  1163               	iorwf	(i2c_read@num+2)& (0+255),w,b
  6921  00224A  1164               	iorwf	(i2c_read@num+3)& (0+255),w,b
  6922  00224C  A4D8               	btfss	status,2,c
  6923  00224E  EF2B  F011         	goto	u2881
  6924  002252  EF2D  F011         	goto	u2880
  6925  002256                     u2881:
  6926  002256  EF37  F011         	goto	l385
  6927  00225A                     u2880:
  6928  00225A                     
  6929                           ; BSR set to: 0
  6930                           ;i2c.c: 81:             SSP1CON2bits.PEN = 1;
  6931  00225A  8496               	bsf	150,2,c	;volatile
  6932  00225C                     l388:
  6933  00225C  B496               	btfsc	150,2,c	;volatile
  6934  00225E  EF33  F011         	goto	u2891
  6935  002262  EF35  F011         	goto	u2890
  6936  002266                     u2891:
  6937  002266  EF2E  F011         	goto	l388
  6938  00226A                     u2890:
  6939  00226A  EFD0  F010         	goto	l3316
  6940  00226E                     l385:
  6941                           
  6942                           ; BSR set to: 0
  6943                           ;i2c.c: 79:  while (SSP1STATbits.BF == 0) {
  6944  00226E  A094               	btfss	148,0,c	;volatile
  6945  002270  EF3C  F011         	goto	u2901
  6946  002274  EF3E  F011         	goto	u2900
  6947  002278                     u2901:
  6948  002278  EF1D  F011         	goto	l3336
  6949  00227C                     u2900:
  6950  00227C                     
  6951                           ; BSR set to: 0
  6952                           ;i2c.c: 87:  unsigned char read = SSP1BUF;
  6953  00227C  CF91 F065          	movff	3985,i2c_read@read	;volatile
  6954                           
  6955                           ;i2c.c: 90:  SSP1CON2bits.ACKDT = 1;
  6956  002280  8A96               	bsf	150,5,c	;volatile
  6957                           
  6958                           ;i2c.c: 91:  SSP1CON2bits.ACKEN = 1;
  6959  002282  8896               	bsf	150,4,c	;volatile
  6960  002284                     l392:
  6961  002284  B896               	btfsc	150,4,c	;volatile
  6962  002286  EF47  F011         	goto	u2911
  6963  00228A  EF49  F011         	goto	u2910
  6964  00228E                     u2911:
  6965  00228E  EF42  F011         	goto	l392
  6966  002292                     u2910:
  6967  002292                     
  6968                           ;i2c.c: 94:  SSP1CON2bits.PEN = 1;
  6969  002292  8496               	bsf	150,2,c	;volatile
  6970  002294                     l395:
  6971  002294  B496               	btfsc	150,2,c	;volatile
  6972  002296  EF4F  F011         	goto	u2921
  6973  00229A  EF51  F011         	goto	u2920
  6974  00229E                     u2921:
  6975  00229E  EF4A  F011         	goto	l395
  6976  0022A2                     u2920:
  6977  0022A2                     
  6978                           ;i2c.c: 97:  return read;
  6979  0022A2  0100               	movlb	0	; () banked
  6980  0022A4  5165               	movf	i2c_read@read& (0+255),w,b
  6981  0022A6                     l367:
  6982  0022A6  0012               	return		;funcret
  6983  0022A8                     __end_of_i2c_read:
  6984                           	opt callstack 0
  6985                           
  6986 ;; *************** function ___awmod *****************
  6987 ;; Defined at:
  6988 ;;		line 7 in file "C:\Program Files (x86)\Microchip\xc8\v2.10\pic\sources\c99\common\awmod.c"
  6989 ;; Parameters:    Size  Location     Type
  6990 ;;  dividend        2    8[BANK0 ] int 
  6991 ;;  divisor         2   10[BANK0 ] int 
  6992 ;; Auto vars:     Size  Location     Type
  6993 ;;  sign            1   13[BANK0 ] unsigned char 
  6994 ;;  counter         1   12[BANK0 ] unsigned char 
  6995 ;; Return value:  Size  Location     Type
  6996 ;;                  2    8[BANK0 ] int 
  6997 ;; Registers used:
  6998 ;;		wreg, status,2, status,0
  6999 ;; Tracked objects:
  7000 ;;		On entry : 0/0
  7001 ;;		On exit  : 0/0
  7002 ;;		Unchanged: 0/0
  7003 ;; Data sizes:     COMRAM   BANK0   BANK1   BANK2   BANK3   BANK4   BANK5   BANK6   BANK7
  7004 ;;      Params:         0       4       0       0       0       0       0       0       0
  7005 ;;      Locals:         0       2       0       0       0       0       0       0       0
  7006 ;;      Temps:          0       0       0       0       0       0       0       0       0
  7007 ;;      Totals:         0       6       0       0       0       0       0       0       0
  7008 ;;Total ram usage:        6 bytes
  7009 ;; Hardware stack levels used:    1
  7010 ;; Hardware stack levels required when called:    3
  7011 ;; This function calls:
  7012 ;;		Nothing
  7013 ;; This function is called by:
  7014 ;;		_lcdprint
  7015 ;;		_set_seconds
  7016 ;;		_set_minutes
  7017 ;;		_set_hours
  7018 ;;		_set_months
  7019 ;;		_set_days
  7020 ;;		_set_years
  7021 ;;		_set_Aseconds
  7022 ;;		_set_Aminutes
  7023 ;;		_set_Ahours
  7024 ;; This function uses a non-reentrant model
  7025 ;;
  7026                           
  7027                           	psect	text35
  7028  002B5C                     __ptext35:
  7029                           	opt callstack 0
  7030  002B5C                     ___awmod:
  7031                           	opt callstack 26
  7032  002B5C  0E00               	movlw	0
  7033  002B5E  0100               	movlb	0	; () banked
  7034  002B60  6F6D               	movwf	___awmod@sign& (0+255),b
  7035  002B62                     
  7036                           ; BSR set to: 0
  7037  002B62  BF69               	btfsc	(___awmod@dividend+1)& (0+255),7,b
  7038  002B64  EFB8  F015         	goto	u3000
  7039  002B68  EFB6  F015         	goto	u3001
  7040  002B6C                     u3001:
  7041  002B6C  EFBE  F015         	goto	l3520
  7042  002B70                     u3000:
  7043  002B70                     
  7044                           ; BSR set to: 0
  7045  002B70  6D68               	negf	___awmod@dividend& (0+255),b
  7046  002B72  1F69               	comf	(___awmod@dividend+1)& (0+255),f,b
  7047  002B74  B0D8               	btfsc	status,0,c
  7048  002B76  2B69               	incf	(___awmod@dividend+1)& (0+255),f,b
  7049  002B78                     
  7050                           ; BSR set to: 0
  7051  002B78  0E01               	movlw	1
  7052  002B7A  6F6D               	movwf	___awmod@sign& (0+255),b
  7053  002B7C                     l3520:
  7054                           
  7055                           ; BSR set to: 0
  7056  002B7C  BF6B               	btfsc	(___awmod@divisor+1)& (0+255),7,b
  7057  002B7E  EFC5  F015         	goto	u3010
  7058  002B82  EFC3  F015         	goto	u3011
  7059  002B86                     u3011:
  7060  002B86  EFC9  F015         	goto	l3524
  7061  002B8A                     u3010:
  7062  002B8A                     
  7063                           ; BSR set to: 0
  7064  002B8A  6D6A               	negf	___awmod@divisor& (0+255),b
  7065  002B8C  1F6B               	comf	(___awmod@divisor+1)& (0+255),f,b
  7066  002B8E  B0D8               	btfsc	status,0,c
  7067  002B90  2B6B               	incf	(___awmod@divisor+1)& (0+255),f,b
  7068  002B92                     l3524:
  7069                           
  7070                           ; BSR set to: 0
  7071  002B92  516A               	movf	___awmod@divisor& (0+255),w,b
  7072  002B94  116B               	iorwf	(___awmod@divisor+1)& (0+255),w,b
  7073  002B96  B4D8               	btfsc	status,2,c
  7074  002B98  EFD0  F015         	goto	u3021
  7075  002B9C  EFD2  F015         	goto	u3020
  7076  002BA0                     u3021:
  7077  002BA0  EFF6  F015         	goto	l3540
  7078  002BA4                     u3020:
  7079  002BA4                     
  7080                           ; BSR set to: 0
  7081  002BA4  0E01               	movlw	1
  7082  002BA6  6F6C               	movwf	___awmod@counter& (0+255),b
  7083  002BA8  EFDA  F015         	goto	l3530
  7084  002BAC                     l3528:
  7085                           
  7086                           ; BSR set to: 0
  7087  002BAC  90D8               	bcf	status,0,c
  7088  002BAE  376A               	rlcf	___awmod@divisor& (0+255),f,b
  7089  002BB0  376B               	rlcf	(___awmod@divisor+1)& (0+255),f,b
  7090  002BB2  2B6C               	incf	___awmod@counter& (0+255),f,b
  7091  002BB4                     l3530:
  7092                           
  7093                           ; BSR set to: 0
  7094  002BB4  AF6B               	btfss	(___awmod@divisor+1)& (0+255),7,b
  7095  002BB6  EFDF  F015         	goto	u3031
  7096  002BBA  EFE1  F015         	goto	u3030
  7097  002BBE                     u3031:
  7098  002BBE  EFD6  F015         	goto	l3528
  7099  002BC2                     u3030:
  7100  002BC2                     l3532:
  7101                           
  7102                           ; BSR set to: 0
  7103  002BC2  516A               	movf	___awmod@divisor& (0+255),w,b
  7104  002BC4  5D68               	subwf	___awmod@dividend& (0+255),w,b
  7105  002BC6  516B               	movf	(___awmod@divisor+1)& (0+255),w,b
  7106  002BC8  5969               	subwfb	(___awmod@dividend+1)& (0+255),w,b
  7107  002BCA  A0D8               	btfss	status,0,c
  7108  002BCC  EFEA  F015         	goto	u3041
  7109  002BD0  EFEC  F015         	goto	u3040
  7110  002BD4                     u3041:
  7111  002BD4  EFF0  F015         	goto	l3536
  7112  002BD8                     u3040:
  7113  002BD8                     
  7114                           ; BSR set to: 0
  7115  002BD8  516A               	movf	___awmod@divisor& (0+255),w,b
  7116  002BDA  5F68               	subwf	___awmod@dividend& (0+255),f,b
  7117  002BDC  516B               	movf	(___awmod@divisor+1)& (0+255),w,b
  7118  002BDE  5B69               	subwfb	(___awmod@dividend+1)& (0+255),f,b
  7119  002BE0                     l3536:
  7120                           
  7121                           ; BSR set to: 0
  7122  002BE0  90D8               	bcf	status,0,c
  7123  002BE2  336B               	rrcf	(___awmod@divisor+1)& (0+255),f,b
  7124  002BE4  336A               	rrcf	___awmod@divisor& (0+255),f,b
  7125  002BE6                     
  7126                           ; BSR set to: 0
  7127  002BE6  2F6C               	decfsz	___awmod@counter& (0+255),f,b
  7128  002BE8  EFE1  F015         	goto	l3532
  7129  002BEC                     l3540:
  7130                           
  7131                           ; BSR set to: 0
  7132  002BEC  516D               	movf	___awmod@sign& (0+255),w,b
  7133  002BEE  B4D8               	btfsc	status,2,c
  7134  002BF0  EFFC  F015         	goto	u3051
  7135  002BF4  EFFE  F015         	goto	u3050
  7136  002BF8                     u3051:
  7137  002BF8  EF02  F016         	goto	l3544
  7138  002BFC                     u3050:
  7139  002BFC                     
  7140                           ; BSR set to: 0
  7141  002BFC  6D68               	negf	___awmod@dividend& (0+255),b
  7142  002BFE  1F69               	comf	(___awmod@dividend+1)& (0+255),f,b
  7143  002C00  B0D8               	btfsc	status,0,c
  7144  002C02  2B69               	incf	(___awmod@dividend+1)& (0+255),f,b
  7145  002C04                     l3544:
  7146                           
  7147                           ; BSR set to: 0
  7148  002C04  C068  F068         	movff	___awmod@dividend,?___awmod
  7149  002C08  C069  F069         	movff	___awmod@dividend+1,?___awmod+1
  7150  002C0C                     
  7151                           ; BSR set to: 0
  7152  002C0C  0012               	return		;funcret
  7153  002C0E                     __end_of___awmod:
  7154                           	opt callstack 0
  7155                           
  7156 ;; *************** function ___awdiv *****************
  7157 ;; Defined at:
  7158 ;;		line 7 in file "C:\Program Files (x86)\Microchip\xc8\v2.10\pic\sources\c99\common\awdiv.c"
  7159 ;; Parameters:    Size  Location     Type
  7160 ;;  dividend        2    0[BANK0 ] int 
  7161 ;;  divisor         2    2[BANK0 ] int 
  7162 ;; Auto vars:     Size  Location     Type
  7163 ;;  quotient        2    6[BANK0 ] int 
  7164 ;;  sign            1    5[BANK0 ] unsigned char 
  7165 ;;  counter         1    4[BANK0 ] unsigned char 
  7166 ;; Return value:  Size  Location     Type
  7167 ;;                  2    0[BANK0 ] int 
  7168 ;; Registers used:
  7169 ;;		wreg, status,2, status,0
  7170 ;; Tracked objects:
  7171 ;;		On entry : 0/0
  7172 ;;		On exit  : 0/0
  7173 ;;		Unchanged: 0/0
  7174 ;; Data sizes:     COMRAM   BANK0   BANK1   BANK2   BANK3   BANK4   BANK5   BANK6   BANK7
  7175 ;;      Params:         0       4       0       0       0       0       0       0       0
  7176 ;;      Locals:         0       4       0       0       0       0       0       0       0
  7177 ;;      Temps:          0       0       0       0       0       0       0       0       0
  7178 ;;      Totals:         0       8       0       0       0       0       0       0       0
  7179 ;;Total ram usage:        8 bytes
  7180 ;; Hardware stack levels used:    1
  7181 ;; Hardware stack levels required when called:    3
  7182 ;; This function calls:
  7183 ;;		Nothing
  7184 ;; This function is called by:
  7185 ;;		_lcdprint
  7186 ;;		_set_seconds
  7187 ;;		_set_minutes
  7188 ;;		_set_hours
  7189 ;;		_set_months
  7190 ;;		_set_days
  7191 ;;		_set_years
  7192 ;;		_set_Aseconds
  7193 ;;		_set_Aminutes
  7194 ;;		_set_Ahours
  7195 ;; This function uses a non-reentrant model
  7196 ;;
  7197                           
  7198                           	psect	text36
  7199  002A96                     __ptext36:
  7200                           	opt callstack 0
  7201  002A96                     ___awdiv:
  7202                           	opt callstack 26
  7203  002A96  0E00               	movlw	0
  7204  002A98  0100               	movlb	0	; () banked
  7205  002A9A  6F65               	movwf	___awdiv@sign& (0+255),b
  7206  002A9C                     
  7207                           ; BSR set to: 0
  7208  002A9C  BF63               	btfsc	(___awdiv@divisor+1)& (0+255),7,b
  7209  002A9E  EF55  F015         	goto	u2940
  7210  002AA2  EF53  F015         	goto	u2941
  7211  002AA6                     u2941:
  7212  002AA6  EF5B  F015         	goto	l3476
  7213  002AAA                     u2940:
  7214  002AAA                     
  7215                           ; BSR set to: 0
  7216  002AAA  6D62               	negf	___awdiv@divisor& (0+255),b
  7217  002AAC  1F63               	comf	(___awdiv@divisor+1)& (0+255),f,b
  7218  002AAE  B0D8               	btfsc	status,0,c
  7219  002AB0  2B63               	incf	(___awdiv@divisor+1)& (0+255),f,b
  7220  002AB2                     
  7221                           ; BSR set to: 0
  7222  002AB2  0E01               	movlw	1
  7223  002AB4  6F65               	movwf	___awdiv@sign& (0+255),b
  7224  002AB6                     l3476:
  7225                           
  7226                           ; BSR set to: 0
  7227  002AB6  BF61               	btfsc	(___awdiv@dividend+1)& (0+255),7,b
  7228  002AB8  EF62  F015         	goto	u2950
  7229  002ABC  EF60  F015         	goto	u2951
  7230  002AC0                     u2951:
  7231  002AC0  EF68  F015         	goto	l3482
  7232  002AC4                     u2950:
  7233  002AC4                     
  7234                           ; BSR set to: 0
  7235  002AC4  6D60               	negf	___awdiv@dividend& (0+255),b
  7236  002AC6  1F61               	comf	(___awdiv@dividend+1)& (0+255),f,b
  7237  002AC8  B0D8               	btfsc	status,0,c
  7238  002ACA  2B61               	incf	(___awdiv@dividend+1)& (0+255),f,b
  7239  002ACC                     
  7240                           ; BSR set to: 0
  7241  002ACC  0E01               	movlw	1
  7242  002ACE  1B65               	xorwf	___awdiv@sign& (0+255),f,b
  7243  002AD0                     l3482:
  7244                           
  7245                           ; BSR set to: 0
  7246  002AD0  0E00               	movlw	0
  7247  002AD2  6F67               	movwf	(___awdiv@quotient+1)& (0+255),b
  7248  002AD4  0E00               	movlw	0
  7249  002AD6  6F66               	movwf	___awdiv@quotient& (0+255),b
  7250  002AD8                     
  7251                           ; BSR set to: 0
  7252  002AD8  5162               	movf	___awdiv@divisor& (0+255),w,b
  7253  002ADA  1163               	iorwf	(___awdiv@divisor+1)& (0+255),w,b
  7254  002ADC  B4D8               	btfsc	status,2,c
  7255  002ADE  EF73  F015         	goto	u2961
  7256  002AE2  EF75  F015         	goto	u2960
  7257  002AE6                     u2961:
  7258  002AE6  EF9D  F015         	goto	l3504
  7259  002AEA                     u2960:
  7260  002AEA                     
  7261                           ; BSR set to: 0
  7262  002AEA  0E01               	movlw	1
  7263  002AEC  6F64               	movwf	___awdiv@counter& (0+255),b
  7264  002AEE  EF7D  F015         	goto	l3490
  7265  002AF2                     l3488:
  7266                           
  7267                           ; BSR set to: 0
  7268  002AF2  90D8               	bcf	status,0,c
  7269  002AF4  3762               	rlcf	___awdiv@divisor& (0+255),f,b
  7270  002AF6  3763               	rlcf	(___awdiv@divisor+1)& (0+255),f,b
  7271  002AF8  2B64               	incf	___awdiv@counter& (0+255),f,b
  7272  002AFA                     l3490:
  7273                           
  7274                           ; BSR set to: 0
  7275  002AFA  AF63               	btfss	(___awdiv@divisor+1)& (0+255),7,b
  7276  002AFC  EF82  F015         	goto	u2971
  7277  002B00  EF84  F015         	goto	u2970
  7278  002B04                     u2971:
  7279  002B04  EF79  F015         	goto	l3488
  7280  002B08                     u2970:
  7281  002B08                     l3492:
  7282                           
  7283                           ; BSR set to: 0
  7284  002B08  90D8               	bcf	status,0,c
  7285  002B0A  3766               	rlcf	___awdiv@quotient& (0+255),f,b
  7286  002B0C  3767               	rlcf	(___awdiv@quotient+1)& (0+255),f,b
  7287  002B0E                     
  7288                           ; BSR set to: 0
  7289  002B0E  5162               	movf	___awdiv@divisor& (0+255),w,b
  7290  002B10  5D60               	subwf	___awdiv@dividend& (0+255),w,b
  7291  002B12  5163               	movf	(___awdiv@divisor+1)& (0+255),w,b
  7292  002B14  5961               	subwfb	(___awdiv@dividend+1)& (0+255),w,b
  7293  002B16  A0D8               	btfss	status,0,c
  7294  002B18  EF90  F015         	goto	u2981
  7295  002B1C  EF92  F015         	goto	u2980
  7296  002B20                     u2981:
  7297  002B20  EF97  F015         	goto	l3500
  7298  002B24                     u2980:
  7299  002B24                     
  7300                           ; BSR set to: 0
  7301  002B24  5162               	movf	___awdiv@divisor& (0+255),w,b
  7302  002B26  5F60               	subwf	___awdiv@dividend& (0+255),f,b
  7303  002B28  5163               	movf	(___awdiv@divisor+1)& (0+255),w,b
  7304  002B2A  5B61               	subwfb	(___awdiv@dividend+1)& (0+255),f,b
  7305  002B2C                     
  7306                           ; BSR set to: 0
  7307  002B2C  8166               	bsf	___awdiv@quotient& (0+255),0,b
  7308  002B2E                     l3500:
  7309                           
  7310                           ; BSR set to: 0
  7311  002B2E  90D8               	bcf	status,0,c
  7312  002B30  3363               	rrcf	(___awdiv@divisor+1)& (0+255),f,b
  7313  002B32  3362               	rrcf	___awdiv@divisor& (0+255),f,b
  7314  002B34                     
  7315                           ; BSR set to: 0
  7316  002B34  2F64               	decfsz	___awdiv@counter& (0+255),f,b
  7317  002B36  EF84  F015         	goto	l3492
  7318  002B3A                     l3504:
  7319                           
  7320                           ; BSR set to: 0
  7321  002B3A  5165               	movf	___awdiv@sign& (0+255),w,b
  7322  002B3C  B4D8               	btfsc	status,2,c
  7323  002B3E  EFA3  F015         	goto	u2991
  7324  002B42  EFA5  F015         	goto	u2990
  7325  002B46                     u2991:
  7326  002B46  EFA9  F015         	goto	l3508
  7327  002B4A                     u2990:
  7328  002B4A                     
  7329                           ; BSR set to: 0
  7330  002B4A  6D66               	negf	___awdiv@quotient& (0+255),b
  7331  002B4C  1F67               	comf	(___awdiv@quotient+1)& (0+255),f,b
  7332  002B4E  B0D8               	btfsc	status,0,c
  7333  002B50  2B67               	incf	(___awdiv@quotient+1)& (0+255),f,b
  7334  002B52                     l3508:
  7335                           
  7336                           ; BSR set to: 0
  7337  002B52  C066  F060         	movff	___awdiv@quotient,?___awdiv
  7338  002B56  C067  F061         	movff	___awdiv@quotient+1,?___awdiv+1
  7339  002B5A                     
  7340                           ; BSR set to: 0
  7341  002B5A  0012               	return		;funcret
  7342  002B5C                     __end_of___awdiv:
  7343                           	opt callstack 0
  7344                           
  7345 ;; *************** function _forward *****************
  7346 ;; Defined at:
  7347 ;;		line 10 in file "movement.c"
  7348 ;; Parameters:    Size  Location     Type
  7349 ;;  gostop          2    0[BANK0 ] int 
  7350 ;; Auto vars:     Size  Location     Type
  7351 ;;		None
  7352 ;; Return value:  Size  Location     Type
  7353 ;;                  1    wreg      void 
  7354 ;; Registers used:
  7355 ;;		None
  7356 ;; Tracked objects:
  7357 ;;		On entry : 0/0
  7358 ;;		On exit  : 0/0
  7359 ;;		Unchanged: 0/0
  7360 ;; Data sizes:     COMRAM   BANK0   BANK1   BANK2   BANK3   BANK4   BANK5   BANK6   BANK7
  7361 ;;      Params:         0       2       0       0       0       0       0       0       0
  7362 ;;      Locals:         0       0       0       0       0       0       0       0       0
  7363 ;;      Temps:          0       0       0       0       0       0       0       0       0
  7364 ;;      Totals:         0       2       0       0       0       0       0       0       0
  7365 ;;Total ram usage:        2 bytes
  7366 ;; Hardware stack levels used:    1
  7367 ;; Hardware stack levels required when called:    3
  7368 ;; This function calls:
  7369 ;;		Nothing
  7370 ;; This function is called by:
  7371 ;;		_IRpath1
  7372 ;;		_main
  7373 ;; This function uses a non-reentrant model
  7374 ;;
  7375                           
  7376                           	psect	text37
  7377  0032AC                     __ptext37:
  7378                           	opt callstack 0
  7379  0032AC                     _forward:
  7380                           	opt callstack 27
  7381  0032AC  9090               	bcf	3984,0,c	;volatile
  7382                           
  7383                           ;movement.c: 12:     RC2=gostop;
  7384  0032AE  0100               	movlb	0	; () banked
  7385  0032B0  B160               	btfsc	forward@gostop& (0+255),0,b
  7386  0032B2  EF5D  F019         	goto	u3061
  7387  0032B6  EF60  F019         	goto	u3060
  7388  0032BA                     u3061:
  7389  0032BA  848E               	bsf	3982,2,c	;volatile
  7390  0032BC  EF61  F019         	goto	u3075
  7391  0032C0                     u3060:
  7392  0032C0  948E               	bcf	3982,2,c	;volatile
  7393  0032C2                     u3075:
  7394  0032C2  908E               	bcf	3982,0,c	;volatile
  7395                           
  7396                           ;movement.c: 14:     RC1=gostop;
  7397  0032C4  0100               	movlb	0	; () banked
  7398  0032C6  B160               	btfsc	forward@gostop& (0+255),0,b
  7399  0032C8  EF68  F019         	goto	u3081
  7400  0032CC  EF6B  F019         	goto	u3080
  7401  0032D0                     u3081:
  7402  0032D0  828E               	bsf	3982,1,c	;volatile
  7403  0032D2  EF6C  F019         	goto	u3095
  7404  0032D6                     u3080:
  7405  0032D6  928E               	bcf	3982,1,c	;volatile
  7406  0032D8                     u3095:
  7407  0032D8  0012               	return		;funcret
  7408  0032DA                     __end_of_forward:
  7409                           	opt callstack 0
  7410                           
  7411 ;; *************** function _backward *****************
  7412 ;; Defined at:
  7413 ;;		line 20 in file "movement.c"
  7414 ;; Parameters:    Size  Location     Type
  7415 ;;		None
  7416 ;; Auto vars:     Size  Location     Type
  7417 ;;		None
  7418 ;; Return value:  Size  Location     Type
  7419 ;;                  1    wreg      void 
  7420 ;; Registers used:
  7421 ;;		wreg, status,2
  7422 ;; Tracked objects:
  7423 ;;		On entry : 0/0
  7424 ;;		On exit  : 0/0
  7425 ;;		Unchanged: 0/0
  7426 ;; Data sizes:     COMRAM   BANK0   BANK1   BANK2   BANK3   BANK4   BANK5   BANK6   BANK7
  7427 ;;      Params:         0       0       0       0       0       0       0       0       0
  7428 ;;      Locals:         0       0       0       0       0       0       0       0       0
  7429 ;;      Temps:          0       2       0       0       0       0       0       0       0
  7430 ;;      Totals:         0       2       0       0       0       0       0       0       0
  7431 ;;Total ram usage:        2 bytes
  7432 ;; Hardware stack levels used:    1
  7433 ;; Hardware stack levels required when called:    3
  7434 ;; This function calls:
  7435 ;;		Nothing
  7436 ;; This function is called by:
  7437 ;;		_IRpath1
  7438 ;;		_main
  7439 ;; This function uses a non-reentrant model
  7440 ;;
  7441                           
  7442                           	psect	text38
  7443  0031CC                     __ptext38:
  7444                           	opt callstack 0
  7445  0031CC                     _backward:
  7446                           	opt callstack 27
  7447  0031CC                     
  7448                           ;movement.c: 21:     CCPR1H = 0x00;
  7449  0031CC  0E00               	movlw	0
  7450  0031CE  6EAA               	movwf	170,c	;volatile
  7451                           
  7452                           ;movement.c: 22:     CCPR1L = 0x50;
  7453  0031D0  0E50               	movlw	80
  7454  0031D2  6EA9               	movwf	169,c	;volatile
  7455                           
  7456                           ;movement.c: 23:     CCPR2H = 0x00;
  7457  0031D4  0E00               	movlw	0
  7458  0031D6  6EA6               	movwf	166,c	;volatile
  7459                           
  7460                           ;movement.c: 24:     CCPR2L = 0x50;
  7461  0031D8  0E50               	movlw	80
  7462  0031DA  6EA5               	movwf	165,c	;volatile
  7463  0031DC  948E               	bcf	3982,2,c	;volatile
  7464  0031DE  8090               	bsf	3984,0,c	;volatile
  7465  0031E0  928E               	bcf	3982,1,c	;volatile
  7466  0031E2  808E               	bsf	3982,0,c	;volatile
  7467  0031E4                     
  7468                           ;movement.c: 29:     _delay((unsigned long)((110)*(8000000/4000.0)));
  7469  0031E4  0E02               	movlw	2
  7470  0031E6  0100               	movlb	0	; () banked
  7471  0031E8  6F61               	movwf	(??_backward+1)& (0+255),b
  7472  0031EA  0E1E               	movlw	30
  7473  0031EC  6F60               	movwf	??_backward& (0+255),b
  7474  0031EE  0EB3               	movlw	179
  7475  0031F0                     u5417:
  7476  0031F0  2EE8               	decfsz	wreg,f,c
  7477  0031F2  D7FE               	bra	u5417
  7478  0031F4  2F60               	decfsz	??_backward& (0+255),f,b
  7479  0031F6  D7FC               	bra	u5417
  7480  0031F8  2F61               	decfsz	(??_backward+1)& (0+255),f,b
  7481  0031FA  D7FA               	bra	u5417
  7482  0031FC  D000               	nop2	
  7483  0031FE  948E               	bcf	3982,2,c	;volatile
  7484  003200  9090               	bcf	3984,0,c	;volatile
  7485  003202  928E               	bcf	3982,1,c	;volatile
  7486  003204  908E               	bcf	3982,0,c	;volatile
  7487  003206  0012               	return		;funcret
  7488  003208                     __end_of_backward:
  7489                           	opt callstack 0
  7490                           
  7491 ;; *************** function _echo *****************
  7492 ;; Defined at:
  7493 ;;		line 160 in file "senior_main.c"
  7494 ;; Parameters:    Size  Location     Type
  7495 ;;		None
  7496 ;; Auto vars:     Size  Location     Type
  7497 ;;		None
  7498 ;; Return value:  Size  Location     Type
  7499 ;;                  1    wreg      void 
  7500 ;; Registers used:
  7501 ;;		wreg, status,2, status,0, cstack
  7502 ;; Tracked objects:
  7503 ;;		On entry : 0/0
  7504 ;;		On exit  : 0/0
  7505 ;;		Unchanged: 0/0
  7506 ;; Data sizes:     COMRAM   BANK0   BANK1   BANK2   BANK3   BANK4   BANK5   BANK6   BANK7
  7507 ;;      Params:         0       0       0       0       0       0       0       0       0
  7508 ;;      Locals:         0       0       0       0       0       0       0       0       0
  7509 ;;      Temps:          0       0       0       0       0       0       0       0       0
  7510 ;;      Totals:         0       0       0       0       0       0       0       0       0
  7511 ;;Total ram usage:        0 bytes
  7512 ;; Hardware stack levels used:    1
  7513 ;; Hardware stack levels required when called:    2
  7514 ;; This function calls:
  7515 ;;		_IRL
  7516 ;;		_IRR
  7517 ;;		_us_irs
  7518 ;; This function is called by:
  7519 ;;		Interrupt level 2
  7520 ;; This function uses a non-reentrant model
  7521 ;;
  7522                           
  7523                           	psect	intcode
  7524  000008                     __pintcode:
  7525                           	opt callstack 0
  7526  000008                     _echo:
  7527                           	opt callstack 18
  7528                           
  7529                           ;incstack = 0
  7530  000008  8250               	bsf	int$flags,1,c	;set compiler interrupt flag (level 2)
  7531  00000A                     
  7532                           ;senior_main.c: 161:             IOCANbits.IOCAN2 = 0;
  7533  00000A  010F               	movlb	15	; () banked
  7534  00000C  A50D               	btfss	13,2,b	;volatile
  7535  00000E  EF0B  F000         	goto	i2u452_41
  7536  000012  EF0D  F000         	goto	i2u452_40
  7537  000016                     i2u452_41:
  7538  000016  EF13  F000         	goto	i2l4558
  7539  00001A                     i2u452_40:
  7540  00001A                     
  7541                           ; BSR set to: 15
  7542                           ;senior_main.c: 162:             IOCAFbits.IOCAF2 = 0;
  7543  00001A  950F               	bcf	15,2,b	;volatile
  7544  00001C                     
  7545                           ; BSR set to: 15
  7546                           ;senior_main.c: 163:         }
  7547  00001C  EC54  F011         	call	_us_irs	;wreg free
  7548  000020                     
  7549                           ;senior_main.c: 165:         IOCBNbits.IOCBN5 = 1;
  7550  000020  010F               	movlb	15	; () banked
  7551  000022  950D               	bcf	13,2,b	;volatile
  7552  000024                     
  7553                           ; BSR set to: 15
  7554                           ;senior_main.c: 166:         IOCANbits.IOCAN2 = 1;
  7555  000024  850F               	bsf	15,2,b	;volatile
  7556  000026                     i2l4558:
  7557                           
  7558                           ; BSR set to: 15
  7559                           ;senior_main.c: 171: 
  7560  000026  A90D               	btfss	13,4,b	;volatile
  7561  000028  EF18  F000         	goto	i2u453_41
  7562  00002C  EF1A  F000         	goto	i2u453_40
  7563  000030                     i2u453_41:
  7564  000030  EF28  F000         	goto	i2l223
  7565  000034                     i2u453_40:
  7566  000034                     
  7567                           ; BSR set to: 15
  7568  000034  A90E               	btfss	14,4,b	;volatile
  7569  000036  EF1F  F000         	goto	i2u454_41
  7570  00003A  EF21  F000         	goto	i2u454_40
  7571  00003E                     i2u454_41:
  7572  00003E  EF28  F000         	goto	i2l223
  7573  000042                     i2u454_40:
  7574  000042                     
  7575                           ; BSR set to: 15
  7576  000042  A50D               	btfss	13,2,b	;volatile
  7577  000044  EF26  F000         	goto	i2u455_41
  7578  000048  EF28  F000         	goto	i2u455_40
  7579  00004C                     i2u455_41:
  7580  00004C  EF3D  F000         	goto	i2l221
  7581  000050                     i2u455_40:
  7582  000050                     i2l223:
  7583                           
  7584                           ; BSR set to: 15
  7585  000050  A705               	btfss	5,3,b	;volatile
  7586  000052  EF2D  F000         	goto	i2u456_41
  7587  000056  EF2F  F000         	goto	i2u456_40
  7588  00005A                     i2u456_41:
  7589  00005A  EF64  F000         	goto	i2l4582
  7590  00005E                     i2u456_40:
  7591  00005E                     
  7592                           ; BSR set to: 15
  7593  00005E  A706               	btfss	6,3,b	;volatile
  7594  000060  EF34  F000         	goto	i2u457_41
  7595  000064  EF36  F000         	goto	i2u457_40
  7596  000068                     i2u457_41:
  7597  000068  EF64  F000         	goto	i2l4582
  7598  00006C                     i2u457_40:
  7599  00006C                     
  7600                           ; BSR set to: 15
  7601  00006C  B50D               	btfsc	13,2,b	;volatile
  7602  00006E  EF3B  F000         	goto	i2u458_41
  7603  000072  EF3D  F000         	goto	i2u458_40
  7604  000076                     i2u458_41:
  7605  000076  EF64  F000         	goto	i2l4582
  7606  00007A                     i2u458_40:
  7607  00007A                     i2l221:
  7608                           
  7609                           ; BSR set to: 15
  7610                           ;senior_main.c: 172: 
  7611  00007A  A90D               	btfss	13,4,b	;volatile
  7612  00007C  EF42  F000         	goto	i2u459_41
  7613  000080  EF44  F000         	goto	i2u459_40
  7614  000084                     i2u459_41:
  7615  000084  EF4F  F000         	goto	i2l224
  7616  000088                     i2u459_40:
  7617  000088                     
  7618                           ; BSR set to: 15
  7619  000088  A90E               	btfss	14,4,b	;volatile
  7620  00008A  EF49  F000         	goto	i2u460_41
  7621  00008E  EF4B  F000         	goto	i2u460_40
  7622  000092                     i2u460_41:
  7623  000092  EF4F  F000         	goto	i2l224
  7624  000096                     i2u460_40:
  7625  000096                     
  7626                           ; BSR set to: 15
  7627                           ;senior_main.c: 173: void pwm_init(){
  7628  000096  990E               	bcf	14,4,b	;volatile
  7629                           
  7630                           ;senior_main.c: 174:     RA4PPS = 0x07;
  7631  000098  990D               	bcf	13,4,b	;volatile
  7632                           
  7633                           ;senior_main.c: 175: 
  7634  00009A  EF5F  F000         	goto	i2l4576
  7635  00009E                     i2l224:
  7636                           
  7637                           ; BSR set to: 15
  7638  00009E  A705               	btfss	5,3,b	;volatile
  7639  0000A0  EF54  F000         	goto	i2u461_41
  7640  0000A4  EF56  F000         	goto	i2u461_40
  7641  0000A8                     i2u461_41:
  7642  0000A8  EF5F  F000         	goto	i2l4576
  7643  0000AC                     i2u461_40:
  7644  0000AC                     
  7645                           ; BSR set to: 15
  7646  0000AC  A706               	btfss	6,3,b	;volatile
  7647  0000AE  EF5B  F000         	goto	i2u462_41
  7648  0000B2  EF5D  F000         	goto	i2u462_40
  7649  0000B6                     i2u462_41:
  7650  0000B6  EF5F  F000         	goto	i2l4576
  7651  0000BA                     i2u462_40:
  7652  0000BA                     
  7653                           ; BSR set to: 15
  7654                           ;senior_main.c: 177:     OSCCON3 = 0x00;
  7655  0000BA  9706               	bcf	6,3,b	;volatile
  7656                           
  7657                           ;senior_main.c: 178: 
  7658  0000BC  9705               	bcf	5,3,b	;volatile
  7659  0000BE                     i2l4576:
  7660                           
  7661                           ; BSR set to: 15
  7662                           ;senior_main.c: 180: 
  7663  0000BE  EC51  F016         	call	_IRR	;wreg free
  7664  0000C2                     
  7665                           ;senior_main.c: 181:     OSCTUNE = 0x00;
  7666  0000C2  010F               	movlb	15	; () banked
  7667  0000C4  890E               	bsf	14,4,b	;volatile
  7668  0000C6                     
  7669                           ; BSR set to: 15
  7670                           ;senior_main.c: 182: 
  7671  0000C6  8706               	bsf	6,3,b	;volatile
  7672  0000C8                     i2l4582:
  7673                           
  7674                           ; BSR set to: 15
  7675                           ;senior_main.c: 185: 
  7676  0000C8  AB0D               	btfss	13,5,b	;volatile
  7677  0000CA  EF69  F000         	goto	i2u463_41
  7678  0000CE  EF6B  F000         	goto	i2u463_40
  7679  0000D2                     i2u463_41:
  7680  0000D2  EF79  F000         	goto	i2l231
  7681  0000D6                     i2u463_40:
  7682  0000D6                     
  7683                           ; BSR set to: 15
  7684  0000D6  AB0E               	btfss	14,5,b	;volatile
  7685  0000D8  EF70  F000         	goto	i2u464_41
  7686  0000DC  EF72  F000         	goto	i2u464_40
  7687  0000E0                     i2u464_41:
  7688  0000E0  EF79  F000         	goto	i2l231
  7689  0000E4                     i2u464_40:
  7690  0000E4                     
  7691                           ; BSR set to: 15
  7692  0000E4  A50D               	btfss	13,2,b	;volatile
  7693  0000E6  EF77  F000         	goto	i2u465_41
  7694  0000EA  EF79  F000         	goto	i2u465_40
  7695  0000EE                     i2u465_41:
  7696  0000EE  EF8E  F000         	goto	i2l229
  7697  0000F2                     i2u465_40:
  7698  0000F2                     i2l231:
  7699                           
  7700                           ; BSR set to: 15
  7701  0000F2  A505               	btfss	5,2,b	;volatile
  7702  0000F4  EF7E  F000         	goto	i2u466_41
  7703  0000F8  EF80  F000         	goto	i2u466_40
  7704  0000FC                     i2u466_41:
  7705  0000FC  EFB5  F000         	goto	i2l235
  7706  000100                     i2u466_40:
  7707  000100                     
  7708                           ; BSR set to: 15
  7709  000100  A506               	btfss	6,2,b	;volatile
  7710  000102  EF85  F000         	goto	i2u467_41
  7711  000106  EF87  F000         	goto	i2u467_40
  7712  00010A                     i2u467_41:
  7713  00010A  EFB5  F000         	goto	i2l235
  7714  00010E                     i2u467_40:
  7715  00010E                     
  7716                           ; BSR set to: 15
  7717  00010E  B50D               	btfsc	13,2,b	;volatile
  7718  000110  EF8C  F000         	goto	i2u468_41
  7719  000114  EF8E  F000         	goto	i2u468_40
  7720  000118                     i2u468_41:
  7721  000118  EFB5  F000         	goto	i2l235
  7722  00011C                     i2u468_40:
  7723  00011C                     i2l229:
  7724                           
  7725                           ; BSR set to: 15
  7726                           ;senior_main.c: 186: 
  7727  00011C  AB0D               	btfss	13,5,b	;volatile
  7728  00011E  EF93  F000         	goto	i2u469_41
  7729  000122  EF95  F000         	goto	i2u469_40
  7730  000126                     i2u469_41:
  7731  000126  EFA0  F000         	goto	i2l232
  7732  00012A                     i2u469_40:
  7733  00012A                     
  7734                           ; BSR set to: 15
  7735  00012A  AB0E               	btfss	14,5,b	;volatile
  7736  00012C  EF9A  F000         	goto	i2u470_41
  7737  000130  EF9C  F000         	goto	i2u470_40
  7738  000134                     i2u470_41:
  7739  000134  EFA0  F000         	goto	i2l232
  7740  000138                     i2u470_40:
  7741  000138                     
  7742                           ; BSR set to: 15
  7743                           ;senior_main.c: 187:     PMD1 = 0x00;
  7744  000138  9B0E               	bcf	14,5,b	;volatile
  7745                           
  7746                           ;senior_main.c: 188: 
  7747  00013A  9B0D               	bcf	13,5,b	;volatile
  7748                           
  7749                           ;senior_main.c: 189:     PMD3 = 0x00;
  7750  00013C  EFB0  F000         	goto	i2l4600
  7751  000140                     i2l232:
  7752                           
  7753                           ; BSR set to: 15
  7754  000140  A505               	btfss	5,2,b	;volatile
  7755  000142  EFA5  F000         	goto	i2u471_41
  7756  000146  EFA7  F000         	goto	i2u471_40
  7757  00014A                     i2u471_41:
  7758  00014A  EFB0  F000         	goto	i2l4600
  7759  00014E                     i2u471_40:
  7760  00014E                     
  7761                           ; BSR set to: 15
  7762  00014E  A506               	btfss	6,2,b	;volatile
  7763  000150  EFAC  F000         	goto	i2u472_41
  7764  000154  EFAE  F000         	goto	i2u472_40
  7765  000158                     i2u472_41:
  7766  000158  EFB0  F000         	goto	i2l4600
  7767  00015C                     i2u472_40:
  7768  00015C                     
  7769                           ; BSR set to: 15
  7770                           ;senior_main.c: 191: 
  7771  00015C  9506               	bcf	6,2,b	;volatile
  7772                           
  7773                           ;senior_main.c: 192: 
  7774  00015E  9505               	bcf	5,2,b	;volatile
  7775  000160                     i2l4600:
  7776                           
  7777                           ; BSR set to: 15
  7778                           ;senior_main.c: 194:     T2CLKCON = 0x01;
  7779  000160  EC98  F016         	call	_IRL	;wreg free
  7780  000164                     
  7781                           ;senior_main.c: 195: 
  7782  000164  010F               	movlb	15	; () banked
  7783  000166  8B0E               	bsf	14,5,b	;volatile
  7784  000168                     
  7785                           ; BSR set to: 15
  7786                           ;senior_main.c: 196:     T2HLT = 0xA0;
  7787  000168  8506               	bsf	6,2,b	;volatile
  7788  00016A                     i2l235:
  7789                           
  7790                           ; BSR set to: 15
  7791  00016A  9250               	bcf	int$flags,1,c	;clear compiler interrupt flag (level 2)
  7792  00016C  0011               	retfie		f
  7793  00016E                     __end_of_echo:
  7794                           	opt callstack 0
  7795                           
  7796 ;; *************** function _us_irs *****************
  7797 ;; Defined at:
  7798 ;;		line 81 in file "senior_main.c"
  7799 ;; Parameters:    Size  Location     Type
  7800 ;;		None
  7801 ;; Auto vars:     Size  Location     Type
  7802 ;;  time_taken      2   69[COMRAM] int 
  7803 ;; Return value:  Size  Location     Type
  7804 ;;                  1    wreg      void 
  7805 ;; Registers used:
  7806 ;;		wreg, status,2, status,0, cstack
  7807 ;; Tracked objects:
  7808 ;;		On entry : 0/0
  7809 ;;		On exit  : 0/0
  7810 ;;		Unchanged: 0/0
  7811 ;; Data sizes:     COMRAM   BANK0   BANK1   BANK2   BANK3   BANK4   BANK5   BANK6   BANK7
  7812 ;;      Params:         0       0       0       0       0       0       0       0       0
  7813 ;;      Locals:         2       0       0       0       0       0       0       0       0
  7814 ;;      Temps:          4       0       0       0       0       0       0       0       0
  7815 ;;      Totals:         6       0       0       0       0       0       0       0       0
  7816 ;;Total ram usage:        6 bytes
  7817 ;; Hardware stack levels used:    1
  7818 ;; Hardware stack levels required when called:    1
  7819 ;; This function calls:
  7820 ;;		___fladd
  7821 ;;		___fldiv
  7822 ;;		___fltol
  7823 ;;		___xxtofl
  7824 ;;		i2_forward
  7825 ;; This function is called by:
  7826 ;;		_echo
  7827 ;; This function uses a non-reentrant model
  7828 ;;
  7829                           
  7830                           	psect	text40
  7831  0022A8                     __ptext40:
  7832                           	opt callstack 0
  7833  0022A8                     _us_irs:
  7834                           	opt callstack 18
  7835  0022A8                     i2l179:
  7836  0022A8  A48D               	btfss	3981,2,c	;volatile
  7837  0022AA  EF59  F011         	goto	i2u413_41
  7838  0022AE  EF5B  F011         	goto	i2u413_40
  7839  0022B2                     i2u413_41:
  7840  0022B2  EF54  F011         	goto	i2l179
  7841  0022B6                     i2u413_40:
  7842  0022B6                     
  7843                           ;senior_main.c: 83:     while(PORTAbits.RA2==0 && IOCBFbits.IOCBF2==0){
  7844  0022B6  80CE               	bsf	4046,0,c	;volatile
  7845  0022B8                     i2l182:
  7846  0022B8  B48D               	btfsc	3981,2,c	;volatile
  7847  0022BA  EF61  F011         	goto	i2u414_41
  7848  0022BE  EF63  F011         	goto	i2u414_40
  7849  0022C2                     i2u414_41:
  7850  0022C2  EF5C  F011         	goto	i2l182
  7851  0022C6                     i2u414_40:
  7852  0022C6                     
  7853                           ;senior_main.c: 85:         CCPR1H = 0x00;
  7854  0022C6  90CE               	bcf	4046,0,c	;volatile
  7855  0022C8                     
  7856                           ;senior_main.c: 88:         CCPR2H = 0x00;
  7857  0022C8  50CD               	movf	205,w,c	;volatile
  7858  0022CA  6E43               	movwf	(??_us_irs+1)^0,c
  7859  0022CC  6A42               	clrf	??_us_irs^0,c
  7860  0022CE  50CC               	movf	204,w,c	;volatile
  7861  0022D0  6E44               	movwf	(??_us_irs+2)^0,c
  7862  0022D2  6A45               	clrf	(??_us_irs+3)^0,c
  7863  0022D4  5042               	movf	??_us_irs^0,w,c
  7864  0022D6  1044               	iorwf	(??_us_irs+2)^0,w,c
  7865  0022D8  6E46               	movwf	us_irs@time_taken^0,c
  7866  0022DA  5043               	movf	(??_us_irs+1)^0,w,c
  7867  0022DC  1045               	iorwf	(??_us_irs+3)^0,w,c
  7868  0022DE  6E47               	movwf	(us_irs@time_taken+1)^0,c
  7869  0022E0                     
  7870                           ;senior_main.c: 89:         CCPR2L = 0x00;
  7871  0022E0  0E00               	movlw	0
  7872  0022E2  6E2C               	movwf	___fladd@a^0,c
  7873  0022E4  0E00               	movlw	0
  7874  0022E6  6E2D               	movwf	(___fladd@a+1)^0,c
  7875  0022E8  0E80               	movlw	128
  7876  0022EA  6E2E               	movwf	(___fladd@a+2)^0,c
  7877  0022EC  0E3F               	movlw	63
  7878  0022EE  6E2F               	movwf	(___fladd@a+3)^0,c
  7879  0022F0  0EAE               	movlw	174
  7880  0022F2  6E13               	movwf	___fldiv@a^0,c
  7881  0022F4  0E47               	movlw	71
  7882  0022F6  6E14               	movwf	(___fldiv@a+1)^0,c
  7883  0022F8  0E6B               	movlw	107
  7884  0022FA  6E15               	movwf	(___fldiv@a+2)^0,c
  7885  0022FC  0E42               	movlw	66
  7886  0022FE  6E16               	movwf	(___fldiv@a+3)^0,c
  7887  002300  C046  F001         	movff	us_irs@time_taken,___xxtofl@val
  7888  002304  C047  F002         	movff	us_irs@time_taken+1,___xxtofl@val+1
  7889  002308  0E00               	movlw	0
  7890  00230A  BE02               	btfsc	(___xxtofl@val+1)^0,7,c
  7891  00230C  0EFF               	movlw	-1
  7892  00230E  6E03               	movwf	(___xxtofl@val+2)^0,c
  7893  002310  6E04               	movwf	(___xxtofl@val+3)^0,c
  7894  002312  0E01               	movlw	1
  7895  002314  EC06  F00F         	call	___xxtofl
  7896  002318  C001  F00F         	movff	?___xxtofl,___fldiv@b
  7897  00231C  C002  F010         	movff	?___xxtofl+1,___fldiv@b+1
  7898  002320  C003  F011         	movff	?___xxtofl+2,___fldiv@b+2
  7899  002324  C004  F012         	movff	?___xxtofl+3,___fldiv@b+3
  7900  002328  ECF4  F00A         	call	___fldiv	;wreg free
  7901  00232C  C00F  F028         	movff	?___fldiv,___fladd@b
  7902  002330  C010  F029         	movff	?___fldiv+1,___fladd@b+1
  7903  002334  C011  F02A         	movff	?___fldiv+2,___fladd@b+2
  7904  002338  C012  F02B         	movff	?___fldiv+3,___fladd@b+3
  7905  00233C  EC05  F004         	call	___fladd	;wreg free
  7906  002340  C028  F038         	movff	?___fladd,___fltol@f1
  7907  002344  C029  F039         	movff	?___fladd+1,___fltol@f1+1
  7908  002348  C02A  F03A         	movff	?___fladd+2,___fltol@f1+2
  7909  00234C  C02B  F03B         	movff	?___fladd+3,___fltol@f1+3
  7910  002350  ECE7  F011         	call	___fltol	;wreg free
  7911  002354  C038  F0FD         	movff	?___fltol,_distance
  7912  002358  C039  F0FE         	movff	?___fltol+1,_distance+1
  7913  00235C                     
  7914                           ;senior_main.c: 91:     }
  7915  00235C  0100               	movlb	0	; () banked
  7916  00235E  BFFE               	btfsc	(_distance+1)& (0+255),7,b
  7917  002360  EFBD  F011         	goto	i2u415_40
  7918  002364  51FE               	movf	(_distance+1)& (0+255),w,b
  7919  002366  E107               	bnz	i2u415_41
  7920  002368  0E1A               	movlw	26
  7921  00236A  5DFD               	subwf	_distance& (0+255),w,b
  7922  00236C  B0D8               	btfsc	status,0,c
  7923  00236E  EFBB  F011         	goto	i2u415_41
  7924  002372  EFBD  F011         	goto	i2u415_40
  7925  002376                     i2u415_41:
  7926  002376  EFCA  F011         	goto	i2l4242
  7927  00237A                     i2u415_40:
  7928  00237A                     
  7929                           ; BSR set to: 0
  7930  00237A  B28C               	btfsc	140,1,c	;volatile
  7931  00237C  EFC2  F011         	goto	i2u416_41
  7932  002380  EFC4  F011         	goto	i2u416_40
  7933  002384                     i2u416_41:
  7934  002384  EFCA  F011         	goto	i2l4242
  7935  002388                     i2u416_40:
  7936  002388                     
  7937                           ; BSR set to: 0
  7938  002388  0E00               	movlw	0
  7939  00238A  6E02               	movwf	(i2forward@gostop+1)^0,c
  7940  00238C  0E00               	movlw	0
  7941  00238E  6E01               	movwf	i2forward@gostop^0,c
  7942  002390  EC82  F019         	call	i2_forward	;wreg free
  7943  002394                     i2l4242:
  7944                           
  7945                           ;senior_main.c: 95:     CCPR2H = 0x00;
  7946  002394  0100               	movlb	0	; () banked
  7947  002396  BFFE               	btfsc	(_distance+1)& (0+255),7,b
  7948  002398  EFD7  F011         	goto	i2u417_41
  7949  00239C  51FE               	movf	(_distance+1)& (0+255),w,b
  7950  00239E  E109               	bnz	i2u417_40
  7951  0023A0  0E19               	movlw	25
  7952  0023A2  5DFD               	subwf	_distance& (0+255),w,b
  7953  0023A4  A0D8               	btfss	status,0,c
  7954  0023A6  EFD7  F011         	goto	i2u417_41
  7955  0023AA  EFD9  F011         	goto	i2u417_40
  7956  0023AE                     i2u417_41:
  7957  0023AE  EFE6  F011         	goto	i2l187
  7958  0023B2                     i2u417_40:
  7959  0023B2                     
  7960                           ; BSR set to: 0
  7961  0023B2  A28C               	btfss	140,1,c	;volatile
  7962  0023B4  EFDE  F011         	goto	i2u418_41
  7963  0023B8  EFE0  F011         	goto	i2u418_40
  7964  0023BC                     i2u418_41:
  7965  0023BC  EFE6  F011         	goto	i2l187
  7966  0023C0                     i2u418_40:
  7967  0023C0                     
  7968                           ; BSR set to: 0
  7969  0023C0  0E00               	movlw	0
  7970  0023C2  6E02               	movwf	(i2forward@gostop+1)^0,c
  7971  0023C4  0E00               	movlw	0
  7972  0023C6  6E01               	movwf	i2forward@gostop^0,c
  7973  0023C8  EC82  F019         	call	i2_forward	;wreg free
  7974  0023CC                     i2l187:
  7975  0023CC  0012               	return		;funcret
  7976  0023CE                     __end_of_us_irs:
  7977                           	opt callstack 0
  7978                           
  7979 ;; *************** function ___xxtofl *****************
  7980 ;; Defined at:
  7981 ;;		line 10 in file "C:\Program Files (x86)\Microchip\xc8\v2.10\pic\sources\c99\common\xxtofl.c"
  7982 ;; Parameters:    Size  Location     Type
  7983 ;;  sign            1    wreg     unsigned char 
  7984 ;;  val             4    0[COMRAM] long 
  7985 ;; Auto vars:     Size  Location     Type
  7986 ;;  sign            1    8[COMRAM] unsigned char 
  7987 ;;  arg             4   10[COMRAM] unsigned long 
  7988 ;;  exp             1    9[COMRAM] unsigned char 
  7989 ;; Return value:  Size  Location     Type
  7990 ;;                  4    0[COMRAM] unsigned char 
  7991 ;; Registers used:
  7992 ;;		wreg, status,2, status,0
  7993 ;; Tracked objects:
  7994 ;;		On entry : 0/0
  7995 ;;		On exit  : 0/0
  7996 ;;		Unchanged: 0/0
  7997 ;; Data sizes:     COMRAM   BANK0   BANK1   BANK2   BANK3   BANK4   BANK5   BANK6   BANK7
  7998 ;;      Params:         4       0       0       0       0       0       0       0       0
  7999 ;;      Locals:         6       0       0       0       0       0       0       0       0
  8000 ;;      Temps:          4       0       0       0       0       0       0       0       0
  8001 ;;      Totals:        14       0       0       0       0       0       0       0       0
  8002 ;;Total ram usage:       14 bytes
  8003 ;; Hardware stack levels used:    1
  8004 ;; This function calls:
  8005 ;;		Nothing
  8006 ;; This function is called by:
  8007 ;;		_us_irs
  8008 ;; This function uses a non-reentrant model
  8009 ;;
  8010                           
  8011                           	psect	text41
  8012  001E0C                     __ptext41:
  8013                           	opt callstack 0
  8014  001E0C                     ___xxtofl:
  8015                           	opt callstack 18
  8016                           
  8017                           ;incstack = 0
  8018                           ;___xxtofl@sign stored from wreg
  8019  001E0C  6E09               	movwf	___xxtofl@sign^0,c
  8020  001E0E  5009               	movf	___xxtofl@sign^0,w,c
  8021  001E10  B4D8               	btfsc	status,2,c
  8022  001E12  EF0D  F00F         	goto	i2u399_41
  8023  001E16  EF0F  F00F         	goto	i2u399_40
  8024  001E1A                     i2u399_41:
  8025  001E1A  EF31  F00F         	goto	i2l1280
  8026  001E1E                     i2u399_40:
  8027  001E1E  BE04               	btfsc	(___xxtofl@val+3)^0,7,c
  8028  001E20  EF16  F00F         	goto	i2u400_40
  8029  001E24  EF14  F00F         	goto	i2u400_41
  8030  001E28                     i2u400_41:
  8031  001E28  EF31  F00F         	goto	i2l1280
  8032  001E2C                     i2u400_40:
  8033  001E2C  C001  F005         	movff	___xxtofl@val,??___xxtofl
  8034  001E30  C002  F006         	movff	___xxtofl@val+1,??___xxtofl+1
  8035  001E34  C003  F007         	movff	___xxtofl@val+2,??___xxtofl+2
  8036  001E38  C004  F008         	movff	___xxtofl@val+3,??___xxtofl+3
  8037  001E3C  1E05               	comf	??___xxtofl^0,f,c
  8038  001E3E  1E06               	comf	(??___xxtofl+1)^0,f,c
  8039  001E40  1E07               	comf	(??___xxtofl+2)^0,f,c
  8040  001E42  1E08               	comf	(??___xxtofl+3)^0,f,c
  8041  001E44  2A05               	incf	??___xxtofl^0,f,c
  8042  001E46  0E00               	movlw	0
  8043  001E48  2206               	addwfc	(??___xxtofl+1)^0,f,c
  8044  001E4A  2207               	addwfc	(??___xxtofl+2)^0,f,c
  8045  001E4C  2208               	addwfc	(??___xxtofl+3)^0,f,c
  8046  001E4E  C005  F00B         	movff	??___xxtofl,___xxtofl@arg
  8047  001E52  C006  F00C         	movff	??___xxtofl+1,___xxtofl@arg+1
  8048  001E56  C007  F00D         	movff	??___xxtofl+2,___xxtofl@arg+2
  8049  001E5A  C008  F00E         	movff	??___xxtofl+3,___xxtofl@arg+3
  8050  001E5E  EF39  F00F         	goto	i2l4174
  8051  001E62                     i2l1280:
  8052  001E62  C001  F00B         	movff	___xxtofl@val,___xxtofl@arg
  8053  001E66  C002  F00C         	movff	___xxtofl@val+1,___xxtofl@arg+1
  8054  001E6A  C003  F00D         	movff	___xxtofl@val+2,___xxtofl@arg+2
  8055  001E6E  C004  F00E         	movff	___xxtofl@val+3,___xxtofl@arg+3
  8056  001E72                     i2l4174:
  8057  001E72  5001               	movf	___xxtofl@val^0,w,c
  8058  001E74  1002               	iorwf	(___xxtofl@val+1)^0,w,c
  8059  001E76  1003               	iorwf	(___xxtofl@val+2)^0,w,c
  8060  001E78  1004               	iorwf	(___xxtofl@val+3)^0,w,c
  8061  001E7A  A4D8               	btfss	status,2,c
  8062  001E7C  EF42  F00F         	goto	i2u401_41
  8063  001E80  EF44  F00F         	goto	i2u401_40
  8064  001E84                     i2u401_41:
  8065  001E84  EF4E  F00F         	goto	i2l4180
  8066  001E88                     i2u401_40:
  8067  001E88  0E00               	movlw	0
  8068  001E8A  6E01               	movwf	?___xxtofl^0,c
  8069  001E8C  0E00               	movlw	0
  8070  001E8E  6E02               	movwf	(?___xxtofl+1)^0,c
  8071  001E90  0E00               	movlw	0
  8072  001E92  6E03               	movwf	(?___xxtofl+2)^0,c
  8073  001E94  0E00               	movlw	0
  8074  001E96  6E04               	movwf	(?___xxtofl+3)^0,c
  8075  001E98  EFDF  F00F         	goto	i2l1283
  8076  001E9C                     i2l4180:
  8077  001E9C  0E96               	movlw	150
  8078  001E9E  6E0A               	movwf	___xxtofl@exp^0,c
  8079  001EA0  EF58  F00F         	goto	i2l4184
  8080  001EA4                     i2l4182:
  8081  001EA4  2A0A               	incf	___xxtofl@exp^0,f,c
  8082  001EA6  90D8               	bcf	status,0,c
  8083  001EA8  320E               	rrcf	(___xxtofl@arg+3)^0,f,c
  8084  001EAA  320D               	rrcf	(___xxtofl@arg+2)^0,f,c
  8085  001EAC  320C               	rrcf	(___xxtofl@arg+1)^0,f,c
  8086  001EAE  320B               	rrcf	___xxtofl@arg^0,f,c
  8087  001EB0                     i2l4184:
  8088  001EB0  0E00               	movlw	0
  8089  001EB2  140B               	andwf	___xxtofl@arg^0,w,c
  8090  001EB4  6E05               	movwf	??___xxtofl^0,c
  8091  001EB6  0E00               	movlw	0
  8092  001EB8  140C               	andwf	(___xxtofl@arg+1)^0,w,c
  8093  001EBA  6E06               	movwf	(??___xxtofl+1)^0,c
  8094  001EBC  0E00               	movlw	0
  8095  001EBE  140D               	andwf	(___xxtofl@arg+2)^0,w,c
  8096  001EC0  6E07               	movwf	(??___xxtofl+2)^0,c
  8097  001EC2  0EFE               	movlw	254
  8098  001EC4  140E               	andwf	(___xxtofl@arg+3)^0,w,c
  8099  001EC6  6E08               	movwf	(??___xxtofl+3)^0,c
  8100  001EC8  5005               	movf	??___xxtofl^0,w,c
  8101  001ECA  1006               	iorwf	(??___xxtofl+1)^0,w,c
  8102  001ECC  1007               	iorwf	(??___xxtofl+2)^0,w,c
  8103  001ECE  1008               	iorwf	(??___xxtofl+3)^0,w,c
  8104  001ED0  A4D8               	btfss	status,2,c
  8105  001ED2  EF6D  F00F         	goto	i2u402_41
  8106  001ED6  EF6F  F00F         	goto	i2u402_40
  8107  001EDA                     i2u402_41:
  8108  001EDA  EF52  F00F         	goto	i2l4182
  8109  001EDE                     i2u402_40:
  8110  001EDE  EF7D  F00F         	goto	i2l1287
  8111  001EE2                     i2l4186:
  8112  001EE2  2A0A               	incf	___xxtofl@exp^0,f,c
  8113  001EE4  0E01               	movlw	1
  8114  001EE6  260B               	addwf	___xxtofl@arg^0,f,c
  8115  001EE8  0E00               	movlw	0
  8116  001EEA  220C               	addwfc	(___xxtofl@arg+1)^0,f,c
  8117  001EEC  220D               	addwfc	(___xxtofl@arg+2)^0,f,c
  8118  001EEE  220E               	addwfc	(___xxtofl@arg+3)^0,f,c
  8119  001EF0  90D8               	bcf	status,0,c
  8120  001EF2  320E               	rrcf	(___xxtofl@arg+3)^0,f,c
  8121  001EF4  320D               	rrcf	(___xxtofl@arg+2)^0,f,c
  8122  001EF6  320C               	rrcf	(___xxtofl@arg+1)^0,f,c
  8123  001EF8  320B               	rrcf	___xxtofl@arg^0,f,c
  8124  001EFA                     i2l1287:
  8125  001EFA  0E00               	movlw	0
  8126  001EFC  140B               	andwf	___xxtofl@arg^0,w,c
  8127  001EFE  6E05               	movwf	??___xxtofl^0,c
  8128  001F00  0E00               	movlw	0
  8129  001F02  140C               	andwf	(___xxtofl@arg+1)^0,w,c
  8130  001F04  6E06               	movwf	(??___xxtofl+1)^0,c
  8131  001F06  0E00               	movlw	0
  8132  001F08  140D               	andwf	(___xxtofl@arg+2)^0,w,c
  8133  001F0A  6E07               	movwf	(??___xxtofl+2)^0,c
  8134  001F0C  0EFF               	movlw	255
  8135  001F0E  140E               	andwf	(___xxtofl@arg+3)^0,w,c
  8136  001F10  6E08               	movwf	(??___xxtofl+3)^0,c
  8137  001F12  5005               	movf	??___xxtofl^0,w,c
  8138  001F14  1006               	iorwf	(??___xxtofl+1)^0,w,c
  8139  001F16  1007               	iorwf	(??___xxtofl+2)^0,w,c
  8140  001F18  1008               	iorwf	(??___xxtofl+3)^0,w,c
  8141  001F1A  A4D8               	btfss	status,2,c
  8142  001F1C  EF92  F00F         	goto	i2u403_41
  8143  001F20  EF94  F00F         	goto	i2u403_40
  8144  001F24                     i2u403_41:
  8145  001F24  EF71  F00F         	goto	i2l4186
  8146  001F28                     i2u403_40:
  8147  001F28  EF9C  F00F         	goto	i2l4194
  8148  001F2C                     i2l4192:
  8149  001F2C  060A               	decf	___xxtofl@exp^0,f,c
  8150  001F2E  90D8               	bcf	status,0,c
  8151  001F30  360B               	rlcf	___xxtofl@arg^0,f,c
  8152  001F32  360C               	rlcf	(___xxtofl@arg+1)^0,f,c
  8153  001F34  360D               	rlcf	(___xxtofl@arg+2)^0,f,c
  8154  001F36  360E               	rlcf	(___xxtofl@arg+3)^0,f,c
  8155  001F38                     i2l4194:
  8156  001F38  BE0D               	btfsc	(___xxtofl@arg+2)^0,7,c
  8157  001F3A  EFA1  F00F         	goto	i2u404_41
  8158  001F3E  EFA3  F00F         	goto	i2u404_40
  8159  001F42                     i2u404_41:
  8160  001F42  EFAB  F00F         	goto	i2l1294
  8161  001F46                     i2u404_40:
  8162  001F46  0E02               	movlw	2
  8163  001F48  600A               	cpfslt	___xxtofl@exp^0,c
  8164  001F4A  EFA9  F00F         	goto	i2u405_41
  8165  001F4E  EFAB  F00F         	goto	i2u405_40
  8166  001F52                     i2u405_41:
  8167  001F52  EF96  F00F         	goto	i2l4192
  8168  001F56                     i2u405_40:
  8169  001F56                     i2l1294:
  8170  001F56  B00A               	btfsc	___xxtofl@exp^0,0,c
  8171  001F58  EFB0  F00F         	goto	i2u406_41
  8172  001F5C  EFB2  F00F         	goto	i2u406_40
  8173  001F60                     i2u406_41:
  8174  001F60  EFB3  F00F         	goto	i2l4200
  8175  001F64                     i2u406_40:
  8176  001F64  9E0D               	bcf	(___xxtofl@arg+2)^0,7,c
  8177  001F66                     i2l4200:
  8178  001F66  90D8               	bcf	status,0,c
  8179  001F68  320A               	rrcf	___xxtofl@exp^0,f,c
  8180  001F6A  C00A  F005         	movff	___xxtofl@exp,??___xxtofl
  8181  001F6E  6A06               	clrf	(??___xxtofl+1)^0,c
  8182  001F70  6A07               	clrf	(??___xxtofl+2)^0,c
  8183  001F72  6A08               	clrf	(??___xxtofl+3)^0,c
  8184  001F74  C005  F008         	movff	??___xxtofl,??___xxtofl+3
  8185  001F78  6A07               	clrf	(??___xxtofl+2)^0,c
  8186  001F7A  6A06               	clrf	(??___xxtofl+1)^0,c
  8187  001F7C  6A05               	clrf	??___xxtofl^0,c
  8188  001F7E  5005               	movf	??___xxtofl^0,w,c
  8189  001F80  120B               	iorwf	___xxtofl@arg^0,f,c
  8190  001F82  5006               	movf	(??___xxtofl+1)^0,w,c
  8191  001F84  120C               	iorwf	(___xxtofl@arg+1)^0,f,c
  8192  001F86  5007               	movf	(??___xxtofl+2)^0,w,c
  8193  001F88  120D               	iorwf	(___xxtofl@arg+2)^0,f,c
  8194  001F8A  5008               	movf	(??___xxtofl+3)^0,w,c
  8195  001F8C  120E               	iorwf	(___xxtofl@arg+3)^0,f,c
  8196  001F8E  5009               	movf	___xxtofl@sign^0,w,c
  8197  001F90  B4D8               	btfsc	status,2,c
  8198  001F92  EFCD  F00F         	goto	i2u407_41
  8199  001F96  EFCF  F00F         	goto	i2u407_40
  8200  001F9A                     i2u407_41:
  8201  001F9A  EFD7  F00F         	goto	i2l4210
  8202  001F9E                     i2u407_40:
  8203  001F9E  BE04               	btfsc	(___xxtofl@val+3)^0,7,c
  8204  001FA0  EFD6  F00F         	goto	i2u408_40
  8205  001FA4  EFD4  F00F         	goto	i2u408_41
  8206  001FA8                     i2u408_41:
  8207  001FA8  EFD7  F00F         	goto	i2l4210
  8208  001FAC                     i2u408_40:
  8209  001FAC  8E0E               	bsf	(___xxtofl@arg+3)^0,7,c
  8210  001FAE                     i2l4210:
  8211  001FAE  C00B  F001         	movff	___xxtofl@arg,?___xxtofl
  8212  001FB2  C00C  F002         	movff	___xxtofl@arg+1,?___xxtofl+1
  8213  001FB6  C00D  F003         	movff	___xxtofl@arg+2,?___xxtofl+2
  8214  001FBA  C00E  F004         	movff	___xxtofl@arg+3,?___xxtofl+3
  8215  001FBE                     i2l1283:
  8216  001FBE  0012               	return		;funcret
  8217  001FC0                     __end_of___xxtofl:
  8218                           	opt callstack 0
  8219                           
  8220 ;; *************** function ___fltol *****************
  8221 ;; Defined at:
  8222 ;;		line 43 in file "C:\Program Files (x86)\Microchip\xc8\v2.10\pic\sources\c99\common\fltol.c"
  8223 ;; Parameters:    Size  Location     Type
  8224 ;;  f1              4   55[COMRAM] unsigned char 
  8225 ;; Auto vars:     Size  Location     Type
  8226 ;;  exp1            1   64[COMRAM] unsigned char 
  8227 ;;  sign1           1   63[COMRAM] unsigned char 
  8228 ;; Return value:  Size  Location     Type
  8229 ;;                  4   55[COMRAM] long 
  8230 ;; Registers used:
  8231 ;;		wreg, status,2, status,0
  8232 ;; Tracked objects:
  8233 ;;		On entry : 0/0
  8234 ;;		On exit  : 0/0
  8235 ;;		Unchanged: 0/0
  8236 ;; Data sizes:     COMRAM   BANK0   BANK1   BANK2   BANK3   BANK4   BANK5   BANK6   BANK7
  8237 ;;      Params:         4       0       0       0       0       0       0       0       0
  8238 ;;      Locals:         2       0       0       0       0       0       0       0       0
  8239 ;;      Temps:          4       0       0       0       0       0       0       0       0
  8240 ;;      Totals:        10       0       0       0       0       0       0       0       0
  8241 ;;Total ram usage:       10 bytes
  8242 ;; Hardware stack levels used:    1
  8243 ;; This function calls:
  8244 ;;		Nothing
  8245 ;; This function is called by:
  8246 ;;		_us_irs
  8247 ;; This function uses a non-reentrant model
  8248 ;;
  8249                           
  8250                           	psect	text42
  8251  0023CE                     __ptext42:
  8252                           	opt callstack 0
  8253  0023CE                     ___fltol:
  8254                           	opt callstack 18
  8255  0023CE  343A               	rlcf	(___fltol@f1+2)^0,w,c
  8256  0023D0  343B               	rlcf	(___fltol@f1+3)^0,w,c
  8257  0023D2  6E41               	movwf	___fltol@exp1^0,c
  8258  0023D4  5041               	movf	___fltol@exp1^0,w,c
  8259  0023D6  A4D8               	btfss	status,2,c
  8260  0023D8  EFF0  F011         	goto	i2u392_41
  8261  0023DC  EFF2  F011         	goto	i2u392_40
  8262  0023E0                     i2u392_41:
  8263  0023E0  EFFC  F011         	goto	i2l4130
  8264  0023E4                     i2u392_40:
  8265  0023E4                     i2l4126:
  8266  0023E4  0E00               	movlw	0
  8267  0023E6  6E38               	movwf	?___fltol^0,c
  8268  0023E8  0E00               	movlw	0
  8269  0023EA  6E39               	movwf	(?___fltol+1)^0,c
  8270  0023EC  0E00               	movlw	0
  8271  0023EE  6E3A               	movwf	(?___fltol+2)^0,c
  8272  0023F0  0E00               	movlw	0
  8273  0023F2  6E3B               	movwf	(?___fltol+3)^0,c
  8274  0023F4  EF69  F012         	goto	i2l922
  8275  0023F8                     i2l4130:
  8276  0023F8  C038  F03C         	movff	___fltol@f1,??___fltol
  8277  0023FC  C039  F03D         	movff	___fltol@f1+1,??___fltol+1
  8278  002400  C03A  F03E         	movff	___fltol@f1+2,??___fltol+2
  8279  002404  C03B  F03F         	movff	___fltol@f1+3,??___fltol+3
  8280  002408  0E20               	movlw	32
  8281  00240A  EF0C  F012         	goto	i2u393_40
  8282  00240E                     i2u393_45:
  8283  00240E  90D8               	bcf	status,0,c
  8284  002410  323F               	rrcf	(??___fltol+3)^0,f,c
  8285  002412  323E               	rrcf	(??___fltol+2)^0,f,c
  8286  002414  323D               	rrcf	(??___fltol+1)^0,f,c
  8287  002416  323C               	rrcf	??___fltol^0,f,c
  8288  002418                     i2u393_40:
  8289  002418  2EE8               	decfsz	wreg,f,c
  8290  00241A  EF07  F012         	goto	i2u393_45
  8291  00241E  503C               	movf	??___fltol^0,w,c
  8292  002420  6E40               	movwf	___fltol@sign1^0,c
  8293  002422  8E3A               	bsf	(___fltol@f1+2)^0,7,c
  8294  002424  0EFF               	movlw	255
  8295  002426  1638               	andwf	___fltol@f1^0,f,c
  8296  002428  0EFF               	movlw	255
  8297  00242A  1639               	andwf	(___fltol@f1+1)^0,f,c
  8298  00242C  0EFF               	movlw	255
  8299  00242E  163A               	andwf	(___fltol@f1+2)^0,f,c
  8300  002430  0E00               	movlw	0
  8301  002432  163B               	andwf	(___fltol@f1+3)^0,f,c
  8302  002434  0E96               	movlw	150
  8303  002436  5E41               	subwf	___fltol@exp1^0,f,c
  8304  002438  BE41               	btfsc	___fltol@exp1^0,7,c
  8305  00243A  EF23  F012         	goto	i2u394_40
  8306  00243E  EF21  F012         	goto	i2u394_41
  8307  002442                     i2u394_41:
  8308  002442  EF39  F012         	goto	i2l4150
  8309  002446                     i2u394_40:
  8310  002446  5041               	movf	___fltol@exp1^0,w,c
  8311  002448  0A80               	xorlw	128
  8312  00244A  0F97               	addlw	151
  8313  00244C  B0D8               	btfsc	status,0,c
  8314  00244E  EF2B  F012         	goto	i2u395_41
  8315  002452  EF2D  F012         	goto	i2u395_40
  8316  002456                     i2u395_41:
  8317  002456  EF2F  F012         	goto	i2l4146
  8318  00245A                     i2u395_40:
  8319  00245A  EFF2  F011         	goto	i2l4126
  8320  00245E                     i2l4146:
  8321  00245E  90D8               	bcf	status,0,c
  8322  002460  323B               	rrcf	(___fltol@f1+3)^0,f,c
  8323  002462  323A               	rrcf	(___fltol@f1+2)^0,f,c
  8324  002464  3239               	rrcf	(___fltol@f1+1)^0,f,c
  8325  002466  3238               	rrcf	___fltol@f1^0,f,c
  8326  002468  3E41               	incfsz	___fltol@exp1^0,f,c
  8327  00246A  EF2F  F012         	goto	i2l4146
  8328  00246E  EF51  F012         	goto	i2l4160
  8329  002472                     i2l4150:
  8330  002472  0E1F               	movlw	31
  8331  002474  6441               	cpfsgt	___fltol@exp1^0,c
  8332  002476  EF3F  F012         	goto	i2u396_41
  8333  00247A  EF41  F012         	goto	i2u396_40
  8334  00247E                     i2u396_41:
  8335  00247E  EF49  F012         	goto	i2l4158
  8336  002482                     i2u396_40:
  8337  002482  EFF2  F011         	goto	i2l4126
  8338  002486                     i2l4156:
  8339  002486  90D8               	bcf	status,0,c
  8340  002488  3638               	rlcf	___fltol@f1^0,f,c
  8341  00248A  3639               	rlcf	(___fltol@f1+1)^0,f,c
  8342  00248C  363A               	rlcf	(___fltol@f1+2)^0,f,c
  8343  00248E  363B               	rlcf	(___fltol@f1+3)^0,f,c
  8344  002490  0641               	decf	___fltol@exp1^0,f,c
  8345  002492                     i2l4158:
  8346  002492  5041               	movf	___fltol@exp1^0,w,c
  8347  002494  A4D8               	btfss	status,2,c
  8348  002496  EF4F  F012         	goto	i2u397_41
  8349  00249A  EF51  F012         	goto	i2u397_40
  8350  00249E                     i2u397_41:
  8351  00249E  EF43  F012         	goto	i2l4156
  8352  0024A2                     i2u397_40:
  8353  0024A2                     i2l4160:
  8354  0024A2  5040               	movf	___fltol@sign1^0,w,c
  8355  0024A4  B4D8               	btfsc	status,2,c
  8356  0024A6  EF57  F012         	goto	i2u398_41
  8357  0024AA  EF59  F012         	goto	i2u398_40
  8358  0024AE                     i2u398_41:
  8359  0024AE  EF61  F012         	goto	i2l4164
  8360  0024B2                     i2u398_40:
  8361  0024B2  1E3B               	comf	(___fltol@f1+3)^0,f,c
  8362  0024B4  1E3A               	comf	(___fltol@f1+2)^0,f,c
  8363  0024B6  1E39               	comf	(___fltol@f1+1)^0,f,c
  8364  0024B8  6C38               	negf	___fltol@f1^0,c
  8365  0024BA  0E00               	movlw	0
  8366  0024BC  2239               	addwfc	(___fltol@f1+1)^0,f,c
  8367  0024BE  223A               	addwfc	(___fltol@f1+2)^0,f,c
  8368  0024C0  223B               	addwfc	(___fltol@f1+3)^0,f,c
  8369  0024C2                     i2l4164:
  8370  0024C2  C038  F038         	movff	___fltol@f1,?___fltol
  8371  0024C6  C039  F039         	movff	___fltol@f1+1,?___fltol+1
  8372  0024CA  C03A  F03A         	movff	___fltol@f1+2,?___fltol+2
  8373  0024CE  C03B  F03B         	movff	___fltol@f1+3,?___fltol+3
  8374  0024D2                     i2l922:
  8375  0024D2  0012               	return		;funcret
  8376  0024D4                     __end_of___fltol:
  8377                           	opt callstack 0
  8378                           
  8379 ;; *************** function ___fldiv *****************
  8380 ;; Defined at:
  8381 ;;		line 11 in file "C:\Program Files (x86)\Microchip\xc8\v2.10\pic\sources\c99\common\sprcdiv.c"
  8382 ;; Parameters:    Size  Location     Type
  8383 ;;  b               4   14[COMRAM] long 
  8384 ;;  a               4   18[COMRAM] long 
  8385 ;; Auto vars:     Size  Location     Type
  8386 ;;  grs             4   33[COMRAM] unsigned long 
  8387 ;;  rem             4   26[COMRAM] unsigned long 
  8388 ;;  new_exp         2   31[COMRAM] short 
  8389 ;;  aexp            1   38[COMRAM] unsigned char 
  8390 ;;  bexp            1   37[COMRAM] unsigned char 
  8391 ;;  sign            1   30[COMRAM] unsigned char 
  8392 ;; Return value:  Size  Location     Type
  8393 ;;                  4   14[COMRAM] unsigned char 
  8394 ;; Registers used:
  8395 ;;		wreg, status,2, status,0
  8396 ;; Tracked objects:
  8397 ;;		On entry : 0/0
  8398 ;;		On exit  : 0/0
  8399 ;;		Unchanged: 0/0
  8400 ;; Data sizes:     COMRAM   BANK0   BANK1   BANK2   BANK3   BANK4   BANK5   BANK6   BANK7
  8401 ;;      Params:         8       0       0       0       0       0       0       0       0
  8402 ;;      Locals:        13       0       0       0       0       0       0       0       0
  8403 ;;      Temps:          4       0       0       0       0       0       0       0       0
  8404 ;;      Totals:        25       0       0       0       0       0       0       0       0
  8405 ;;Total ram usage:       25 bytes
  8406 ;; Hardware stack levels used:    1
  8407 ;; This function calls:
  8408 ;;		Nothing
  8409 ;; This function is called by:
  8410 ;;		_us_irs
  8411 ;; This function uses a non-reentrant model
  8412 ;;
  8413                           
  8414                           	psect	text43
  8415  0015E8                     __ptext43:
  8416                           	opt callstack 0
  8417  0015E8                     ___fldiv:
  8418                           	opt callstack 18
  8419  0015E8  5012               	movf	(___fldiv@b+3)^0,w,c
  8420  0015EA  0B80               	andlw	128
  8421  0015EC  6E1F               	movwf	___fldiv@sign^0,c
  8422  0015EE  5012               	movf	(___fldiv@b+3)^0,w,c
  8423  0015F0  2412               	addwf	(___fldiv@b+3)^0,w,c
  8424  0015F2  6E26               	movwf	___fldiv@bexp^0,c
  8425  0015F4  AE11               	btfss	(___fldiv@b+2)^0,7,c
  8426  0015F6  EFFF  F00A         	goto	i2u369_41
  8427  0015FA  EF01  F00B         	goto	i2u369_40
  8428  0015FE                     i2u369_41:
  8429  0015FE  EF02  F00B         	goto	i2l3992
  8430  001602                     i2u369_40:
  8431  001602  8026               	bsf	___fldiv@bexp^0,0,c
  8432  001604                     i2l3992:
  8433  001604  5026               	movf	___fldiv@bexp^0,w,c
  8434  001606  B4D8               	btfsc	status,2,c
  8435  001608  EF08  F00B         	goto	i2u370_41
  8436  00160C  EF0A  F00B         	goto	i2u370_40
  8437  001610                     i2u370_41:
  8438  001610  EF1F  F00B         	goto	i2l4002
  8439  001614                     i2u370_40:
  8440  001614  2826               	incf	___fldiv@bexp^0,w,c
  8441  001616  A4D8               	btfss	status,2,c
  8442  001618  EF10  F00B         	goto	i2u371_41
  8443  00161C  EF12  F00B         	goto	i2u371_40
  8444  001620                     i2u371_41:
  8445  001620  EF1A  F00B         	goto	i2l3998
  8446  001624                     i2u371_40:
  8447  001624  0E00               	movlw	0
  8448  001626  6E0F               	movwf	___fldiv@b^0,c
  8449  001628  0E00               	movlw	0
  8450  00162A  6E10               	movwf	(___fldiv@b+1)^0,c
  8451  00162C  0E00               	movlw	0
  8452  00162E  6E11               	movwf	(___fldiv@b+2)^0,c
  8453  001630  0E00               	movlw	0
  8454  001632  6E12               	movwf	(___fldiv@b+3)^0,c
  8455  001634                     i2l3998:
  8456  001634  8E11               	bsf	(___fldiv@b+2)^0,7,c
  8457  001636  0E00               	movlw	0
  8458  001638  6E12               	movwf	(___fldiv@b+3)^0,c
  8459  00163A  EF27  F00B         	goto	i2l4004
  8460  00163E                     i2l4002:
  8461  00163E  0E00               	movlw	0
  8462  001640  6E0F               	movwf	___fldiv@b^0,c
  8463  001642  0E00               	movlw	0
  8464  001644  6E10               	movwf	(___fldiv@b+1)^0,c
  8465  001646  0E00               	movlw	0
  8466  001648  6E11               	movwf	(___fldiv@b+2)^0,c
  8467  00164A  0E00               	movlw	0
  8468  00164C  6E12               	movwf	(___fldiv@b+3)^0,c
  8469  00164E                     i2l4004:
  8470  00164E  5016               	movf	(___fldiv@a+3)^0,w,c
  8471  001650  0B80               	andlw	128
  8472  001652  1A1F               	xorwf	___fldiv@sign^0,f,c
  8473  001654  5016               	movf	(___fldiv@a+3)^0,w,c
  8474  001656  2416               	addwf	(___fldiv@a+3)^0,w,c
  8475  001658  6E27               	movwf	___fldiv@aexp^0,c
  8476  00165A  AE15               	btfss	(___fldiv@a+2)^0,7,c
  8477  00165C  EF32  F00B         	goto	i2u372_41
  8478  001660  EF34  F00B         	goto	i2u372_40
  8479  001664                     i2u372_41:
  8480  001664  EF35  F00B         	goto	i2l4012
  8481  001668                     i2u372_40:
  8482  001668  8027               	bsf	___fldiv@aexp^0,0,c
  8483  00166A                     i2l4012:
  8484  00166A  5027               	movf	___fldiv@aexp^0,w,c
  8485  00166C  B4D8               	btfsc	status,2,c
  8486  00166E  EF3B  F00B         	goto	i2u373_41
  8487  001672  EF3D  F00B         	goto	i2u373_40
  8488  001676                     i2u373_41:
  8489  001676  EF52  F00B         	goto	i2l4022
  8490  00167A                     i2u373_40:
  8491  00167A  2827               	incf	___fldiv@aexp^0,w,c
  8492  00167C  A4D8               	btfss	status,2,c
  8493  00167E  EF43  F00B         	goto	i2u374_41
  8494  001682  EF45  F00B         	goto	i2u374_40
  8495  001686                     i2u374_41:
  8496  001686  EF4D  F00B         	goto	i2l4018
  8497  00168A                     i2u374_40:
  8498  00168A  0E00               	movlw	0
  8499  00168C  6E13               	movwf	___fldiv@a^0,c
  8500  00168E  0E00               	movlw	0
  8501  001690  6E14               	movwf	(___fldiv@a+1)^0,c
  8502  001692  0E00               	movlw	0
  8503  001694  6E15               	movwf	(___fldiv@a+2)^0,c
  8504  001696  0E00               	movlw	0
  8505  001698  6E16               	movwf	(___fldiv@a+3)^0,c
  8506  00169A                     i2l4018:
  8507  00169A  8E15               	bsf	(___fldiv@a+2)^0,7,c
  8508  00169C  0E00               	movlw	0
  8509  00169E  6E16               	movwf	(___fldiv@a+3)^0,c
  8510  0016A0  EF5A  F00B         	goto	i2l4024
  8511  0016A4                     i2l4022:
  8512  0016A4  0E00               	movlw	0
  8513  0016A6  6E13               	movwf	___fldiv@a^0,c
  8514  0016A8  0E00               	movlw	0
  8515  0016AA  6E14               	movwf	(___fldiv@a+1)^0,c
  8516  0016AC  0E00               	movlw	0
  8517  0016AE  6E15               	movwf	(___fldiv@a+2)^0,c
  8518  0016B0  0E00               	movlw	0
  8519  0016B2  6E16               	movwf	(___fldiv@a+3)^0,c
  8520  0016B4                     i2l4024:
  8521  0016B4  5013               	movf	___fldiv@a^0,w,c
  8522  0016B6  1014               	iorwf	(___fldiv@a+1)^0,w,c
  8523  0016B8  1015               	iorwf	(___fldiv@a+2)^0,w,c
  8524  0016BA  1016               	iorwf	(___fldiv@a+3)^0,w,c
  8525  0016BC  A4D8               	btfss	status,2,c
  8526  0016BE  EF63  F00B         	goto	i2u375_41
  8527  0016C2  EF65  F00B         	goto	i2u375_40
  8528  0016C6                     i2u375_41:
  8529  0016C6  EF7D  F00B         	goto	i2l4036
  8530  0016CA                     i2u375_40:
  8531  0016CA  0E00               	movlw	0
  8532  0016CC  6E0F               	movwf	___fldiv@b^0,c
  8533  0016CE  0E00               	movlw	0
  8534  0016D0  6E10               	movwf	(___fldiv@b+1)^0,c
  8535  0016D2  0E00               	movlw	0
  8536  0016D4  6E11               	movwf	(___fldiv@b+2)^0,c
  8537  0016D6  0E00               	movlw	0
  8538  0016D8  6E12               	movwf	(___fldiv@b+3)^0,c
  8539  0016DA  0E80               	movlw	128
  8540  0016DC  1211               	iorwf	(___fldiv@b+2)^0,f,c
  8541  0016DE  0E7F               	movlw	127
  8542  0016E0  1212               	iorwf	(___fldiv@b+3)^0,f,c
  8543  0016E2                     i2l4030:
  8544  0016E2  501F               	movf	___fldiv@sign^0,w,c
  8545  0016E4  1212               	iorwf	(___fldiv@b+3)^0,f,c
  8546  0016E6  C00F  F00F         	movff	___fldiv@b,?___fldiv
  8547  0016EA  C010  F010         	movff	___fldiv@b+1,?___fldiv+1
  8548  0016EE  C011  F011         	movff	___fldiv@b+2,?___fldiv+2
  8549  0016F2  C012  F012         	movff	___fldiv@b+3,?___fldiv+3
  8550  0016F6  EFC0  F00C         	goto	i2l1207
  8551  0016FA                     i2l4036:
  8552  0016FA  5026               	movf	___fldiv@bexp^0,w,c
  8553  0016FC  A4D8               	btfss	status,2,c
  8554  0016FE  EF83  F00B         	goto	i2u376_41
  8555  001702  EF85  F00B         	goto	i2u376_40
  8556  001706                     i2u376_41:
  8557  001706  EF8F  F00B         	goto	i2l4044
  8558  00170A                     i2u376_40:
  8559  00170A  0E00               	movlw	0
  8560  00170C  6E0F               	movwf	?___fldiv^0,c
  8561  00170E  0E00               	movlw	0
  8562  001710  6E10               	movwf	(?___fldiv+1)^0,c
  8563  001712  0E00               	movlw	0
  8564  001714  6E11               	movwf	(?___fldiv+2)^0,c
  8565  001716  0E00               	movlw	0
  8566  001718  6E12               	movwf	(?___fldiv+3)^0,c
  8567  00171A  EFC0  F00C         	goto	i2l1207
  8568  00171E                     i2l4044:
  8569  00171E  5027               	movf	___fldiv@aexp^0,w,c
  8570  001720  C026  F017         	movff	___fldiv@bexp,??___fldiv
  8571  001724  6A18               	clrf	(??___fldiv+1)^0,c
  8572  001726  5E17               	subwf	??___fldiv^0,f,c
  8573  001728  0E00               	movlw	0
  8574  00172A  5A18               	subwfb	(??___fldiv+1)^0,f,c
  8575  00172C  0E7F               	movlw	127
  8576  00172E  2417               	addwf	??___fldiv^0,w,c
  8577  001730  6E20               	movwf	___fldiv@new_exp^0,c
  8578  001732  0E00               	movlw	0
  8579  001734  2018               	addwfc	(??___fldiv+1)^0,w,c
  8580  001736  6E21               	movwf	(___fldiv@new_exp+1)^0,c
  8581  001738  C00F  F01B         	movff	___fldiv@b,___fldiv@rem
  8582  00173C  C010  F01C         	movff	___fldiv@b+1,___fldiv@rem+1
  8583  001740  C011  F01D         	movff	___fldiv@b+2,___fldiv@rem+2
  8584  001744  C012  F01E         	movff	___fldiv@b+3,___fldiv@rem+3
  8585  001748  0E00               	movlw	0
  8586  00174A  6E0F               	movwf	___fldiv@b^0,c
  8587  00174C  0E00               	movlw	0
  8588  00174E  6E10               	movwf	(___fldiv@b+1)^0,c
  8589  001750  0E00               	movlw	0
  8590  001752  6E11               	movwf	(___fldiv@b+2)^0,c
  8591  001754  0E00               	movlw	0
  8592  001756  6E12               	movwf	(___fldiv@b+3)^0,c
  8593  001758  0E00               	movlw	0
  8594  00175A  6E22               	movwf	___fldiv@grs^0,c
  8595  00175C  0E00               	movlw	0
  8596  00175E  6E23               	movwf	(___fldiv@grs+1)^0,c
  8597  001760  0E00               	movlw	0
  8598  001762  6E24               	movwf	(___fldiv@grs+2)^0,c
  8599  001764  0E00               	movlw	0
  8600  001766  6E25               	movwf	(___fldiv@grs+3)^0,c
  8601  001768  0E00               	movlw	0
  8602  00176A  6E27               	movwf	___fldiv@aexp^0,c
  8603  00176C  EFF0  F00B         	goto	i2l1209
  8604  001770                     i2l4054:
  8605  001770  5027               	movf	___fldiv@aexp^0,w,c
  8606  001772  B4D8               	btfsc	status,2,c
  8607  001774  EFBE  F00B         	goto	i2u377_41
  8608  001778  EFC0  F00B         	goto	i2u377_40
  8609  00177C                     i2u377_41:
  8610  00177C  EFD7  F00B         	goto	i2l4062
  8611  001780                     i2u377_40:
  8612  001780  90D8               	bcf	status,0,c
  8613  001782  361B               	rlcf	___fldiv@rem^0,f,c
  8614  001784  361C               	rlcf	(___fldiv@rem+1)^0,f,c
  8615  001786  361D               	rlcf	(___fldiv@rem+2)^0,f,c
  8616  001788  361E               	rlcf	(___fldiv@rem+3)^0,f,c
  8617  00178A  90D8               	bcf	status,0,c
  8618  00178C  360F               	rlcf	___fldiv@b^0,f,c
  8619  00178E  3610               	rlcf	(___fldiv@b+1)^0,f,c
  8620  001790  3611               	rlcf	(___fldiv@b+2)^0,f,c
  8621  001792  3612               	rlcf	(___fldiv@b+3)^0,f,c
  8622  001794  AE25               	btfss	(___fldiv@grs+3)^0,7,c
  8623  001796  EFCF  F00B         	goto	i2u378_41
  8624  00179A  EFD1  F00B         	goto	i2u378_40
  8625  00179E                     i2u378_41:
  8626  00179E  EFD2  F00B         	goto	i2l1212
  8627  0017A2                     i2u378_40:
  8628  0017A2  800F               	bsf	___fldiv@b^0,0,c
  8629  0017A4                     i2l1212:
  8630  0017A4  90D8               	bcf	status,0,c
  8631  0017A6  3622               	rlcf	___fldiv@grs^0,f,c
  8632  0017A8  3623               	rlcf	(___fldiv@grs+1)^0,f,c
  8633  0017AA  3624               	rlcf	(___fldiv@grs+2)^0,f,c
  8634  0017AC  3625               	rlcf	(___fldiv@grs+3)^0,f,c
  8635  0017AE                     i2l4062:
  8636  0017AE  5013               	movf	___fldiv@a^0,w,c
  8637  0017B0  5C1B               	subwf	___fldiv@rem^0,w,c
  8638  0017B2  5014               	movf	(___fldiv@a+1)^0,w,c
  8639  0017B4  581C               	subwfb	(___fldiv@rem+1)^0,w,c
  8640  0017B6  5015               	movf	(___fldiv@a+2)^0,w,c
  8641  0017B8  581D               	subwfb	(___fldiv@rem+2)^0,w,c
  8642  0017BA  5016               	movf	(___fldiv@a+3)^0,w,c
  8643  0017BC  581E               	subwfb	(___fldiv@rem+3)^0,w,c
  8644  0017BE  A0D8               	btfss	status,0,c
  8645  0017C0  EFE4  F00B         	goto	i2u379_41
  8646  0017C4  EFE6  F00B         	goto	i2u379_40
  8647  0017C8                     i2u379_41:
  8648  0017C8  EFEF  F00B         	goto	i2l4068
  8649  0017CC                     i2u379_40:
  8650  0017CC  8C25               	bsf	(___fldiv@grs+3)^0,6,c
  8651  0017CE  5013               	movf	___fldiv@a^0,w,c
  8652  0017D0  5E1B               	subwf	___fldiv@rem^0,f,c
  8653  0017D2  5014               	movf	(___fldiv@a+1)^0,w,c
  8654  0017D4  5A1C               	subwfb	(___fldiv@rem+1)^0,f,c
  8655  0017D6  5015               	movf	(___fldiv@a+2)^0,w,c
  8656  0017D8  5A1D               	subwfb	(___fldiv@rem+2)^0,f,c
  8657  0017DA  5016               	movf	(___fldiv@a+3)^0,w,c
  8658  0017DC  5A1E               	subwfb	(___fldiv@rem+3)^0,f,c
  8659  0017DE                     i2l4068:
  8660  0017DE  2A27               	incf	___fldiv@aexp^0,f,c
  8661  0017E0                     i2l1209:
  8662  0017E0  0E19               	movlw	25
  8663  0017E2  6427               	cpfsgt	___fldiv@aexp^0,c
  8664  0017E4  EFF6  F00B         	goto	i2u380_41
  8665  0017E8  EFF8  F00B         	goto	i2u380_40
  8666  0017EC                     i2u380_41:
  8667  0017EC  EFB8  F00B         	goto	i2l4054
  8668  0017F0                     i2u380_40:
  8669  0017F0  501B               	movf	___fldiv@rem^0,w,c
  8670  0017F2  101C               	iorwf	(___fldiv@rem+1)^0,w,c
  8671  0017F4  101D               	iorwf	(___fldiv@rem+2)^0,w,c
  8672  0017F6  101E               	iorwf	(___fldiv@rem+3)^0,w,c
  8673  0017F8  B4D8               	btfsc	status,2,c
  8674  0017FA  EF01  F00C         	goto	i2u381_41
  8675  0017FE  EF03  F00C         	goto	i2u381_40
  8676  001802                     i2u381_41:
  8677  001802  EF1B  F00C         	goto	i2l4080
  8678  001806                     i2u381_40:
  8679  001806  8022               	bsf	___fldiv@grs^0,0,c
  8680  001808  EF1B  F00C         	goto	i2l4080
  8681  00180C                     i2l4074:
  8682  00180C  90D8               	bcf	status,0,c
  8683  00180E  360F               	rlcf	___fldiv@b^0,f,c
  8684  001810  3610               	rlcf	(___fldiv@b+1)^0,f,c
  8685  001812  3611               	rlcf	(___fldiv@b+2)^0,f,c
  8686  001814  3612               	rlcf	(___fldiv@b+3)^0,f,c
  8687  001816  AE25               	btfss	(___fldiv@grs+3)^0,7,c
  8688  001818  EF10  F00C         	goto	i2u382_41
  8689  00181C  EF12  F00C         	goto	i2u382_40
  8690  001820                     i2u382_41:
  8691  001820  EF13  F00C         	goto	i2l1218
  8692  001824                     i2u382_40:
  8693  001824  800F               	bsf	___fldiv@b^0,0,c
  8694  001826                     i2l1218:
  8695  001826  90D8               	bcf	status,0,c
  8696  001828  3622               	rlcf	___fldiv@grs^0,f,c
  8697  00182A  3623               	rlcf	(___fldiv@grs+1)^0,f,c
  8698  00182C  3624               	rlcf	(___fldiv@grs+2)^0,f,c
  8699  00182E  3625               	rlcf	(___fldiv@grs+3)^0,f,c
  8700  001830  0620               	decf	___fldiv@new_exp^0,f,c
  8701  001832  A0D8               	btfss	status,0,c
  8702  001834  0621               	decf	(___fldiv@new_exp+1)^0,f,c
  8703  001836                     i2l4080:
  8704  001836  AE11               	btfss	(___fldiv@b+2)^0,7,c
  8705  001838  EF20  F00C         	goto	i2u383_41
  8706  00183C  EF22  F00C         	goto	i2u383_40
  8707  001840                     i2u383_41:
  8708  001840  EF06  F00C         	goto	i2l4074
  8709  001844                     i2u383_40:
  8710  001844  0E00               	movlw	0
  8711  001846  6E27               	movwf	___fldiv@aexp^0,c
  8712  001848  AE25               	btfss	(___fldiv@grs+3)^0,7,c
  8713  00184A  EF29  F00C         	goto	i2u384_41
  8714  00184E  EF2B  F00C         	goto	i2u384_40
  8715  001852                     i2u384_41:
  8716  001852  EF4F  F00C         	goto	i2l1220
  8717  001856                     i2u384_40:
  8718  001856  0EFF               	movlw	255
  8719  001858  1422               	andwf	___fldiv@grs^0,w,c
  8720  00185A  6E17               	movwf	??___fldiv^0,c
  8721  00185C  0EFF               	movlw	255
  8722  00185E  1423               	andwf	(___fldiv@grs+1)^0,w,c
  8723  001860  6E18               	movwf	(??___fldiv+1)^0,c
  8724  001862  0EFF               	movlw	255
  8725  001864  1424               	andwf	(___fldiv@grs+2)^0,w,c
  8726  001866  6E19               	movwf	(??___fldiv+2)^0,c
  8727  001868  0E7F               	movlw	127
  8728  00186A  1425               	andwf	(___fldiv@grs+3)^0,w,c
  8729  00186C  6E1A               	movwf	(??___fldiv+3)^0,c
  8730  00186E  5017               	movf	??___fldiv^0,w,c
  8731  001870  1018               	iorwf	(??___fldiv+1)^0,w,c
  8732  001872  1019               	iorwf	(??___fldiv+2)^0,w,c
  8733  001874  101A               	iorwf	(??___fldiv+3)^0,w,c
  8734  001876  B4D8               	btfsc	status,2,c
  8735  001878  EF40  F00C         	goto	i2u385_41
  8736  00187C  EF42  F00C         	goto	i2u385_40
  8737  001880                     i2u385_41:
  8738  001880  EF46  F00C         	goto	i2l1221
  8739  001884                     i2u385_40:
  8740  001884                     i2l4088:
  8741  001884  0E01               	movlw	1
  8742  001886  6E27               	movwf	___fldiv@aexp^0,c
  8743  001888  EF4F  F00C         	goto	i2l1220
  8744  00188C                     i2l1221:
  8745  00188C  A00F               	btfss	___fldiv@b^0,0,c
  8746  00188E  EF4B  F00C         	goto	i2u386_41
  8747  001892  EF4D  F00C         	goto	i2u386_40
  8748  001896                     i2u386_41:
  8749  001896  EF4F  F00C         	goto	i2l1220
  8750  00189A                     i2u386_40:
  8751  00189A  EF42  F00C         	goto	i2l4088
  8752  00189E                     i2l1220:
  8753  00189E  5027               	movf	___fldiv@aexp^0,w,c
  8754  0018A0  B4D8               	btfsc	status,2,c
  8755  0018A2  EF55  F00C         	goto	i2u387_41
  8756  0018A6  EF57  F00C         	goto	i2u387_40
  8757  0018AA                     i2u387_41:
  8758  0018AA  EF7B  F00C         	goto	i2l4100
  8759  0018AE                     i2u387_40:
  8760  0018AE  0E01               	movlw	1
  8761  0018B0  260F               	addwf	___fldiv@b^0,f,c
  8762  0018B2  0E00               	movlw	0
  8763  0018B4  2210               	addwfc	(___fldiv@b+1)^0,f,c
  8764  0018B6  2211               	addwfc	(___fldiv@b+2)^0,f,c
  8765  0018B8  2212               	addwfc	(___fldiv@b+3)^0,f,c
  8766  0018BA  A012               	btfss	(___fldiv@b+3)^0,0,c
  8767  0018BC  EF62  F00C         	goto	i2u388_41
  8768  0018C0  EF64  F00C         	goto	i2u388_40
  8769  0018C4                     i2u388_41:
  8770  0018C4  EF7B  F00C         	goto	i2l4100
  8771  0018C8                     i2u388_40:
  8772  0018C8  C00F  F017         	movff	___fldiv@b,??___fldiv
  8773  0018CC  C010  F018         	movff	___fldiv@b+1,??___fldiv+1
  8774  0018D0  C011  F019         	movff	___fldiv@b+2,??___fldiv+2
  8775  0018D4  C012  F01A         	movff	___fldiv@b+3,??___fldiv+3
  8776  0018D8  341A               	rlcf	(??___fldiv+3)^0,w,c
  8777  0018DA  321A               	rrcf	(??___fldiv+3)^0,f,c
  8778  0018DC  3219               	rrcf	(??___fldiv+2)^0,f,c
  8779  0018DE  3218               	rrcf	(??___fldiv+1)^0,f,c
  8780  0018E0  3217               	rrcf	??___fldiv^0,f,c
  8781  0018E2  C017  F00F         	movff	??___fldiv,___fldiv@b
  8782  0018E6  C018  F010         	movff	??___fldiv+1,___fldiv@b+1
  8783  0018EA  C019  F011         	movff	??___fldiv+2,___fldiv@b+2
  8784  0018EE  C01A  F012         	movff	??___fldiv+3,___fldiv@b+3
  8785  0018F2  4A20               	infsnz	___fldiv@new_exp^0,f,c
  8786  0018F4  2A21               	incf	(___fldiv@new_exp+1)^0,f,c
  8787  0018F6                     i2l4100:
  8788  0018F6  BE21               	btfsc	(___fldiv@new_exp+1)^0,7,c
  8789  0018F8  EF86  F00C         	goto	i2u389_41
  8790  0018FC  5021               	movf	(___fldiv@new_exp+1)^0,w,c
  8791  0018FE  E108               	bnz	i2u389_40
  8792  001900  2820               	incf	___fldiv@new_exp^0,w,c
  8793  001902  A0D8               	btfss	status,0,c
  8794  001904  EF86  F00C         	goto	i2u389_41
  8795  001908  EF88  F00C         	goto	i2u389_40
  8796  00190C                     i2u389_41:
  8797  00190C  EF93  F00C         	goto	i2l4104
  8798  001910                     i2u389_40:
  8799  001910  0E00               	movlw	0
  8800  001912  6E21               	movwf	(___fldiv@new_exp+1)^0,c
  8801  001914  6820               	setf	___fldiv@new_exp^0,c
  8802  001916  0E00               	movlw	0
  8803  001918  6E0F               	movwf	___fldiv@b^0,c
  8804  00191A  0E00               	movlw	0
  8805  00191C  6E10               	movwf	(___fldiv@b+1)^0,c
  8806  00191E  0E00               	movlw	0
  8807  001920  6E11               	movwf	(___fldiv@b+2)^0,c
  8808  001922  0E00               	movlw	0
  8809  001924  6E12               	movwf	(___fldiv@b+3)^0,c
  8810  001926                     i2l4104:
  8811  001926  BE21               	btfsc	(___fldiv@new_exp+1)^0,7,c
  8812  001928  EFA0  F00C         	goto	i2u390_40
  8813  00192C  5021               	movf	(___fldiv@new_exp+1)^0,w,c
  8814  00192E  E106               	bnz	i2u390_41
  8815  001930  0420               	decf	___fldiv@new_exp^0,w,c
  8816  001932  B0D8               	btfsc	status,0,c
  8817  001934  EF9E  F00C         	goto	i2u390_41
  8818  001938  EFA0  F00C         	goto	i2u390_40
  8819  00193C                     i2u390_41:
  8820  00193C  EFAE  F00C         	goto	i2l4108
  8821  001940                     i2u390_40:
  8822  001940  0E00               	movlw	0
  8823  001942  6E21               	movwf	(___fldiv@new_exp+1)^0,c
  8824  001944  0E00               	movlw	0
  8825  001946  6E20               	movwf	___fldiv@new_exp^0,c
  8826  001948  0E00               	movlw	0
  8827  00194A  6E0F               	movwf	___fldiv@b^0,c
  8828  00194C  0E00               	movlw	0
  8829  00194E  6E10               	movwf	(___fldiv@b+1)^0,c
  8830  001950  0E00               	movlw	0
  8831  001952  6E11               	movwf	(___fldiv@b+2)^0,c
  8832  001954  0E00               	movlw	0
  8833  001956  6E12               	movwf	(___fldiv@b+3)^0,c
  8834  001958  0E00               	movlw	0
  8835  00195A  6E1F               	movwf	___fldiv@sign^0,c
  8836  00195C                     i2l4108:
  8837  00195C  C020  F026         	movff	___fldiv@new_exp,___fldiv@bexp
  8838  001960  A026               	btfss	___fldiv@bexp^0,0,c
  8839  001962  EFB5  F00C         	goto	i2u391_41
  8840  001966  EFB7  F00C         	goto	i2u391_40
  8841  00196A                     i2u391_41:
  8842  00196A  EFBA  F00C         	goto	i2l4114
  8843  00196E                     i2u391_40:
  8844  00196E  8E11               	bsf	(___fldiv@b+2)^0,7,c
  8845  001970  EFBB  F00C         	goto	i2l4116
  8846  001974                     i2l4114:
  8847  001974  9E11               	bcf	(___fldiv@b+2)^0,7,c
  8848  001976                     i2l4116:
  8849  001976  90D8               	bcf	status,0,c
  8850  001978  3026               	rrcf	___fldiv@bexp^0,w,c
  8851  00197A  6E12               	movwf	(___fldiv@b+3)^0,c
  8852  00197C  EF71  F00B         	goto	i2l4030
  8853  001980                     i2l1207:
  8854  001980  0012               	return		;funcret
  8855  001982                     __end_of___fldiv:
  8856                           	opt callstack 0
  8857                           
  8858 ;; *************** function ___fladd *****************
  8859 ;; Defined at:
  8860 ;;		line 10 in file "C:\Program Files (x86)\Microchip\xc8\v2.10\pic\sources\c99\common\sprcadd.c"
  8861 ;; Parameters:    Size  Location     Type
  8862 ;;  b               4   39[COMRAM] unsigned char 
  8863 ;;  a               4   43[COMRAM] unsigned char 
  8864 ;; Auto vars:     Size  Location     Type
  8865 ;;  grs             1   54[COMRAM] unsigned char 
  8866 ;;  bexp            1   53[COMRAM] unsigned char 
  8867 ;;  aexp            1   52[COMRAM] unsigned char 
  8868 ;;  signs           1   51[COMRAM] unsigned char 
  8869 ;; Return value:  Size  Location     Type
  8870 ;;                  4   39[COMRAM] unsigned char 
  8871 ;; Registers used:
  8872 ;;		wreg, status,2, status,0
  8873 ;; Tracked objects:
  8874 ;;		On entry : 0/0
  8875 ;;		On exit  : 0/0
  8876 ;;		Unchanged: 0/0
  8877 ;; Data sizes:     COMRAM   BANK0   BANK1   BANK2   BANK3   BANK4   BANK5   BANK6   BANK7
  8878 ;;      Params:         8       0       0       0       0       0       0       0       0
  8879 ;;      Locals:         4       0       0       0       0       0       0       0       0
  8880 ;;      Temps:          4       0       0       0       0       0       0       0       0
  8881 ;;      Totals:        16       0       0       0       0       0       0       0       0
  8882 ;;Total ram usage:       16 bytes
  8883 ;; Hardware stack levels used:    1
  8884 ;; This function calls:
  8885 ;;		Nothing
  8886 ;; This function is called by:
  8887 ;;		_us_irs
  8888 ;; This function uses a non-reentrant model
  8889 ;;
  8890                           
  8891                           	psect	text44
  8892  00080A                     __ptext44:
  8893                           	opt callstack 0
  8894  00080A                     ___fladd:
  8895                           	opt callstack 18
  8896  00080A  502B               	movf	(___fladd@b+3)^0,w,c
  8897  00080C  0B80               	andlw	128
  8898  00080E  6E34               	movwf	___fladd@signs^0,c
  8899  000810  502B               	movf	(___fladd@b+3)^0,w,c
  8900  000812  242B               	addwf	(___fladd@b+3)^0,w,c
  8901  000814  6E36               	movwf	___fladd@bexp^0,c
  8902  000816  AE2A               	btfss	(___fladd@b+2)^0,7,c
  8903  000818  EF10  F004         	goto	i2u330_41
  8904  00081C  EF12  F004         	goto	i2u330_40
  8905  000820                     i2u330_41:
  8906  000820  EF13  F004         	goto	i2l3790
  8907  000824                     i2u330_40:
  8908  000824  8036               	bsf	___fladd@bexp^0,0,c
  8909  000826                     i2l3790:
  8910  000826  5036               	movf	___fladd@bexp^0,w,c
  8911  000828  B4D8               	btfsc	status,2,c
  8912  00082A  EF19  F004         	goto	i2u331_41
  8913  00082E  EF1B  F004         	goto	i2u331_40
  8914  000832                     i2u331_41:
  8915  000832  EF30  F004         	goto	i2l3800
  8916  000836                     i2u331_40:
  8917  000836  2836               	incf	___fladd@bexp^0,w,c
  8918  000838  A4D8               	btfss	status,2,c
  8919  00083A  EF21  F004         	goto	i2u332_41
  8920  00083E  EF23  F004         	goto	i2u332_40
  8921  000842                     i2u332_41:
  8922  000842  EF2B  F004         	goto	i2l3796
  8923  000846                     i2u332_40:
  8924  000846  0E00               	movlw	0
  8925  000848  6E28               	movwf	___fladd@b^0,c
  8926  00084A  0E00               	movlw	0
  8927  00084C  6E29               	movwf	(___fladd@b+1)^0,c
  8928  00084E  0E00               	movlw	0
  8929  000850  6E2A               	movwf	(___fladd@b+2)^0,c
  8930  000852  0E00               	movlw	0
  8931  000854  6E2B               	movwf	(___fladd@b+3)^0,c
  8932  000856                     i2l3796:
  8933  000856  8E2A               	bsf	(___fladd@b+2)^0,7,c
  8934  000858  0E00               	movlw	0
  8935  00085A  6E2B               	movwf	(___fladd@b+3)^0,c
  8936  00085C  EF38  F004         	goto	i2l3802
  8937  000860                     i2l3800:
  8938  000860  0E00               	movlw	0
  8939  000862  6E28               	movwf	___fladd@b^0,c
  8940  000864  0E00               	movlw	0
  8941  000866  6E29               	movwf	(___fladd@b+1)^0,c
  8942  000868  0E00               	movlw	0
  8943  00086A  6E2A               	movwf	(___fladd@b+2)^0,c
  8944  00086C  0E00               	movlw	0
  8945  00086E  6E2B               	movwf	(___fladd@b+3)^0,c
  8946  000870                     i2l3802:
  8947  000870  502F               	movf	(___fladd@a+3)^0,w,c
  8948  000872  0B80               	andlw	128
  8949  000874  6E35               	movwf	___fladd@aexp^0,c
  8950  000876  5034               	movf	___fladd@signs^0,w,c
  8951  000878  1835               	xorwf	___fladd@aexp^0,w,c
  8952  00087A  B4D8               	btfsc	status,2,c
  8953  00087C  EF42  F004         	goto	i2u333_41
  8954  000880  EF44  F004         	goto	i2u333_40
  8955  000884                     i2u333_41:
  8956  000884  EF45  F004         	goto	i2l3808
  8957  000888                     i2u333_40:
  8958  000888  8C34               	bsf	___fladd@signs^0,6,c
  8959  00088A                     i2l3808:
  8960  00088A  502F               	movf	(___fladd@a+3)^0,w,c
  8961  00088C  242F               	addwf	(___fladd@a+3)^0,w,c
  8962  00088E  6E35               	movwf	___fladd@aexp^0,c
  8963  000890  AE2E               	btfss	(___fladd@a+2)^0,7,c
  8964  000892  EF4D  F004         	goto	i2u334_41
  8965  000896  EF4F  F004         	goto	i2u334_40
  8966  00089A                     i2u334_41:
  8967  00089A  EF50  F004         	goto	i2l3814
  8968  00089E                     i2u334_40:
  8969  00089E  8035               	bsf	___fladd@aexp^0,0,c
  8970  0008A0                     i2l3814:
  8971  0008A0  5035               	movf	___fladd@aexp^0,w,c
  8972  0008A2  B4D8               	btfsc	status,2,c
  8973  0008A4  EF56  F004         	goto	i2u335_41
  8974  0008A8  EF58  F004         	goto	i2u335_40
  8975  0008AC                     i2u335_41:
  8976  0008AC  EF6D  F004         	goto	i2l3824
  8977  0008B0                     i2u335_40:
  8978  0008B0  2835               	incf	___fladd@aexp^0,w,c
  8979  0008B2  A4D8               	btfss	status,2,c
  8980  0008B4  EF5E  F004         	goto	i2u336_41
  8981  0008B8  EF60  F004         	goto	i2u336_40
  8982  0008BC                     i2u336_41:
  8983  0008BC  EF68  F004         	goto	i2l3820
  8984  0008C0                     i2u336_40:
  8985  0008C0  0E00               	movlw	0
  8986  0008C2  6E2C               	movwf	___fladd@a^0,c
  8987  0008C4  0E00               	movlw	0
  8988  0008C6  6E2D               	movwf	(___fladd@a+1)^0,c
  8989  0008C8  0E00               	movlw	0
  8990  0008CA  6E2E               	movwf	(___fladd@a+2)^0,c
  8991  0008CC  0E00               	movlw	0
  8992  0008CE  6E2F               	movwf	(___fladd@a+3)^0,c
  8993  0008D0                     i2l3820:
  8994  0008D0  8E2E               	bsf	(___fladd@a+2)^0,7,c
  8995  0008D2  0E00               	movlw	0
  8996  0008D4  6E2F               	movwf	(___fladd@a+3)^0,c
  8997  0008D6  EF75  F004         	goto	i2l3826
  8998  0008DA                     i2l3824:
  8999  0008DA  0E00               	movlw	0
  9000  0008DC  6E2C               	movwf	___fladd@a^0,c
  9001  0008DE  0E00               	movlw	0
  9002  0008E0  6E2D               	movwf	(___fladd@a+1)^0,c
  9003  0008E2  0E00               	movlw	0
  9004  0008E4  6E2E               	movwf	(___fladd@a+2)^0,c
  9005  0008E6  0E00               	movlw	0
  9006  0008E8  6E2F               	movwf	(___fladd@a+3)^0,c
  9007  0008EA                     i2l3826:
  9008  0008EA  5036               	movf	___fladd@bexp^0,w,c
  9009  0008EC  5C35               	subwf	___fladd@aexp^0,w,c
  9010  0008EE  B0D8               	btfsc	status,0,c
  9011  0008F0  EF7C  F004         	goto	i2u337_41
  9012  0008F4  EF7E  F004         	goto	i2u337_40
  9013  0008F8                     i2u337_41:
  9014  0008F8  EFA5  F004         	goto	i2l3862
  9015  0008FC                     i2u337_40:
  9016  0008FC  AC34               	btfss	___fladd@signs^0,6,c
  9017  0008FE  EF83  F004         	goto	i2u338_41
  9018  000902  EF85  F004         	goto	i2u338_40
  9019  000906                     i2u338_41:
  9020  000906  EF87  F004         	goto	i2l3832
  9021  00090A                     i2u338_40:
  9022  00090A  0E80               	movlw	128
  9023  00090C  1A34               	xorwf	___fladd@signs^0,f,c
  9024  00090E                     i2l3832:
  9025  00090E  C036  F037         	movff	___fladd@bexp,___fladd@grs
  9026  000912  C035  F036         	movff	___fladd@aexp,___fladd@bexp
  9027  000916  C037  F035         	movff	___fladd@grs,___fladd@aexp
  9028  00091A  C028  F037         	movff	___fladd@b,___fladd@grs
  9029  00091E  C02C  F028         	movff	___fladd@a,___fladd@b
  9030  000922  C037  F02C         	movff	___fladd@grs,___fladd@a
  9031  000926  C029  F037         	movff	___fladd@b+1,___fladd@grs
  9032  00092A  C02D  F029         	movff	___fladd@a+1,___fladd@b+1
  9033  00092E  C037  F02D         	movff	___fladd@grs,___fladd@a+1
  9034  000932  C02A  F037         	movff	___fladd@b+2,___fladd@grs
  9035  000936  C02E  F02A         	movff	___fladd@a+2,___fladd@b+2
  9036  00093A  C037  F02E         	movff	___fladd@grs,___fladd@a+2
  9037  00093E  C02B  F037         	movff	___fladd@b+3,___fladd@grs
  9038  000942  C02F  F02B         	movff	___fladd@a+3,___fladd@b+3
  9039  000946  C037  F02F         	movff	___fladd@grs,___fladd@a+3
  9040  00094A                     i2l3862:
  9041  00094A  0E00               	movlw	0
  9042  00094C  6E37               	movwf	___fladd@grs^0,c
  9043  00094E  5036               	movf	___fladd@bexp^0,w,c
  9044  000950  C035  F030         	movff	___fladd@aexp,??___fladd
  9045  000954  6A31               	clrf	(??___fladd+1)^0,c
  9046  000956  5E30               	subwf	??___fladd^0,f,c
  9047  000958  0E00               	movlw	0
  9048  00095A  5A31               	subwfb	(??___fladd+1)^0,f,c
  9049  00095C  BE31               	btfsc	(??___fladd+1)^0,7,c
  9050  00095E  EFBA  F004         	goto	i2u339_41
  9051  000962  5031               	movf	(??___fladd+1)^0,w,c
  9052  000964  E109               	bnz	i2u339_40
  9053  000966  0E1A               	movlw	26
  9054  000968  5C30               	subwf	??___fladd^0,w,c
  9055  00096A  A0D8               	btfss	status,0,c
  9056  00096C  EFBA  F004         	goto	i2u339_41
  9057  000970  EFBC  F004         	goto	i2u339_40
  9058  000974                     i2u339_41:
  9059  000974  EFF3  F004         	goto	i2l1154
  9060  000978                     i2u339_40:
  9061  000978  5028               	movf	___fladd@b^0,w,c
  9062  00097A  1029               	iorwf	(___fladd@b+1)^0,w,c
  9063  00097C  102A               	iorwf	(___fladd@b+2)^0,w,c
  9064  00097E  102B               	iorwf	(___fladd@b+3)^0,w,c
  9065  000980  A4D8               	btfss	status,2,c
  9066  000982  EFC5  F004         	goto	i2u340_41
  9067  000986  EFC8  F004         	goto	i2u340_40
  9068  00098A                     i2u340_41:
  9069  00098A  0E01               	movlw	1
  9070  00098C  EFC9  F004         	goto	i2u341_40
  9071  000990                     i2u340_40:
  9072  000990  0E00               	movlw	0
  9073  000992                     i2u341_40:
  9074  000992  6E37               	movwf	___fladd@grs^0,c
  9075  000994  0E00               	movlw	0
  9076  000996  6E28               	movwf	___fladd@b^0,c
  9077  000998  0E00               	movlw	0
  9078  00099A  6E29               	movwf	(___fladd@b+1)^0,c
  9079  00099C  0E00               	movlw	0
  9080  00099E  6E2A               	movwf	(___fladd@b+2)^0,c
  9081  0009A0  0E00               	movlw	0
  9082  0009A2  6E2B               	movwf	(___fladd@b+3)^0,c
  9083  0009A4  C035  F036         	movff	___fladd@aexp,___fladd@bexp
  9084  0009A8  EFFC  F004         	goto	i2l1153
  9085  0009AC                     i2l1155:
  9086  0009AC  A037               	btfss	___fladd@grs^0,0,c
  9087  0009AE  EFDB  F004         	goto	i2u342_41
  9088  0009B2  EFDD  F004         	goto	i2u342_40
  9089  0009B6                     i2u342_41:
  9090  0009B6  EFE3  F004         	goto	i2l3874
  9091  0009BA                     i2u342_40:
  9092  0009BA  90D8               	bcf	status,0,c
  9093  0009BC  3037               	rrcf	___fladd@grs^0,w,c
  9094  0009BE  0901               	iorlw	1
  9095  0009C0  6E37               	movwf	___fladd@grs^0,c
  9096  0009C2  EFE5  F004         	goto	i2l3876
  9097  0009C6                     i2l3874:
  9098  0009C6  90D8               	bcf	status,0,c
  9099  0009C8  3237               	rrcf	___fladd@grs^0,f,c
  9100  0009CA                     i2l3876:
  9101  0009CA  A028               	btfss	___fladd@b^0,0,c
  9102  0009CC  EFEA  F004         	goto	i2u343_41
  9103  0009D0  EFEC  F004         	goto	i2u343_40
  9104  0009D4                     i2u343_41:
  9105  0009D4  EFED  F004         	goto	i2l3880
  9106  0009D8                     i2u343_40:
  9107  0009D8  8E37               	bsf	___fladd@grs^0,7,c
  9108  0009DA                     i2l3880:
  9109  0009DA  342B               	rlcf	(___fladd@b+3)^0,w,c
  9110  0009DC  322B               	rrcf	(___fladd@b+3)^0,f,c
  9111  0009DE  322A               	rrcf	(___fladd@b+2)^0,f,c
  9112  0009E0  3229               	rrcf	(___fladd@b+1)^0,f,c
  9113  0009E2  3228               	rrcf	___fladd@b^0,f,c
  9114  0009E4  2A36               	incf	___fladd@bexp^0,f,c
  9115  0009E6                     i2l1154:
  9116  0009E6  5035               	movf	___fladd@aexp^0,w,c
  9117  0009E8  5C36               	subwf	___fladd@bexp^0,w,c
  9118  0009EA  A0D8               	btfss	status,0,c
  9119  0009EC  EFFA  F004         	goto	i2u344_41
  9120  0009F0  EFFC  F004         	goto	i2u344_40
  9121  0009F4                     i2u344_41:
  9122  0009F4  EFD6  F004         	goto	i2l1155
  9123  0009F8                     i2u344_40:
  9124  0009F8                     i2l1153:
  9125  0009F8  BC34               	btfsc	___fladd@signs^0,6,c
  9126  0009FA  EF01  F005         	goto	i2u345_41
  9127  0009FE  EF03  F005         	goto	i2u345_40
  9128  000A02                     i2u345_41:
  9129  000A02  EF43  F005         	goto	i2l3908
  9130  000A06                     i2u345_40:
  9131  000A06  5036               	movf	___fladd@bexp^0,w,c
  9132  000A08  A4D8               	btfss	status,2,c
  9133  000A0A  EF09  F005         	goto	i2u346_41
  9134  000A0E  EF0B  F005         	goto	i2u346_40
  9135  000A12                     i2u346_41:
  9136  000A12  EF15  F005         	goto	i2l3890
  9137  000A16                     i2u346_40:
  9138  000A16  0E00               	movlw	0
  9139  000A18  6E28               	movwf	?___fladd^0,c
  9140  000A1A  0E00               	movlw	0
  9141  000A1C  6E29               	movwf	(?___fladd+1)^0,c
  9142  000A1E  0E00               	movlw	0
  9143  000A20  6E2A               	movwf	(?___fladd+2)^0,c
  9144  000A22  0E00               	movlw	0
  9145  000A24  6E2B               	movwf	(?___fladd+3)^0,c
  9146  000A26  EF64  F006         	goto	i2l1162
  9147  000A2A                     i2l3890:
  9148  000A2A  502C               	movf	___fladd@a^0,w,c
  9149  000A2C  2628               	addwf	___fladd@b^0,f,c
  9150  000A2E  502D               	movf	(___fladd@a+1)^0,w,c
  9151  000A30  2229               	addwfc	(___fladd@b+1)^0,f,c
  9152  000A32  502E               	movf	(___fladd@a+2)^0,w,c
  9153  000A34  222A               	addwfc	(___fladd@b+2)^0,f,c
  9154  000A36  502F               	movf	(___fladd@a+3)^0,w,c
  9155  000A38  222B               	addwfc	(___fladd@b+3)^0,f,c
  9156  000A3A  A02B               	btfss	(___fladd@b+3)^0,0,c
  9157  000A3C  EF22  F005         	goto	i2u347_41
  9158  000A40  EF24  F005         	goto	i2u347_40
  9159  000A44                     i2u347_41:
  9160  000A44  EFD0  F005         	goto	i2l3944
  9161  000A48                     i2u347_40:
  9162  000A48  A037               	btfss	___fladd@grs^0,0,c
  9163  000A4A  EF29  F005         	goto	i2u348_41
  9164  000A4E  EF2B  F005         	goto	i2u348_40
  9165  000A52                     i2u348_41:
  9166  000A52  EF31  F005         	goto	i2l3898
  9167  000A56                     i2u348_40:
  9168  000A56  90D8               	bcf	status,0,c
  9169  000A58  3037               	rrcf	___fladd@grs^0,w,c
  9170  000A5A  0901               	iorlw	1
  9171  000A5C  6E37               	movwf	___fladd@grs^0,c
  9172  000A5E  EF33  F005         	goto	i2l3900
  9173  000A62                     i2l3898:
  9174  000A62  90D8               	bcf	status,0,c
  9175  000A64  3237               	rrcf	___fladd@grs^0,f,c
  9176  000A66                     i2l3900:
  9177  000A66  A028               	btfss	___fladd@b^0,0,c
  9178  000A68  EF38  F005         	goto	i2u349_41
  9179  000A6C  EF3A  F005         	goto	i2u349_40
  9180  000A70                     i2u349_41:
  9181  000A70  EF3B  F005         	goto	i2l3904
  9182  000A74                     i2u349_40:
  9183  000A74  8E37               	bsf	___fladd@grs^0,7,c
  9184  000A76                     i2l3904:
  9185  000A76  342B               	rlcf	(___fladd@b+3)^0,w,c
  9186  000A78  322B               	rrcf	(___fladd@b+3)^0,f,c
  9187  000A7A  322A               	rrcf	(___fladd@b+2)^0,f,c
  9188  000A7C  3229               	rrcf	(___fladd@b+1)^0,f,c
  9189  000A7E  3228               	rrcf	___fladd@b^0,f,c
  9190  000A80  2A36               	incf	___fladd@bexp^0,f,c
  9191  000A82  EFD0  F005         	goto	i2l3944
  9192  000A86                     i2l3908:
  9193  000A86  502C               	movf	___fladd@a^0,w,c
  9194  000A88  5C28               	subwf	___fladd@b^0,w,c
  9195  000A8A  502D               	movf	(___fladd@a+1)^0,w,c
  9196  000A8C  5829               	subwfb	(___fladd@b+1)^0,w,c
  9197  000A8E  502E               	movf	(___fladd@a+2)^0,w,c
  9198  000A90  582A               	subwfb	(___fladd@b+2)^0,w,c
  9199  000A92  502B               	movf	(___fladd@b+3)^0,w,c
  9200  000A94  0A80               	xorlw	128
  9201  000A96  6E30               	movwf	??___fladd^0,c
  9202  000A98  502F               	movf	(___fladd@a+3)^0,w,c
  9203  000A9A  0A80               	xorlw	128
  9204  000A9C  5830               	subwfb	??___fladd^0,w,c
  9205  000A9E  B0D8               	btfsc	status,0,c
  9206  000AA0  EF54  F005         	goto	i2u350_41
  9207  000AA4  EF56  F005         	goto	i2u350_40
  9208  000AA8                     i2u350_41:
  9209  000AA8  EF81  F005         	goto	i2l3918
  9210  000AAC                     i2u350_40:
  9211  000AAC  5028               	movf	___fladd@b^0,w,c
  9212  000AAE  5C2C               	subwf	___fladd@a^0,w,c
  9213  000AB0  6E30               	movwf	??___fladd^0,c
  9214  000AB2  5029               	movf	(___fladd@b+1)^0,w,c
  9215  000AB4  582D               	subwfb	(___fladd@a+1)^0,w,c
  9216  000AB6  6E31               	movwf	(??___fladd+1)^0,c
  9217  000AB8  502A               	movf	(___fladd@b+2)^0,w,c
  9218  000ABA  582E               	subwfb	(___fladd@a+2)^0,w,c
  9219  000ABC  6E32               	movwf	(??___fladd+2)^0,c
  9220  000ABE  502B               	movf	(___fladd@b+3)^0,w,c
  9221  000AC0  582F               	subwfb	(___fladd@a+3)^0,w,c
  9222  000AC2  6E33               	movwf	(??___fladd+3)^0,c
  9223  000AC4  0EFF               	movlw	255
  9224  000AC6  2430               	addwf	??___fladd^0,w,c
  9225  000AC8  6E28               	movwf	___fladd@b^0,c
  9226  000ACA  0EFF               	movlw	255
  9227  000ACC  2031               	addwfc	(??___fladd+1)^0,w,c
  9228  000ACE  6E29               	movwf	(___fladd@b+1)^0,c
  9229  000AD0  0EFF               	movlw	255
  9230  000AD2  2032               	addwfc	(??___fladd+2)^0,w,c
  9231  000AD4  6E2A               	movwf	(___fladd@b+2)^0,c
  9232  000AD6  0EFF               	movlw	255
  9233  000AD8  2033               	addwfc	(??___fladd+3)^0,w,c
  9234  000ADA  6E2B               	movwf	(___fladd@b+3)^0,c
  9235  000ADC  0E80               	movlw	128
  9236  000ADE  1A34               	xorwf	___fladd@signs^0,f,c
  9237  000AE0  6C37               	negf	___fladd@grs^0,c
  9238  000AE2  5037               	movf	___fladd@grs^0,w,c
  9239  000AE4  A4D8               	btfss	status,2,c
  9240  000AE6  EF77  F005         	goto	i2u351_41
  9241  000AEA  EF79  F005         	goto	i2u351_40
  9242  000AEE                     i2u351_41:
  9243  000AEE  EF89  F005         	goto	i2l1170
  9244  000AF2                     i2u351_40:
  9245  000AF2  0E01               	movlw	1
  9246  000AF4  2628               	addwf	___fladd@b^0,f,c
  9247  000AF6  0E00               	movlw	0
  9248  000AF8  2229               	addwfc	(___fladd@b+1)^0,f,c
  9249  000AFA  222A               	addwfc	(___fladd@b+2)^0,f,c
  9250  000AFC  222B               	addwfc	(___fladd@b+3)^0,f,c
  9251  000AFE  EF89  F005         	goto	i2l1170
  9252  000B02                     i2l3918:
  9253  000B02  502C               	movf	___fladd@a^0,w,c
  9254  000B04  5E28               	subwf	___fladd@b^0,f,c
  9255  000B06  502D               	movf	(___fladd@a+1)^0,w,c
  9256  000B08  5A29               	subwfb	(___fladd@b+1)^0,f,c
  9257  000B0A  502E               	movf	(___fladd@a+2)^0,w,c
  9258  000B0C  5A2A               	subwfb	(___fladd@b+2)^0,f,c
  9259  000B0E  502F               	movf	(___fladd@a+3)^0,w,c
  9260  000B10  5A2B               	subwfb	(___fladd@b+3)^0,f,c
  9261  000B12                     i2l1170:
  9262  000B12  5028               	movf	___fladd@b^0,w,c
  9263  000B14  1029               	iorwf	(___fladd@b+1)^0,w,c
  9264  000B16  102A               	iorwf	(___fladd@b+2)^0,w,c
  9265  000B18  102B               	iorwf	(___fladd@b+3)^0,w,c
  9266  000B1A  A4D8               	btfss	status,2,c
  9267  000B1C  EF92  F005         	goto	i2u352_41
  9268  000B20  EF94  F005         	goto	i2u352_40
  9269  000B24                     i2u352_41:
  9270  000B24  EFC9  F005         	goto	i2l3942
  9271  000B28                     i2u352_40:
  9272  000B28  5037               	movf	___fladd@grs^0,w,c
  9273  000B2A  A4D8               	btfss	status,2,c
  9274  000B2C  EF9A  F005         	goto	i2u353_41
  9275  000B30  EF9C  F005         	goto	i2u353_40
  9276  000B34                     i2u353_41:
  9277  000B34  EFC9  F005         	goto	i2l3942
  9278  000B38                     i2u353_40:
  9279  000B38  0E00               	movlw	0
  9280  000B3A  6E28               	movwf	?___fladd^0,c
  9281  000B3C  0E00               	movlw	0
  9282  000B3E  6E29               	movwf	(?___fladd+1)^0,c
  9283  000B40  0E00               	movlw	0
  9284  000B42  6E2A               	movwf	(?___fladd+2)^0,c
  9285  000B44  0E00               	movlw	0
  9286  000B46  6E2B               	movwf	(?___fladd+3)^0,c
  9287  000B48  EF64  F006         	goto	i2l1162
  9288  000B4C                     i2l3926:
  9289  000B4C  90D8               	bcf	status,0,c
  9290  000B4E  3628               	rlcf	___fladd@b^0,f,c
  9291  000B50  3629               	rlcf	(___fladd@b+1)^0,f,c
  9292  000B52  362A               	rlcf	(___fladd@b+2)^0,f,c
  9293  000B54  362B               	rlcf	(___fladd@b+3)^0,f,c
  9294  000B56  AE37               	btfss	___fladd@grs^0,7,c
  9295  000B58  EFB0  F005         	goto	i2u354_41
  9296  000B5C  EFB2  F005         	goto	i2u354_40
  9297  000B60                     i2u354_41:
  9298  000B60  EFB3  F005         	goto	i2l3932
  9299  000B64                     i2u354_40:
  9300  000B64  8028               	bsf	___fladd@b^0,0,c
  9301  000B66                     i2l3932:
  9302  000B66  A037               	btfss	___fladd@grs^0,0,c
  9303  000B68  EFB8  F005         	goto	i2u355_41
  9304  000B6C  EFBA  F005         	goto	i2u355_40
  9305  000B70                     i2u355_41:
  9306  000B70  EFBE  F005         	goto	i2l3936
  9307  000B74                     i2u355_40:
  9308  000B74  80D8               	bsf	status,0,c
  9309  000B76  3637               	rlcf	___fladd@grs^0,f,c
  9310  000B78  EFC0  F005         	goto	i2l3938
  9311  000B7C                     i2l3936:
  9312  000B7C  90D8               	bcf	status,0,c
  9313  000B7E  3637               	rlcf	___fladd@grs^0,f,c
  9314  000B80                     i2l3938:
  9315  000B80  5036               	movf	___fladd@bexp^0,w,c
  9316  000B82  B4D8               	btfsc	status,2,c
  9317  000B84  EFC6  F005         	goto	i2u356_41
  9318  000B88  EFC8  F005         	goto	i2u356_40
  9319  000B8C                     i2u356_41:
  9320  000B8C  EFC9  F005         	goto	i2l3942
  9321  000B90                     i2u356_40:
  9322  000B90  0636               	decf	___fladd@bexp^0,f,c
  9323  000B92                     i2l3942:
  9324  000B92  AE2A               	btfss	(___fladd@b+2)^0,7,c
  9325  000B94  EFCE  F005         	goto	i2u357_41
  9326  000B98  EFD0  F005         	goto	i2u357_40
  9327  000B9C                     i2u357_41:
  9328  000B9C  EFA6  F005         	goto	i2l3926
  9329  000BA0                     i2u357_40:
  9330  000BA0                     i2l3944:
  9331  000BA0  0E00               	movlw	0
  9332  000BA2  6E35               	movwf	___fladd@aexp^0,c
  9333  000BA4  AE37               	btfss	___fladd@grs^0,7,c
  9334  000BA6  EFD7  F005         	goto	i2u358_41
  9335  000BAA  EFD9  F005         	goto	i2u358_40
  9336  000BAE                     i2u358_41:
  9337  000BAE  EFF1  F005         	goto	i2l1179
  9338  000BB2                     i2u358_40:
  9339  000BB2  C037  F030         	movff	___fladd@grs,??___fladd
  9340  000BB6  0E7F               	movlw	127
  9341  000BB8  1630               	andwf	??___fladd^0,f,c
  9342  000BBA  B4D8               	btfsc	status,2,c
  9343  000BBC  EFE2  F005         	goto	i2u359_41
  9344  000BC0  EFE4  F005         	goto	i2u359_40
  9345  000BC4                     i2u359_41:
  9346  000BC4  EFE8  F005         	goto	i2l1180
  9347  000BC8                     i2u359_40:
  9348  000BC8                     i2l3950:
  9349  000BC8  0E01               	movlw	1
  9350  000BCA  6E35               	movwf	___fladd@aexp^0,c
  9351  000BCC  EFF1  F005         	goto	i2l1179
  9352  000BD0                     i2l1180:
  9353  000BD0  A028               	btfss	___fladd@b^0,0,c
  9354  000BD2  EFED  F005         	goto	i2u360_41
  9355  000BD6  EFEF  F005         	goto	i2u360_40
  9356  000BDA                     i2u360_41:
  9357  000BDA  EFF1  F005         	goto	i2l1179
  9358  000BDE                     i2u360_40:
  9359  000BDE  EFE4  F005         	goto	i2l3950
  9360  000BE2                     i2l1179:
  9361  000BE2  5035               	movf	___fladd@aexp^0,w,c
  9362  000BE4  B4D8               	btfsc	status,2,c
  9363  000BE6  EFF7  F005         	goto	i2u361_41
  9364  000BEA  EFF9  F005         	goto	i2u361_40
  9365  000BEE                     i2u361_41:
  9366  000BEE  EF24  F006         	goto	i2l3962
  9367  000BF2                     i2u361_40:
  9368  000BF2  0E01               	movlw	1
  9369  000BF4  2628               	addwf	___fladd@b^0,f,c
  9370  000BF6  0E00               	movlw	0
  9371  000BF8  2229               	addwfc	(___fladd@b+1)^0,f,c
  9372  000BFA  222A               	addwfc	(___fladd@b+2)^0,f,c
  9373  000BFC  222B               	addwfc	(___fladd@b+3)^0,f,c
  9374  000BFE  A02B               	btfss	(___fladd@b+3)^0,0,c
  9375  000C00  EF04  F006         	goto	i2u362_41
  9376  000C04  EF06  F006         	goto	i2u362_40
  9377  000C08                     i2u362_41:
  9378  000C08  EF24  F006         	goto	i2l3962
  9379  000C0C                     i2u362_40:
  9380  000C0C  C028  F030         	movff	___fladd@b,??___fladd
  9381  000C10  C029  F031         	movff	___fladd@b+1,??___fladd+1
  9382  000C14  C02A  F032         	movff	___fladd@b+2,??___fladd+2
  9383  000C18  C02B  F033         	movff	___fladd@b+3,??___fladd+3
  9384  000C1C  3433               	rlcf	(??___fladd+3)^0,w,c
  9385  000C1E  3233               	rrcf	(??___fladd+3)^0,f,c
  9386  000C20  3232               	rrcf	(??___fladd+2)^0,f,c
  9387  000C22  3231               	rrcf	(??___fladd+1)^0,f,c
  9388  000C24  3230               	rrcf	??___fladd^0,f,c
  9389  000C26  C030  F028         	movff	??___fladd,___fladd@b
  9390  000C2A  C031  F029         	movff	??___fladd+1,___fladd@b+1
  9391  000C2E  C032  F02A         	movff	??___fladd+2,___fladd@b+2
  9392  000C32  C033  F02B         	movff	??___fladd+3,___fladd@b+3
  9393  000C36  2836               	incf	___fladd@bexp^0,w,c
  9394  000C38  B4D8               	btfsc	status,2,c
  9395  000C3A  EF21  F006         	goto	i2u363_41
  9396  000C3E  EF23  F006         	goto	i2u363_40
  9397  000C42                     i2u363_41:
  9398  000C42  EF24  F006         	goto	i2l3962
  9399  000C46                     i2u363_40:
  9400  000C46  2A36               	incf	___fladd@bexp^0,f,c
  9401  000C48                     i2l3962:
  9402  000C48  2836               	incf	___fladd@bexp^0,w,c
  9403  000C4A  B4D8               	btfsc	status,2,c
  9404  000C4C  EF2A  F006         	goto	i2u364_41
  9405  000C50  EF2C  F006         	goto	i2u364_40
  9406  000C54                     i2u364_41:
  9407  000C54  EF34  F006         	goto	i2l3966
  9408  000C58                     i2u364_40:
  9409  000C58  5036               	movf	___fladd@bexp^0,w,c
  9410  000C5A  A4D8               	btfss	status,2,c
  9411  000C5C  EF32  F006         	goto	i2u365_41
  9412  000C60  EF34  F006         	goto	i2u365_40
  9413  000C64                     i2u365_41:
  9414  000C64  EF46  F006         	goto	i2l3970
  9415  000C68                     i2u365_40:
  9416  000C68                     i2l3966:
  9417  000C68  0E00               	movlw	0
  9418  000C6A  6E28               	movwf	___fladd@b^0,c
  9419  000C6C  0E00               	movlw	0
  9420  000C6E  6E29               	movwf	(___fladd@b+1)^0,c
  9421  000C70  0E00               	movlw	0
  9422  000C72  6E2A               	movwf	(___fladd@b+2)^0,c
  9423  000C74  0E00               	movlw	0
  9424  000C76  6E2B               	movwf	(___fladd@b+3)^0,c
  9425  000C78  5036               	movf	___fladd@bexp^0,w,c
  9426  000C7A  A4D8               	btfss	status,2,c
  9427  000C7C  EF42  F006         	goto	i2u366_41
  9428  000C80  EF44  F006         	goto	i2u366_40
  9429  000C84                     i2u366_41:
  9430  000C84  EF46  F006         	goto	i2l3970
  9431  000C88                     i2u366_40:
  9432  000C88  0E00               	movlw	0
  9433  000C8A  6E34               	movwf	___fladd@signs^0,c
  9434  000C8C                     i2l3970:
  9435  000C8C  A036               	btfss	___fladd@bexp^0,0,c
  9436  000C8E  EF4B  F006         	goto	i2u367_41
  9437  000C92  EF4D  F006         	goto	i2u367_40
  9438  000C96                     i2u367_41:
  9439  000C96  EF50  F006         	goto	i2l3974
  9440  000C9A                     i2u367_40:
  9441  000C9A  8E2A               	bsf	(___fladd@b+2)^0,7,c
  9442  000C9C  EF51  F006         	goto	i2l3976
  9443  000CA0                     i2l3974:
  9444  000CA0  9E2A               	bcf	(___fladd@b+2)^0,7,c
  9445  000CA2                     i2l3976:
  9446  000CA2  90D8               	bcf	status,0,c
  9447  000CA4  3036               	rrcf	___fladd@bexp^0,w,c
  9448  000CA6  6E2B               	movwf	(___fladd@b+3)^0,c
  9449  000CA8  AE34               	btfss	___fladd@signs^0,7,c
  9450  000CAA  EF59  F006         	goto	i2u368_41
  9451  000CAE  EF5B  F006         	goto	i2u368_40
  9452  000CB2                     i2u368_41:
  9453  000CB2  EF5C  F006         	goto	i2l3982
  9454  000CB6                     i2u368_40:
  9455  000CB6  8E2B               	bsf	(___fladd@b+3)^0,7,c
  9456  000CB8                     i2l3982:
  9457  000CB8  C028  F028         	movff	___fladd@b,?___fladd
  9458  000CBC  C029  F029         	movff	___fladd@b+1,?___fladd+1
  9459  000CC0  C02A  F02A         	movff	___fladd@b+2,?___fladd+2
  9460  000CC4  C02B  F02B         	movff	___fladd@b+3,?___fladd+3
  9461  000CC8                     i2l1162:
  9462  000CC8  0012               	return		;funcret
  9463  000CCA                     __end_of___fladd:
  9464                           	opt callstack 0
  9465                           
  9466 ;; *************** function _IRR *****************
  9467 ;; Defined at:
  9468 ;;		line 132 in file "senior_main.c"
  9469 ;; Parameters:    Size  Location     Type
  9470 ;;		None
  9471 ;; Auto vars:     Size  Location     Type
  9472 ;;		None
  9473 ;; Return value:  Size  Location     Type
  9474 ;;                  1    wreg      void 
  9475 ;; Registers used:
  9476 ;;		wreg, status,2, cstack
  9477 ;; Tracked objects:
  9478 ;;		On entry : 0/0
  9479 ;;		On exit  : 0/0
  9480 ;;		Unchanged: 0/0
  9481 ;; Data sizes:     COMRAM   BANK0   BANK1   BANK2   BANK3   BANK4   BANK5   BANK6   BANK7
  9482 ;;      Params:         0       0       0       0       0       0       0       0       0
  9483 ;;      Locals:         0       0       0       0       0       0       0       0       0
  9484 ;;      Temps:          0       0       0       0       0       0       0       0       0
  9485 ;;      Totals:         0       0       0       0       0       0       0       0       0
  9486 ;;Total ram usage:        0 bytes
  9487 ;; Hardware stack levels used:    1
  9488 ;; Hardware stack levels required when called:    1
  9489 ;; This function calls:
  9490 ;;		i2_forward
  9491 ;; This function is called by:
  9492 ;;		_echo
  9493 ;; This function uses a non-reentrant model
  9494 ;;
  9495                           
  9496                           	psect	text45
  9497  002CA2                     __ptext45:
  9498                           	opt callstack 0
  9499  002CA2                     _IRR:
  9500                           	opt callstack 18
  9501  002CA2                     
  9502                           ;senior_main.c: 133:         us_irs();
  9503  002CA2  EF61  F016         	goto	i2l4274
  9504  002CA6                     i2l4270:
  9505                           
  9506                           ; BSR set to: 15
  9507                           ;senior_main.c: 135:         IOCBFbits.IOCBF2 = 0;
  9508  002CA6  0E00               	movlw	0
  9509  002CA8  6EA6               	movwf	166,c	;volatile
  9510                           
  9511                           ;senior_main.c: 136:         IOCBPbits.IOCBP2 = 1;
  9512  002CAA  0E50               	movlw	80
  9513  002CAC  6EA5               	movwf	165,c	;volatile
  9514                           
  9515                           ;senior_main.c: 138: 
  9516  002CAE  0E00               	movlw	0
  9517  002CB0  6EAA               	movwf	170,c	;volatile
  9518                           
  9519                           ;senior_main.c: 139: 
  9520  002CB2  0E00               	movlw	0
  9521  002CB4  6EA9               	movwf	169,c	;volatile
  9522  002CB6                     
  9523                           ; BSR set to: 15
  9524  002CB6  0E00               	movlw	0
  9525  002CB8  6E02               	movwf	(i2forward@gostop+1)^0,c
  9526  002CBA  0E01               	movlw	1
  9527  002CBC  6E01               	movwf	i2forward@gostop^0,c
  9528  002CBE  EC82  F019         	call	i2_forward	;wreg free
  9529  002CC2                     i2l4274:
  9530                           
  9531                           ;senior_main.c: 133:         us_irs();
  9532  002CC2  B88D               	btfsc	141,4,c	;volatile
  9533  002CC4  EF66  F016         	goto	i2u423_41
  9534  002CC8  EF68  F016         	goto	i2u423_40
  9535  002CCC                     i2u423_41:
  9536  002CCC  EF80  F016         	goto	i2l4282
  9537  002CD0                     i2u423_40:
  9538  002CD0  010F               	movlb	15	; () banked
  9539  002CD2  A50D               	btfss	13,2,b	;volatile
  9540  002CD4  EF6E  F016         	goto	i2u424_41
  9541  002CD8  EF70  F016         	goto	i2u424_40
  9542  002CDC                     i2u424_41:
  9543  002CDC  EF53  F016         	goto	i2l4270
  9544  002CE0                     i2u424_40:
  9545  002CE0  EF80  F016         	goto	i2l4282
  9546  002CE4                     i2l4278:
  9547                           
  9548                           ; BSR set to: 15
  9549                           ;senior_main.c: 144:             IOCBFbits.IOCBF4 = 0;
  9550  002CE4  0E00               	movlw	0
  9551  002CE6  6EA6               	movwf	166,c	;volatile
  9552                           
  9553                           ;senior_main.c: 145:         }
  9554  002CE8  0E50               	movlw	80
  9555  002CEA  6EA5               	movwf	165,c	;volatile
  9556                           
  9557                           ;senior_main.c: 147:             IOCANbits.IOCAN3 = 0;
  9558  002CEC  0E00               	movlw	0
  9559  002CEE  6EAA               	movwf	170,c	;volatile
  9560                           
  9561                           ;senior_main.c: 148:             IOCAFbits.IOCAF3 = 0;
  9562  002CF0  0E00               	movlw	0
  9563  002CF2  6EA9               	movwf	169,c	;volatile
  9564  002CF4                     
  9565                           ; BSR set to: 15
  9566  002CF4  0E00               	movlw	0
  9567  002CF6  6E02               	movwf	(i2forward@gostop+1)^0,c
  9568  002CF8  0E01               	movlw	1
  9569  002CFA  6E01               	movwf	i2forward@gostop^0,c
  9570  002CFC  EC82  F019         	call	i2_forward	;wreg free
  9571  002D00                     i2l4282:
  9572                           
  9573                           ;senior_main.c: 142:         if(IOCBFbits.IOCBF4 == 1 && IOCBNbits.IOCBN4 == 1){
  9574  002D00  B68C               	btfsc	140,3,c	;volatile
  9575  002D02  EF85  F016         	goto	i2u425_41
  9576  002D06  EF87  F016         	goto	i2u425_40
  9577  002D0A                     i2u425_41:
  9578  002D0A  EF8F  F016         	goto	i2l4286
  9579  002D0E                     i2u425_40:
  9580  002D0E  010F               	movlb	15	; () banked
  9581  002D10  A50D               	btfss	13,2,b	;volatile
  9582  002D12  EF8D  F016         	goto	i2u426_41
  9583  002D16  EF8F  F016         	goto	i2u426_40
  9584  002D1A                     i2u426_41:
  9585  002D1A  EF72  F016         	goto	i2l4278
  9586  002D1E                     i2u426_40:
  9587  002D1E                     i2l4286:
  9588                           
  9589                           ;senior_main.c: 151:         IOCBNbits.IOCBN4 = 1;
  9590  002D1E  0E00               	movlw	0
  9591  002D20  6EAA               	movwf	170,c	;volatile
  9592                           
  9593                           ;senior_main.c: 152:         IOCANbits.IOCAN3 = 1;
  9594  002D22  0E50               	movlw	80
  9595  002D24  6EA9               	movwf	169,c	;volatile
  9596                           
  9597                           ;senior_main.c: 153:     }
  9598  002D26  0E00               	movlw	0
  9599  002D28  6EA6               	movwf	166,c	;volatile
  9600                           
  9601                           ;senior_main.c: 154: 
  9602  002D2A  0E50               	movlw	80
  9603  002D2C  6EA5               	movwf	165,c	;volatile
  9604  002D2E  0012               	return		;funcret
  9605  002D30                     __end_of_IRR:
  9606                           	opt callstack 0
  9607                           
  9608 ;; *************** function _IRL *****************
  9609 ;; Defined at:
  9610 ;;		line 103 in file "senior_main.c"
  9611 ;; Parameters:    Size  Location     Type
  9612 ;;		None
  9613 ;; Auto vars:     Size  Location     Type
  9614 ;;		None
  9615 ;; Return value:  Size  Location     Type
  9616 ;;                  1    wreg      void 
  9617 ;; Registers used:
  9618 ;;		wreg, status,2, cstack
  9619 ;; Tracked objects:
  9620 ;;		On entry : 0/0
  9621 ;;		On exit  : 0/0
  9622 ;;		Unchanged: 0/0
  9623 ;; Data sizes:     COMRAM   BANK0   BANK1   BANK2   BANK3   BANK4   BANK5   BANK6   BANK7
  9624 ;;      Params:         0       0       0       0       0       0       0       0       0
  9625 ;;      Locals:         0       0       0       0       0       0       0       0       0
  9626 ;;      Temps:          0       0       0       0       0       0       0       0       0
  9627 ;;      Totals:         0       0       0       0       0       0       0       0       0
  9628 ;;Total ram usage:        0 bytes
  9629 ;; Hardware stack levels used:    1
  9630 ;; Hardware stack levels required when called:    1
  9631 ;; This function calls:
  9632 ;;		i2_forward
  9633 ;; This function is called by:
  9634 ;;		_echo
  9635 ;; This function uses a non-reentrant model
  9636 ;;
  9637                           
  9638                           	psect	text46
  9639  002D30                     __ptext46:
  9640                           	opt callstack 0
  9641  002D30                     _IRL:
  9642                           	opt callstack 18
  9643  002D30                     
  9644                           ;senior_main.c: 104: 
  9645  002D30  EFA8  F016         	goto	i2l4254
  9646  002D34                     i2l4250:
  9647                           
  9648                           ; BSR set to: 15
  9649                           ;senior_main.c: 106:         CCPR2L = 0x50;
  9650  002D34  0E00               	movlw	0
  9651  002D36  6EAA               	movwf	170,c	;volatile
  9652                           
  9653                           ;senior_main.c: 107: 
  9654  002D38  0E50               	movlw	80
  9655  002D3A  6EA9               	movwf	169,c	;volatile
  9656                           
  9657                           ;senior_main.c: 109:         CCPR1L = 0x00;
  9658  002D3C  0E00               	movlw	0
  9659  002D3E  6EA6               	movwf	166,c	;volatile
  9660                           
  9661                           ;senior_main.c: 110:         forward(go);
  9662  002D40  0E00               	movlw	0
  9663  002D42  6EA5               	movwf	165,c	;volatile
  9664  002D44                     
  9665                           ; BSR set to: 15
  9666  002D44  0E00               	movlw	0
  9667  002D46  6E02               	movwf	(i2forward@gostop+1)^0,c
  9668  002D48  0E01               	movlw	1
  9669  002D4A  6E01               	movwf	i2forward@gostop^0,c
  9670  002D4C  EC82  F019         	call	i2_forward	;wreg free
  9671  002D50                     i2l4254:
  9672                           
  9673                           ;senior_main.c: 104: 
  9674  002D50  BA8D               	btfsc	141,5,c	;volatile
  9675  002D52  EFAD  F016         	goto	i2u419_41
  9676  002D56  EFAF  F016         	goto	i2u419_40
  9677  002D5A                     i2u419_41:
  9678  002D5A  EFC7  F016         	goto	i2l4262
  9679  002D5E                     i2u419_40:
  9680  002D5E  010F               	movlb	15	; () banked
  9681  002D60  A50D               	btfss	13,2,b	;volatile
  9682  002D62  EFB5  F016         	goto	i2u420_41
  9683  002D66  EFB7  F016         	goto	i2u420_40
  9684  002D6A                     i2u420_41:
  9685  002D6A  EF9A  F016         	goto	i2l4250
  9686  002D6E                     i2u420_40:
  9687  002D6E  EFC7  F016         	goto	i2l4262
  9688  002D72                     i2l4258:
  9689                           
  9690                           ; BSR set to: 15
  9691                           ;senior_main.c: 115:         CCPR2L = 0x50;
  9692  002D72  0E00               	movlw	0
  9693  002D74  6EAA               	movwf	170,c	;volatile
  9694                           
  9695                           ;senior_main.c: 116: 
  9696  002D76  0E50               	movlw	80
  9697  002D78  6EA9               	movwf	169,c	;volatile
  9698                           
  9699                           ;senior_main.c: 118:         CCPR1L = 0x00;
  9700  002D7A  0E00               	movlw	0
  9701  002D7C  6EA6               	movwf	166,c	;volatile
  9702                           
  9703                           ;senior_main.c: 119:         forward(go);
  9704  002D7E  0E00               	movlw	0
  9705  002D80  6EA5               	movwf	165,c	;volatile
  9706  002D82                     
  9707                           ; BSR set to: 15
  9708  002D82  0E00               	movlw	0
  9709  002D84  6E02               	movwf	(i2forward@gostop+1)^0,c
  9710  002D86  0E01               	movlw	1
  9711  002D88  6E01               	movwf	i2forward@gostop^0,c
  9712  002D8A  EC82  F019         	call	i2_forward	;wreg free
  9713  002D8E                     i2l4262:
  9714                           
  9715                           ;senior_main.c: 113: 
  9716  002D8E  B48C               	btfsc	140,2,c	;volatile
  9717  002D90  EFCC  F016         	goto	i2u421_41
  9718  002D94  EFCE  F016         	goto	i2u421_40
  9719  002D98                     i2u421_41:
  9720  002D98  EFD6  F016         	goto	i2l4266
  9721  002D9C                     i2u421_40:
  9722  002D9C  010F               	movlb	15	; () banked
  9723  002D9E  A50D               	btfss	13,2,b	;volatile
  9724  002DA0  EFD4  F016         	goto	i2u422_41
  9725  002DA4  EFD6  F016         	goto	i2u422_40
  9726  002DA8                     i2u422_41:
  9727  002DA8  EFB9  F016         	goto	i2l4258
  9728  002DAC                     i2u422_40:
  9729  002DAC                     i2l4266:
  9730                           
  9731                           ;senior_main.c: 123:     CCPR2H = 0x00;
  9732  002DAC  0E00               	movlw	0
  9733  002DAE  6EAA               	movwf	170,c	;volatile
  9734                           
  9735                           ;senior_main.c: 124:     CCPR2L = 0x50;
  9736  002DB0  0E50               	movlw	80
  9737  002DB2  6EA9               	movwf	169,c	;volatile
  9738                           
  9739                           ;senior_main.c: 125: }
  9740  002DB4  0E00               	movlw	0
  9741  002DB6  6EA6               	movwf	166,c	;volatile
  9742                           
  9743                           ;senior_main.c: 126: 
  9744  002DB8  0E50               	movlw	80
  9745  002DBA  6EA5               	movwf	165,c	;volatile
  9746  002DBC  0012               	return		;funcret
  9747  002DBE                     __end_of_IRL:
  9748                           	opt callstack 0
  9749                           
  9750 ;; *************** function i2_forward *****************
  9751 ;; Defined at:
  9752 ;;		line 10 in file "movement.c"
  9753 ;; Parameters:    Size  Location     Type
  9754 ;;  gostop          2    0[COMRAM] int 
  9755 ;; Auto vars:     Size  Location     Type
  9756 ;;		None
  9757 ;; Return value:  Size  Location     Type
  9758 ;;                  1    wreg      void 
  9759 ;; Registers used:
  9760 ;;		None
  9761 ;; Tracked objects:
  9762 ;;		On entry : 0/0
  9763 ;;		On exit  : 0/0
  9764 ;;		Unchanged: 0/0
  9765 ;; Data sizes:     COMRAM   BANK0   BANK1   BANK2   BANK3   BANK4   BANK5   BANK6   BANK7
  9766 ;;      Params:         2       0       0       0       0       0       0       0       0
  9767 ;;      Locals:         0       0       0       0       0       0       0       0       0
  9768 ;;      Temps:          0       0       0       0       0       0       0       0       0
  9769 ;;      Totals:         2       0       0       0       0       0       0       0       0
  9770 ;;Total ram usage:        2 bytes
  9771 ;; Hardware stack levels used:    1
  9772 ;; This function calls:
  9773 ;;		Nothing
  9774 ;; This function is called by:
  9775 ;;		_us_irs
  9776 ;;		_IRL
  9777 ;;		_IRR
  9778 ;; This function uses a non-reentrant model
  9779 ;;
  9780                           
  9781                           	psect	text47
  9782  003304                     __ptext47:
  9783                           	opt callstack 0
  9784  003304                     i2_forward:
  9785                           	opt callstack 18
  9786  003304  9090               	bcf	3984,0,c	;volatile
  9787                           
  9788                           ;movement.c: 12:     RC2=gostop;
  9789  003306  B001               	btfsc	i2forward@gostop^0,0,c
  9790  003308  EF88  F019         	goto	i2u409_41
  9791  00330C  EF8B  F019         	goto	i2u409_40
  9792  003310                     i2u409_41:
  9793  003310  848E               	bsf	3982,2,c	;volatile
  9794  003312  EF8C  F019         	goto	i2u410_45
  9795  003316                     i2u409_40:
  9796  003316  948E               	bcf	3982,2,c	;volatile
  9797  003318                     i2u410_45:
  9798  003318  908E               	bcf	3982,0,c	;volatile
  9799                           
  9800                           ;movement.c: 14:     RC1=gostop;
  9801  00331A  B001               	btfsc	i2forward@gostop^0,0,c
  9802  00331C  EF92  F019         	goto	i2u411_41
  9803  003320  EF95  F019         	goto	i2u411_40
  9804  003324                     i2u411_41:
  9805  003324  828E               	bsf	3982,1,c	;volatile
  9806  003326  EF96  F019         	goto	i2u412_45
  9807  00332A                     i2u411_40:
  9808  00332A  928E               	bcf	3982,1,c	;volatile
  9809  00332C                     i2u412_45:
  9810  00332C  0012               	return		;funcret
  9811  00332E                     __end_ofi2_forward:
  9812                           	opt callstack 0
  9813                           
  9814                           	psect	rparam
  9815  0000                     
  9816                           	psect	temp
  9817  000050                     btemp:
  9818                           	opt callstack 0
  9819  000050                     	ds	1
  9820  0000                     int$flags	set	btemp
  9821  0000                     wtemp8	set	btemp+1
  9822  0000                     ttemp5	set	btemp+1
  9823  0000                     ttemp6	set	btemp+4
  9824  0000                     ttemp7	set	btemp+8
  9825                           tosu	equ	0xFFF
  9826                           tosh	equ	0xFFE
  9827                           tosl	equ	0xFFD
  9828                           stkptr	equ	0xFFC
  9829                           pclatu	equ	0xFFB
  9830                           pclath	equ	0xFFA
  9831                           pcl	equ	0xFF9
  9832                           tblptru	equ	0xFF8
  9833                           tblptrh	equ	0xFF7
  9834                           tblptrl	equ	0xFF6
  9835                           tablat	equ	0xFF5
  9836                           prodh	equ	0xFF4
  9837                           prodl	equ	0xFF3
  9838                           indf0	equ	0xFEF
  9839                           postinc0	equ	0xFEE
  9840                           postdec0	equ	0xFED
  9841                           preinc0	equ	0xFEC
  9842                           plusw0	equ	0xFEB
  9843                           fsr0h	equ	0xFEA
  9844                           fsr0l	equ	0xFE9
  9845                           wreg	equ	0xFE8
  9846                           indf1	equ	0xFE7
  9847                           postinc1	equ	0xFE6
  9848                           postdec1	equ	0xFE5
  9849                           preinc1	equ	0xFE4
  9850                           plusw1	equ	0xFE3
  9851                           fsr1h	equ	0xFE2
  9852                           fsr1l	equ	0xFE1
  9853                           bsr	equ	0xFE0
  9854                           indf2	equ	0xFDF
  9855                           postinc2	equ	0xFDE
  9856                           postdec2	equ	0xFDD
  9857                           preinc2	equ	0xFDC
  9858                           plusw2	equ	0xFDB
  9859                           fsr2h	equ	0xFDA
  9860                           fsr2l	equ	0xFD9
  9861                           status	equ	0xFD8


Data Sizes:
    Strings     3
    Constant    4
    Data        0
    BSS         108
    Persistent  0
    Stack       0

Auto Spaces:
    Space          Size  Autos    Used
    COMRAM           94     71      79
    BANK0           160    151     159
    BANK1           256      0      92
    BANK2           256      0       0
    BANK3           256      0       0
    BANK4           256      0       0
    BANK5           256      0       0
    BANK6           256      0       0
    BANK7           256      0       0

Pointer List with Targets:

    strlen@s	PTR const unsigned char  size(2) Largest target is 32
		 -> dbuf(BANK1[32]), 

    strlen@a	PTR const unsigned char  size(2) Largest target is 32
		 -> dbuf(BANK1[32]), 

    sprintf@fmt	PTR const unsigned char  size(2) Largest target is 3
		 -> STR_5(CODE[3]), STR_4(CODE[3]), STR_3(CODE[3]), STR_2(CODE[3]), 
		 -> STR_1(CODE[3]), 

    sprintf@s	PTR unsigned char  size(2) Largest target is 2
		 -> lcdprint@d(BANK0[1]), lcdprint@array(BANK0[2]), 

    sprintf@ap	PTR void [1] size(2) Largest target is 2
		 -> ?_sprintf(BANK0[2]), 

    f.buffer	PTR unsigned char  size(2) Largest target is 2
		 -> lcdprint@d(BANK0[1]), lcdprint@array(BANK0[2]), 

    fputs@s	PTR const unsigned char  size(2) Largest target is 32
		 -> dbuf(BANK1[32]), 

    fputs@fp	PTR struct _IO_FILE size(2) Largest target is 7
		 -> sprintf@f(BANK0[6]), 

    S1909_IO_FILE$buffer	PTR unsigned char  size(2) Largest target is 2
		 -> lcdprint@d(BANK0[1]), lcdprint@array(BANK0[2]), 

    fputc@fp.buffer	PTR unsigned char  size(2) Largest target is 2
		 -> lcdprint@d(BANK0[1]), lcdprint@array(BANK0[2]), 

    fputc@fp	PTR struct _IO_FILE size(2) Largest target is 7
		 -> sprintf@f(BANK0[6]), 

    vfprintf@ap	PTR PTR void  size(2) Largest target is 2
		 -> sprintf@ap(BANK0[2]), 

    vfprintf@fp	PTR struct _IO_FILE size(2) Largest target is 7
		 -> sprintf@f(BANK0[6]), 

    vfprintf@fmt	PTR const unsigned char  size(2) Largest target is 3
		 -> STR_5(CODE[3]), STR_4(CODE[3]), STR_3(CODE[3]), STR_2(CODE[3]), 
		 -> STR_1(CODE[3]), 

    vfprintf@cfmt	PTR unsigned char  size(2) Largest target is 3
		 -> STR_5(CODE[3]), STR_4(CODE[3]), STR_3(CODE[3]), STR_2(CODE[3]), 
		 -> STR_1(CODE[3]), 

    vfpfcnvrt@fp	PTR struct _IO_FILE size(2) Largest target is 7
		 -> sprintf@f(BANK0[6]), 

    vfpfcnvrt@ap	PTR PTR void  size(2) Largest target is 2
		 -> sprintf@ap(BANK0[2]), 

    vfpfcnvrt@fmt	PTR PTR unsigned char  size(2) Largest target is 2
		 -> vfprintf@cfmt(BANK0[2]), 

    utoa@fp	PTR struct _IO_FILE size(2) Largest target is 7
		 -> sprintf@f(BANK0[6]), 

    pad@fp	PTR struct _IO_FILE size(2) Largest target is 7
		 -> sprintf@f(BANK0[6]), 

    pad@buf	PTR unsigned char  size(2) Largest target is 32
		 -> dbuf(BANK1[32]), 


Critical Paths under _main in COMRAM

    None.

Critical Paths under _echo in COMRAM

    _echo->_us_irs
    _us_irs->___fltol
    ___fltol->___fladd
    ___fldiv->___xxtofl
    ___fladd->___fldiv
    _IRR->i2_forward
    _IRL->i2_forward

Critical Paths under _main in BANK0

    _main->_IRpath1
    _set_seconds->___awmod
    _set_minutes->___awmod
    _rtc_init->_i2c_read
    _lcd_init->_lcd_command
    _IRpath1->_lcdprint
    _lcdprint->_sprintf
    _sprintf->_vfprintf
    _vfprintf->_vfpfcnvrt
    _vfpfcnvrt->_utoa
    _utoa->_pad
    _pad->_fputs
    _fputs->_fputc
    _get_seconds->_i2c_read
    _get_minutes->_i2c_read
    ___awmod->___awdiv

Critical Paths under _echo in BANK0

    None.

Critical Paths under _main in BANK1

    None.

Critical Paths under _echo in BANK1

    None.

Critical Paths under _main in BANK2

    None.

Critical Paths under _echo in BANK2

    None.

Critical Paths under _main in BANK3

    None.

Critical Paths under _echo in BANK3

    None.

Critical Paths under _main in BANK4

    None.

Critical Paths under _echo in BANK4

    None.

Critical Paths under _main in BANK5

    None.

Critical Paths under _echo in BANK5

    None.

Critical Paths under _main in BANK6

    None.

Critical Paths under _echo in BANK6

    None.

Critical Paths under _main in BANK7

    None.

Critical Paths under _echo in BANK7

    None.

Call Graph Tables:

 ---------------------------------------------------------------------------------
 (Depth) Function   	        Calls       Base Space   Used Autos Params    Refs
 ---------------------------------------------------------------------------------
 (0) _main                                                18    18      0   48987
                                            133 BANK0     18    18      0
                            _IRpath1
                            _adcNum0
                           _adc_init
                           _backward
                           _ccp_init
                            _forward
                           _i2c_init
                           _lcd_init
                           _lcdprint
                              _lturn
                           _pwm_init
                           _reversel
                           _reverser
                           _rtc_init
                              _rturn
                        _set_minutes
                        _set_seconds
                            _t1_init
                         _ultra_dist
 ---------------------------------------------------------------------------------
 (1) _t1_init                                              0     0      0       0
 ---------------------------------------------------------------------------------
 (1) _set_seconds                                          4     4      0    7347
                                             14 BANK0      4     4      0
                            ___awdiv
                            ___awmod
                           _i2c_read
                          _i2c_write
 ---------------------------------------------------------------------------------
 (1) _set_minutes                                          3     3      0    6071
                                             14 BANK0      3     3      0
                            ___awdiv
                            ___awmod
                          _i2c_write
 ---------------------------------------------------------------------------------
 (1) _rtc_init                                             5     5      0    3278
                                              7 BANK0      5     5      0
                           _i2c_read
                          _i2c_write
 ---------------------------------------------------------------------------------
 (2) _i2c_write                                            3     1      2    1890
                                              0 BANK0      3     1      2
 ---------------------------------------------------------------------------------
 (1) _pwm_init                                             0     0      0       0
 ---------------------------------------------------------------------------------
 (1) _lcd_init                                             0     0      0     295
                        _lcd_command
 ---------------------------------------------------------------------------------
 (1) _i2c_init                                             0     0      0       0
 ---------------------------------------------------------------------------------
 (1) _ccp_init                                             0     0      0       0
 ---------------------------------------------------------------------------------
 (1) _adc_init                                             0     0      0       0
 ---------------------------------------------------------------------------------
 (1) _adcNum0                                              7     3      4       0
                                              0 BANK0      7     3      4
 ---------------------------------------------------------------------------------
 (1) _IRpath1                                             20    20      0   16000
                                            113 BANK0     20    20      0
                           _backward
                            _forward
                           _lcdprint
                              _lturn
                           _reversel
                           _reverser
                              _rturn
                         _ultra_dist
 ---------------------------------------------------------------------------------
 (1) _ultra_dist                                           3     1      2       0
                                              0 BANK0      3     1      2
 ---------------------------------------------------------------------------------
 (1) _rturn                                                2     2      0       0
                                              0 BANK0      2     2      0
 ---------------------------------------------------------------------------------
 (1) _reverser                                             2     2      0       0
                                              0 BANK0      2     2      0
 ---------------------------------------------------------------------------------
 (1) _reversel                                             2     2      0       0
                                              0 BANK0      2     2      0
 ---------------------------------------------------------------------------------
 (1) _lturn                                                2     2      0       0
                                              0 BANK0      2     2      0
 ---------------------------------------------------------------------------------
 (1) _lcdprint                                            12    12      0   14581
                                            101 BANK0     12    12      0
                            ___awdiv
                            ___awmod
                        _get_minutes
                        _get_seconds
                           _lcd_char
                        _lcd_command
                            _sprintf
 ---------------------------------------------------------------------------------
 (2) _sprintf                                             16    10      6    6442
                                             85 BANK0     16    10      6
                        _get_minutes (ARG)
                        _get_seconds (ARG)
                           _vfprintf
 ---------------------------------------------------------------------------------
 (3) _vfprintf                                             8     2      6    5483
                                             77 BANK0      8     2      6
                          _vfpfcnvrt
 ---------------------------------------------------------------------------------
 (4) _vfpfcnvrt                                           44    38      6    5130
                                             59 BANK0     18    12      6
                              _fputc
                               _utoa
 ---------------------------------------------------------------------------------
 (5) _utoa                                                32    22     10    3759
                                             27 BANK0     32    22     10
                            ___lodiv
                            ___lomod
                                _pad
 ---------------------------------------------------------------------------------
 (6) _pad                                                 11     5      6    2709
                                             16 BANK0     11     5      6
                              _fputc
                              _fputs
                             _strlen
 ---------------------------------------------------------------------------------
 (7) _strlen                                               4     2      2     166
                                              0 BANK0      4     2      2
 ---------------------------------------------------------------------------------
 (7) _fputs                                                7     3      4    1235
                                              9 BANK0      7     3      4
                              _fputc
 ---------------------------------------------------------------------------------
 (8) _fputc                                                9     5      4     834
                                              0 BANK0      9     5      4
                              _putch
 ---------------------------------------------------------------------------------
 (9) _putch                                                1     1      0       0
 ---------------------------------------------------------------------------------
 (6) ___lomod                                             17     1     16     311
                                              0 BANK0     17     1     16
 ---------------------------------------------------------------------------------
 (6) ___lodiv                                             25     9     16     314
                                              0 BANK0     25     9     16
 ---------------------------------------------------------------------------------
 (2) _lcd_command                                          3     3      0     295
                                              0 BANK0      3     3      0
 ---------------------------------------------------------------------------------
 (2) _lcd_char                                             3     3      0     295
                                              0 BANK0      3     3      0
 ---------------------------------------------------------------------------------
 (2) _get_seconds                                          2     2      0    1297
                                              7 BANK0      2     2      0
                           _i2c_read
 ---------------------------------------------------------------------------------
 (2) _get_minutes                                          2     2      0    1297
                                              7 BANK0      2     2      0
                           _i2c_read
 ---------------------------------------------------------------------------------
 (2) _i2c_read                                             7     6      1    1252
                                              0 BANK0      7     6      1
 ---------------------------------------------------------------------------------
 (2) ___awmod                                              6     2      4    2120
                                              8 BANK0      6     2      4
                            ___awdiv (ARG)
 ---------------------------------------------------------------------------------
 (2) ___awdiv                                              8     4      4    1972
                                              0 BANK0      8     4      4
 ---------------------------------------------------------------------------------
 (1) _forward                                              2     0      2     876
                                              0 BANK0      2     0      2
 ---------------------------------------------------------------------------------
 (1) _backward                                             2     2      0       0
                                              0 BANK0      2     2      0
 ---------------------------------------------------------------------------------
 Estimated maximum stack depth 9
 ---------------------------------------------------------------------------------
 (Depth) Function   	        Calls       Base Space   Used Autos Params    Refs
 ---------------------------------------------------------------------------------
 (11) _echo                                                0     0      0    5113
                                _IRL
                                _IRR
                             _us_irs
 ---------------------------------------------------------------------------------
 (12) _us_irs                                              6     6      0    4713
                                             65 COMRAM     6     6      0
                            ___fladd
                            ___fldiv
                            ___fltol
                           ___xxtofl
                          i2_forward
 ---------------------------------------------------------------------------------
 (13) ___xxtofl                                           14    10      4     398
                                              0 COMRAM    14    10      4
 ---------------------------------------------------------------------------------
 (13) ___fltol                                            10     6      4     305
                                             55 COMRAM    10     6      4
                            ___fladd (ARG)
                            ___fldiv (ARG)
                           ___xxtofl (ARG)
 ---------------------------------------------------------------------------------
 (13) ___fldiv                                            25    17      8    1399
                                             14 COMRAM    25    17      8
                           ___xxtofl (ARG)
 ---------------------------------------------------------------------------------
 (13) ___fladd                                            16     8      8    2388
                                             39 COMRAM    16     8      8
                            ___fldiv (ARG)
                           ___xxtofl (ARG)
 ---------------------------------------------------------------------------------
 (12) _IRR                                                 0     0      0     200
                          i2_forward
 ---------------------------------------------------------------------------------
 (12) _IRL                                                 0     0      0     200
                          i2_forward
 ---------------------------------------------------------------------------------
 (13) i2_forward                                           2     0      2     200
                                              0 COMRAM     2     0      2
 ---------------------------------------------------------------------------------
 Estimated maximum stack depth 13
 ---------------------------------------------------------------------------------

 Call Graph Graphs:

 _main (ROOT)
   _IRpath1
     _backward
     _forward
     _lcdprint
       ___awdiv
       ___awmod
         ___awdiv (ARG)
       _get_minutes
         _i2c_read
       _get_seconds
         _i2c_read
       _lcd_char
       _lcd_command
       _sprintf
         _get_minutes (ARG)
           _i2c_read
         _get_seconds (ARG)
           _i2c_read
         _vfprintf (ARG)
           _vfpfcnvrt
             _fputc
               _putch
             _utoa
               ___lodiv
               ___lomod
               _pad
                 _fputc
                   _putch
                 _fputs
                   _fputc
                     _putch
                 _strlen
     _lturn
     _reversel
     _reverser
     _rturn
     _ultra_dist
   _adcNum0
   _adc_init
   _backward
   _ccp_init
   _forward
   _i2c_init
   _lcd_init
     _lcd_command
   _lcdprint
     ___awdiv
     ___awmod
       ___awdiv (ARG)
     _get_minutes
       _i2c_read
     _get_seconds
       _i2c_read
     _lcd_char
     _lcd_command
     _sprintf
       _get_minutes (ARG)
         _i2c_read
       _get_seconds (ARG)
         _i2c_read
       _vfprintf (ARG)
         _vfpfcnvrt
           _fputc
             _putch
           _utoa
             ___lodiv
             ___lomod
             _pad
               _fputc
                 _putch
               _fputs
                 _fputc
                   _putch
               _strlen
   _lturn
   _pwm_init
   _reversel
   _reverser
   _rtc_init
     _i2c_read
     _i2c_write
   _rturn
   _set_minutes
     ___awdiv
     ___awmod
       ___awdiv (ARG)
     _i2c_write
   _set_seconds
     ___awdiv
     ___awmod
       ___awdiv (ARG)
     _i2c_read
     _i2c_write
   _t1_init
   _ultra_dist

 _echo (ROOT)
   _IRL
     i2_forward
   _IRR
     i2_forward
   _us_irs
     ___fladd
       ___fldiv (ARG)
         ___xxtofl (ARG)
       ___xxtofl (ARG)
     ___fldiv
       ___xxtofl (ARG)
     ___fltol
       ___fladd (ARG)
         ___fldiv (ARG)
           ___xxtofl (ARG)
         ___xxtofl (ARG)
       ___fldiv (ARG)
         ___xxtofl (ARG)
       ___xxtofl (ARG)
     ___xxtofl
     i2_forward

 Address spaces:
Name               Size   Autos  Total    Cost      Usage
BIGRAM             7FF      0       0      21        0.0%
EEDATA             100      0       0       0        0.0%
BITBANK7           100      0       0      19        0.0%
BANK7              100      0       0      20        0.0%
BITBANK6           100      0       0      16        0.0%
BANK6              100      0       0      17        0.0%
BITBANK5           100      0       0      14        0.0%
BANK5              100      0       0      15        0.0%
BITBANK4           100      0       0      12        0.0%
BANK4              100      0       0      13        0.0%
BITBANK3           100      0       0      10        0.0%
BANK3              100      0       0      11        0.0%
BITBANK2           100      0       0       8        0.0%
BANK2              100      0       0       9        0.0%
BITBANK1           100      0       0       6        0.0%
BANK1              100      0      5C       7       35.9%
BITBANK0            A0      0       0       4        0.0%
BANK0               A0     97      9F       5       99.4%
BITCOMRAM           5E      0       0       0        0.0%
COMRAM              5E     47      4F       1       84.0%
BITSFR_2             0      0       0     200        0.0%
SFR_2                0      0       0     200        0.0%
BITSFR_1             0      0       0     200        0.0%
SFR_1                0      0       0     200        0.0%
BITSFR               0      0       0     200        0.0%
SFR                  0      0       0     200        0.0%
STACK                0      0       0       2        0.0%
NULL                 0      0       0       0        0.0%
ABS                  0      0     14A      18        0.0%
DATA                 0      0     14A       3        0.0%
CODE                 0      0       0       0        0.0%


Microchip Technology PIC18 Macro Assembler V2.10 build 88905656 
Symbol Table                                                                                   Wed Dec 02 00:57:53 2020

           ?_get_minutes 0001             ?_get_seconds 0001             ___fldiv@aexp 0027  
           ___fldiv@bexp 0026             ___fldiv@sign 001F             lcd_char@temp 0061  
           ___awdiv@sign 0065                       _go 0803              __CFG_LVP$ON 000000  
           rtc_init@hour 006B                      l300 1138                      l400 29D4  
                    l241 2F90                      l330 3126                      l410 2A94  
                    l331 314E                      l411 2A20                      l403 29EC  
                    l420 2A62                      l245 1A26                      l325 33A0  
                    l421 2A84                      l413 2A2E                      l405 29FA  
                    l173 318E                      l254 1C04                      l270 1444  
                    l238 31CA                      l422 2A72                      l414 2A50  
                    l406 2A1C                      l271 147A                      l415 2A3E  
                    l407 2A0A                      l360 2174                      l600 1C3E  
                    l176 32AA                      l328 3118                      l249 1ACA  
                    l281 15E6                      l425 2A86                      l370 21B8  
                    l362 2182                      l442 2836                      l610 1E0A  
                    l602 1C46                      l354 3302                      l418 2A54  
                    l371 21DA                      l363 21A6                      l380 2200  
                    l372 21C8                      l364 2192                      l436 2766  
                    l268 1304                      l292 0E28                      l381 2222  
                    l357 215C                      l621 2E8A                      l269 133A  
                    l293 0E5E                      l550 32D8                      l382 2210  
                    l622 2E92                      l462 2E30                      l294 0F68  
                    l391 227C                      l375 21DC                      l367 22A6  
                    l615 2154                      l439 3396                      l455 2CA0  
                    l295 0F9E                      l392 2284                      l368 21AA  
                    l553 3206                      l385 226E                      l465 3376  
                    l394 2292                      l378 21F2                      l458 3352  
                    l562 3074                      l395 2294                      l388 225C  
                    l556 2FDC                      l565 3028                      l469 2EF2  
                    l590 294C                      l559 30C0                      l593 2990  
                    l595 29CC                      l856 2B5A                      l869 2C0C  
                    _RB1 007C69                      _RB2 007C6A                      _RC0 007C70  
                    _RC1 007C71                      _RC2 007C72                      _RE0 007C80  
                    _IRL 2D30                      _IRR 2CA2                      _pad 2904  
           ___awmod@sign 006D                      wreg 000FE8                     ?_IRL 0001  
                   ?_IRR 0001             lcd_command@x 0062             ___fltol@exp1 0041  
                   l1070 25C4                     l1063 25A4                     l1080 2696  
                   l1073 2676                     l1323 2F44                     l1308 2902  
                   l1316 3108                     l1332 327A                     l1326 33A2  
                   l3200 2500                     l3210 256A                     l3202 2508  
                   l3212 258A                     l3204 251C                     l3220 25E6  
                   l3310 215A                     l3214 258C                     l3206 252A  
                   l3230 265E                     l3222 25EE                     l3150 2886  
                   l3142 2838                     l3302 211C                     l3320 21C6  
                   l3312 216A                     l3400 3354                     l3216 259E  
                   l3208 253C                     l3232 2670                     l3224 2602  
                   l3152 28BC                     l3144 284C                     l3160 30E2  
                   l3240 1C32                     l3304 2142                     l3314 2190  
                   l3402 3364                     l3226 2610                     l3218 25C6  
                   l3146 285E                     l3162 30E8                     l3170 326C  
                   l3250 1CFE                     l3242 1C6E                     l3234 1C06  
                   l3410 2F0E                     l3500 2B2E                     l3316 21A0  
                   l3420 2778                     l3228 263E                     l3148 2868  
                   l3156 30C2                     l3164 3242                     l3180 2938  
                   l3260 1DA0                     l3252 1D04                     l3244 1C76  
                   l3236 1C16                     l3412 2F16                     l4300 1194  
                   l4220 316C                     l3502 2B34                     l3334 2224  
                   l3326 21EA                     l3430 27A0                     l3422 277C  
                   l3158 30D0                     l3166 324E                     l3190 299E  
                   l3182 2944                     l3174 2904                     l3262 1DBA  
                   l3254 1D0A                     l3246 1C80                     l3238 1C18  
                   l3270 1FC0                     l3350 2E3A                     l3414 2F32  
                   l3406 2EF4                     l4310 11C8                     l4302 11A0  
                   l4222 316E                     l3504 2B3A                     l3520 2B7C  
                   l3512 2B5C                     l3344 22A2                     l3336 223A  
                   l3328 220E                     l3440 27C8                     l3432 27A6  
                   l3424 2780                     l3360 26AC                     l3168 3254  
                   l3192 29B2                     l3184 2958                     l3176 2914  
                   l3264 1DD4                     l3248 1C86                     l3256 1D6E  
                   l3280 202C                     l3272 1FE4                     l3352 2E46  
                   l3408 2F06                     l3600 1A7A                     l4400 139E  
                   l4320 1220                     l4304 11A2                     l4312 11CC  
                   l4224 3170                     l4216 3150                     l3506 2B4A  
                   l3530 2BB4                     l3522 2B8A                     l3514 2B62  
                   l3338 225A                     l3450 27FC                     l3442 27DA  
                   l3434 27AA                     l3426 2792                     l3418 276C  
                   l3370 26D6                     l3362 26B0                     l3186 296C  
                   l3178 2928                     l3258 1D82                     l3266 1DE2  
                   l3290 20E0                     l3282 2076                     l3274 1FF2  
                   l3354 2E6E                     l3610 1B4C                     l3602 1A8C  
                   l4410 13E8                     l4402 13B8                     l4330 1258  
                   l4322 122E                     l4314 11D8                     l4306 11BC  
                   l4226 3172                     l4218 316A                     l3508 2B52  
                   l3532 2BC2                     l3540 2BEC                     l3524 2B92  
                   l3516 2B70                     l3460 2824                     l3452 2802  
                   l3444 27DE                     l3436 27BC                     l3428 279A  
                   l3380 270A                     l3372 26DA                     l3364 26C2  
                   l3356 269C                     l3196 24D4                     l3188 2972  
                   l3292 20F4                     l3276 2002                     l3348 2E32  
                   l3620 1B68                     l3604 1A9C                     l3700 2FF6  
                   l4420 1418                     l4412 13EC                     l4404 13C4  
                   l4340 1294                     l4332 126A                     l4324 1232  
                   l4316 11F6                     l4308 11BE                     l4500 2C0E  
                   l4228 3174                     l3470 2A9C                     l3542 2BFC  
                   l3534 2BD8                     l3526 2BA4                     l3518 2B78  
                   l3462 332E                     l3454 2806                     l3446 27F0  
                   l3438 27C4                     l3390 2732                     l3382 270E  
                   l3374 26EC                     l3366 26CA                     l3358 26A8  
                   l3198 24E0                     l3286 20AE                     l3278 2008  
                   l3630 1BC4                     l3622 1B82                     l3606 1AAC  
                   l3710 3018                     l3702 3010                     l3550 3284  
                   l4422 1432                     l4414 13F0                     l4406 13DE  
                   l4350 12DC                     l4342 129E                     l4334 1276  
                   l4326 1236                     l4318 1206                     l4502 2C1E  
                   l3480 2ACC                     l3472 2AAA                     l3544 2C04  
                   l3536 2BE0                     l3528 2BAC                     l3464 333E  
                   l3456 2818                     l3448 27F4                     l3392 2736  
                   l3384 2720                     l3376 26F4                     l3368 26D0  
                   l3288 20D2                     l3296 2102                     l3640 1BFE  
                   l3632 1BD0                     l3624 1B9C                     l3616 1B54  
                   l3608 1ABE                     l3720 303A                     l3712 301C  
                   l3704 3012                     l3552 3286                     l4440 147C  
                   l4424 1434                     l4416 13F2                     l4408 13E4  
                   l4360 12F4                     l4352 12E8                     l4336 1278  
                   l4344 12A2                     l4328 1240                     l4520 2C90  
                   l4512 2C46                     l4504 2C2C                     l3562 32AC  
                   l3490 2AFA                     l3482 2AD0                     l3474 2AB2  
                   l3538 2BE6                     l3458 2820                     l3394 2748  
                   l3386 2724                     l3378 26F8                     l3298 2110  
                   l3634 1BEC                     l3626 1BA0                     l3618 1B64  
                   l3570 1988                     l3650 308C                     l3642 3076  
                   l3730 305C                     l3722 303C                     l3714 3020  
                   l3706 3014                     l3554 328E                     l4450 14F2  
                   l4442 1498                     l4434 1446                     l4426 1438  
                   l4418 140C                     l4362 12F6                     l4354 12EC  
                   l4346 12AE                     l4338 1292                     l4290 2F46  
                   l4514 2C58                     l4506 2C3C                     l4522 2E98  
                   l4530 2DD4                     l4610 0CD2                     l3492 2B08  
                   l3484 2AD8                     l3476 2AB6                     l3468 2A96  
                   l3396 2750                     l3388 272C                     l3636 1BF0  
                   l3628 1BA8                     l3580 19D6                     l3572 19AC  
                   l3564 1982                     l3660 30AE                     l3652 308E  
                   l3644 3086                     l3740 3068                     l3732 305E  
                   l3724 303E                     l3716 3024                     l3708 3016  
                   l3556 3290                     l3548 327C                     l4460 1558  
                   l4452 1510                     l4444 149C                     l4436 144E  
                   l4428 143A                     l4380 1348                     l4372 1306  
                   l4364 12F8                     l4356 12F0                     l4348 12CC  
                   l4540 3114                     l4292 2F84                     l4516 2C74  
                   l4524 2EAA                     l4532 2E0E                     l4700 0DD4  
                   l4620 0CE8                     l4612 0CDA                     l3670 31CC  
                   l3494 2B0E                     l3486 2AEA                     l3478 2AC4  
                   l3398 2754                     l3638 1BF8                     l3590 1A2C  
                   l3582 19E8                     l3574 19B0                     l3566 1988  
                   l3662 30B0                     l3654 30A8                     l3646 3088  
                   l3742 306C                     l3734 3060                     l3726 3040  
                   l3718 302A                     l3750 2FA4                     l3558 32A2  
                   l4470 15BC                     l4462 1576                     l4454 1514  
                   l4446 14BA                     l4438 1458                     l4390 138C  
                   l4382 134A                     l4374 130E                     l4366 12FA  
                   l4358 12F2                     l4542 3116                     l4294 2F86  
                   l4518 2C82                     l4526 2EE4                     l4534 2E1C  
                   l4710 0E14                     l4702 0DE0                     l4630 0CF2  
                   l4622 0CEA                     l4614 0CDE                     l4606 0CCA  
                   ?_pad 0070                     l3680 31E4                     l3672 31DC  
                   l3496 2B24                     l3488 2AF2                     l3592 1A50  
                   l3584 19F8                     l3576 19B4                     l3568 1988  
                   l3664 30B4                     l3656 30AA                     l3648 308A  
                   l3744 3070                     l3736 3062                     l3728 3042  
                   l3760 2FC6                     l3752 2FA6                     l4480 15D0  
                   l4464 157E                     l4456 1534                     l4472 15C6  
                   l4448 14D6                     l4392 1390                     l4384 1364  
                   l4376 1318                     l4296 116C                     l4544 3128  
                   l4288 3190                     l4536 2E20                     l4528 2DC2  
                   l4800 0FDE                     l4720 0E1E                     l4712 0E16  
                   l4704 0DFC                     l4640 0CFC                     l4632 0CF4  
                   l4624 0CEC                     l4616 0CE2                     l4608 0CCE  
                   l3682 31FE                     l3674 31DE                     l3498 2B2C  
                   l3594 1A54                     l3586 1A08                     l3578 19C6  
                   l3666 30B8                     l3658 30AC                     l3738 3064  
                   l3690 2FDE                     l3770 2FD4                     l3762 2FC8  
                   l3754 2FA8                     l3746 2F92                     l4474 15CA  
                   l4466 159A                     l4458 153C                     l4394 1394  
                   l4386 1370                     l4378 133C                     l4482 15D2  
                   l4298 1182                     l4538 310A                     l4490 32DA  
                   l4810 1058                     l4802 0FFA                     l4730 0E3C  
                   l4714 0E18                     l4706 0E04                     l4650 0D06  
                   l4642 0CFE                     l4634 0CF6                     l4626 0CEE  
                   l4618 0CE6                     l3684 3200                     l3676 31E0  
                   l3596 1A58                     l3588 1A1A                     l3668 30BC  
                   l3692 2FEE                     l3772 2FD8                     l3764 2FCA  
                   l3756 2FAA                     l3748 2FA2                     l4476 15CC  
                   l4468 15B8                     l4396 1398                     l4388 138A  
                   l4484 3398                     l4492 32DE                     l3780 2A3C  
                   l4820 10B6                     l4812 105C                     l4804 1016  
                   l4740 0E94                     l4732 0E60                     l4716 0E1A  
                   l4708 0E10                     l4660 0D30                     l4652 0D0C  
                   l4644 0D00                     l4636 0CF8                     l4628 0CF0  
                   l3686 3202                     l3678 31E2                     l3598 1A6A  
                   l3694 2FF0                     l3766 2FCC                     l3758 2FC4  
                   l4478 15CE                     l4398 139C                     l4486 339A  
                   l4494 32FC                     l3782 2A70                     l3774 29D2  
                   l4830 1114                     l4822 10BA                     l4806 1034  
                   l4750 0EBC                     l4742 0EAE                     l4734 0E6C  
                   l4726 0E2A                     l4718 0E1C                     l4670 0D5C  
                   l4662 0D34                     l4646 0D02                     l4638 0CFA  
                   l3688 3204                     l3696 2FF2                     l3768 2FD0  
                   l4496 32FE                     l4488 3378                     l3776 29E2  
                   l4840 113E                     l4832 1118                     l4808 1038  
                   l4816 107C                     l4760 0F02                     l4752 0EC0  
                   l4744 0EB0                     l4736 0E6E                     l4728 0E32  
                   l4680 0D96                     l4672 0D70                     l4664 0D50  
                   l4648 0D04                     l3698 2FF4                     l4498 3300  
                   l3778 2A08                     l4850 115A                     l4842 1140  
                   l4818 1098                     l4826 10DA                     l4770 0F16  
                   l4762 0F08                     l4754 0EC2                     l4746 0EB4  
                   l4738 0E88                     l4690 0DAC                     l4682 0D98  
                   l4674 0D8C                     l4666 0D50                     l4658 0D16  
                   l4852 115C                     l4828 10F6                     l4780 0F5C  
                   l4772 0F30                     l4764 0F0C                     l4756 0EDC  
                   l4748 0EB8                     l4836 1138                     l4692 0DAE  
                   l4684 0D9A                     l4676 0D8E                     l4844 1146  
                   l4668 0D56                     l4854 115E                     l4846 1154  
                   l4838 113C                     l4790 0F72                     l4782 0F5E  
                   l4774 0F3C                     l4766 0F10                     l4758 0EE8  
                   l4694 0DB0                     l4686 0D9C                     l4678 0D92  
                   l4856 1160                     l4848 1156                     l4792 0F7C  
                   l4776 0F56                     l4768 0F14                     l4696 0DB2  
                   l4688 0DA8                     l4794 0FA0                     l4778 0F58  
                   l4698 0DD0                     l4796 0FBC                     l4788 0F6A  
                   l4798 0FC0                     STR_1 0805                     STR_2 0805  
                   STR_3 0805                     STR_4 0805                     STR_5 0805  
                   u3000 2B70                     u3001 2B6C                     u3010 2B8A  
                   u3011 2B86                     u3020 2BA4                     u3100 19C6  
                   u3021 2BA0                     u3101 19C2                     u3030 2BC2  
                   u3110 19D6                     u3031 2BBE                     u3111 19D2  
                   u3040 2BD8                     u3120 19F8                     u3200 29FA  
                   u3041 2BD4                     u3121 19F4                     u3201 29F6  
                   u3050 2BFC                     u3130 1A08                     u3210 2A08  
                   u3051 2BF8                     u3131 1A04                     u3211 2A04  
                   u3060 32C0                     u2500 284C                     u3140 1A6A  
                   u3220 2A18                     u3061 32BA                     u2501 2848  
                   u3141 1A66                     u3221 2A14                     u2510 285E  
                   u3150 1A7A                     u3230 2A2E                     u2511 285A  
                   u3151 1A76                     u3231 2A2A                     u3080 32D6  
                   u2520 2886                     u3160 1A9C                     u3240 2A3C  
                   u3081 32D0                     u2601 24DA                     u2521 2882  
                   u3161 1A98                     u3241 2A38                     u2610 2500  
                   u2530 28BC                     u3170 1AAC                     u3250 2A4C  
                   _T2PR 000FBB                     u3075 32C2                     u2611 24FC  
                   u2531 28B8                     u3171 1AA8                     u3251 2A48  
                   u2620 252A                     u2540 3108                     u2700 1DA0  
                   u3180 1B82                     u4300 126A                     u3260 2A62  
                   u2621 2526                     u2541 3104                     u2701 1D9C  
                   u3181 1B7E                     u4301 1266                     u3261 2A5E  
                   u2630 256A                     u2550 326C                     u2710 1DBA  
                   u4310 12CC                     u3270 2A70                     u3190 29E2  
                   u3095 32D8                     u2631 2566                     u2551 3268  
                   u2711 1DB6                     u4311 12C8                     u3271 2A6C  
                   u3191 29DE                     u5007 0E36                     u2800 21A0  
                   u2640 25E6                     u2560 2914                     u2720 1DD4  
                   u4400 1558                     u4320 133A                     u3280 2A80  
                   u2801 219C                     u2641 25E2                     u2561 2910  
                   u2721 1DD0                     u4401 1554                     u4321 1336  
                   u3281 2A7C                     u5017 0E7A                     u2810 21B8  
                   u2650 2610                     u2570 2938                     u2730 1DE2  
                   u4410 1576                     u4330 147A                     u3290 2A94  
                   _T4PR 000FB5                     u2811 21B4                     u2651 260C  
                   u2571 2934                     u2731 1DDE                     u4411 1572  
                   u4331 1476                     u5107 11AE                     u3291 2A90  
                   u5027 0EA0                     u2900 227C                     u2820 21C6  
                   u2660 263E                     u2580 2990                     u2740 1FE4  
                   u4420 159A                     u4340 1498                     u4500 3126  
                   u2901 2278                     u2821 21C2                     u2661 263A  
                   u2581 298C                     u2741 1FE0                     u4421 1596  
                   u4341 1494                     u5117 1212                     u4501 3122  
                   u5037 0ECE                     u2910 2292                     u2830 21D6  
                   u2590 299E                     u2670 1C16                     u2750 202C  
                   u4430 15B8                     u4350 14BA                     u4270 1194  
                   u2911 228E                     u2831 21D2                     u2591 299A  
                   u2671 1C12                     u2751 2028                     u4431 15B4  
                   u4351 14B6                     u5207 1424                     u5127 1284  
                   u4271 1190                     u5047 0EF4                     u2920 22A2  
                   u2840 21EA                     u2680 1C32                     u2760 20D2  
                   u4440 15E6                     u4360 14D6                     u4280 11F6  
                   u2921 229E                     u2841 21E6                     u2681 1C2E  
                   u2761 20CE                     u4441 15E2                     u4361 14D2  
                   u5217 1448                     u5137 1308                     u4281 11F2  
                   u5057 0F22                     u2850 2200                     u2770 216A  
                   u2690 1D82                     u2930 2E8A                     u4370 14F2  
                   u4290 1254                     u4450 2C2C                     u2851 21FC  
                   u2771 2166                     u5307 26E2                     u2691 1D7E  
                   u2931 2E86                     u4371 14EE                     u5227 1452  
                   u5147 1312                     u4291 1250                     u4515 3136  
                   u4451 2C28                     u5067 0F48                     u2940 2AAA  
                   u2860 220E                     u2780 2182                     u4380 1510  
                   u4460 2C74                     _PMD0 000EDC                     u2941 2AA6  
                   u2861 220A                     u2781 217E                     u5317 2700  
                   u5237 3288                     u4381 150C                     u5157 1356  
                   u4461 2C70                     u5077 0F6C                     _PMD1 000EDD  
                   u2950 2AC4                     u2870 221E                     u2790 2190  
                   u4390 1534                     u4470 2C90                     u2951 2AC0  
                   u2871 221A                     u2791 218C                     u5407 282C  
                   u5327 2716                     u5247 3298                     u4391 1530  
                   u5167 137C                     u4471 2C8C                     u5087 0F76  
                   _PMD3 000EDF                     u2960 2AEA                     u2880 225A  
                   u4480 2EAA                     u4800 0FFA                     u5417 31F0  
                   u2961 2AE6                     u2881 2256                     u5337 273E  
                   u5257 2FB6                     u5177 13AA                     u5097 2C4E  
                   u4481 2EA6                     u4801 0FF6                     u2970 2B08  
                   u2890 226A                     u4490 2DD4                     u4810 1016  
                   u4730 0D50                     u2971 2B04                     u2891 2266  
                   u5347 275C                     u5267 3002                     u5187 13D0  
                   u4491 2DD0                     u4811 1012                     u4731 0D4C  
                   u2980 2B24                     u4820 1034                     u4740 0D8C  
                   u2981 2B20                     u5357 2788                     u5277 304E  
                   u5197 13FE                     u4821 1030                     u4741 0D88  
                   u2990 2B4A                     u4830 1058                     u4750 0DD0  
                   u2991 2B46                     u5367 27B2                     u5287 309A  
                   u4831 1054                     u4751 0DCC                     u4840 1098  
                   u4760 0E5E                     u5377 27D0                     u5297 26B8  
                   u4841 1094                     u4761 0E5A                     u4850 10B6  
                   u4770 0F9E                     u5387 27E6                     u4851 10B2  
                   u4771 0F9A                     u4860 10F6                     u4780 0FBC  
                   u5397 280E                     u4861 10F2                     u4781 0FB8  
                   u4870 1114                     u4790 0FDE                     u4871 1110  
                   u4791 0FDA                     u4997 0E2C                     _TMR1 000FCC  
                   _echo 0008                     _dbuf 013C                     _main 0CCA  
                   _maze 0100                     _prec 00F7                     _nout 004C  
                   pad@i 0077                     pad@p 0074                     fsr1h 000FE2  
                   fsr2h 000FDA                     indf2 000FDF                     fsr1l 000FE1  
                   pad@w 0079                     fsr2l 000FD9                     btemp 0050  
                   _stop 0801                     _utoa 1C06          __end_of_IRpath1 15E8  
                   prodl 000FF3                     start 016E          ___fldiv@new_exp 0020  
           ___param_bank 000000                    ??_IRL 0003                    ??_IRR 0003  
                  ??_pad 0076          __end_of_t1_init 3190                    ?_echo 0001  
          ___fltol@sign1 0040          __end_of___fladd 0CCA                    ?_main 0001  
                  _ADPCH 000F5A          __end_of___fldiv 1982          __end_of_adcNum0 3150  
        __end_of___awdiv 2B5C                    _ADRES 000F5E            __CFG_WDTE$OFF 000000  
        __end_of___awmod 2C0E          __end_of___fltol 24D4                    ?_utoa 007B  
        __end_of___lodiv 25C6          ___awdiv@divisor 0062                    _T1CON 000FCE  
                  _T2CON 000FBC                    _T4CON 000FB6          __end_of___lomod 2698  
                  _T2HLT 000FBD                    _IOCAF 000F05                    _IOCBF 000F0D  
                  _IOCAN 000F06                    _IOCBN 000F0E                    _T4HLT 000FB7  
            i2c_read@num 0061                    _T2TMR 000FBA                    _T2RST 000FBF  
                  i2l200 2DBC                    _T4TMR 000FB4                    i2l213 2D2E  
                  i2l221 007A                    i2l231 00F2                    i2l223 0050  
                  i2l232 0140                    i2l224 009E                    _T4RST 000FB9  
                  i2l235 016A                    i2l181 22B6                    i2l229 011C  
                  i2l182 22B8                    i2l184 22C6                    i2l187 23CC  
                  i2l179 22A8                    i2l550 332C                    i2l922 24D2  
        ___awdiv@counter 0064                    _OSCEN 000ED7             vfpfcnvrt@fmt 009D  
           vfpfcnvrt@llu 00A5                    _TMR1H 000FCD                    _TMR1L 000FCC  
                  _PORTD 000F8F                    _flags 00F9                    _index 00FB  
                  _fputc 2838          __end_of_forward 32DA                    _fputs 30C2  
                  _lturn 3076                    pad@fp 0070                    _width 004E  
                  _putch 33A2                    main@i 00EF                    _rturn 2F92  
                  tablat 000FF5                    nvmcon 000F80                    ttemp5 0051  
                  ttemp6 0054                    ttemp7 0058                    utoa@d 007D  
                  utoa@i 0099                    utoa@n 0091                    utoa@p 008D  
                  utoa@w 008F                    status 000FD8                    wtemp8 0051  
        __end_of_sprintf 2F46         ___lodiv@dividend 0060          __initialization 3208  
           __end_of_echo 016E             __end_of_main 116C             __end_of_stop 0803  
           __end_of_utoa 1E0C         __end_of_i2c_init 3304         __end_of_i2c_read 22A8  
     __size_ofi2_forward 002A                   ??_echo 0048                   ??_main 00E5  
                 ??_utoa 0085            __activetblptr 000001         ___lodiv@quotient 0070  
                 _ADCON0 000F5B                   ?_fputc 0060                   ?_fputs 0069  
                 _CCPR1H 000FAA                   _CCPR2H 000FA6                   _CCPR1L 000FA9  
                 _CCPR2L 000FA5         ___awdiv@dividend 0060                   ?_lturn 0001  
                 ?_putch 0001                   _ANSELB 000F14                   _ANSELC 000F1C  
                 ?_rturn 0001                ??_IRpath1 00D1                   _RA4PPS 000EE6  
       __end_of_adc_init 33A2             i2c_read@read 0065                   _RC3PPS 000EF5  
                 _RC4PPS 000EF6                   _RC5PPS 000EF7                   _RC6PPS 000EF8  
                 i2l1220 189E                   i2l1212 17A4                   i2l1221 188C  
                 i2l1207 1980                   i2l1153 09F8                   i2l1209 17E0  
                 i2l1170 0B12                   i2l1162 0CC8                   i2l1154 09E6  
                 i2l1218 1826                   i2l1155 09AC                   i2l1180 0BD0  
                 i2l4000 1636                   i2l1280 1E62                   i2l4010 1668  
                 i2l4002 163E                   i2l1179 0BE2                   i2l1283 1FBE  
                 i2l4100 18F6                   i2l4020 169C                   i2l4012 166A  
                 i2l4004 164E                   i2l4110 1960                   i2l4102 1910  
                 i2l4030 16E2                   i2l4014 167A                   i2l4022 16A4  
                 i2l4006 1654                   i2l1294 1F56                   i2l1287 1EFA  
                 i2l4112 196E                   i2l4104 1926                   i2l4040 170A  
                 i2l4032 16E6                   i2l4024 16B4                   i2l4016 168A  
                 i2l4008 165A                   i2l4200 1F66                   i2l4114 1974  
                 i2l4106 1940                   i2l4050 1758                   i2l4026 16CA  
                 i2l4018 169A                   i2l4130 23F8                   i2l4210 1FAE  
                 i2l4202 1F6A                   i2l4116 1976                   i2l4108 195C  
                 i2l4060 17A2                   i2l4052 1768                   i2l4044 171E  
                 i2l4028 16DA                   i2l4036 16FA                   i2l4140 2446  
                 i2l4132 2422                   i2l4124 23CE                   i2l4204 1F8E  
                 i2l4214 3304                   i2l4070 17F0                   i2l4062 17AE  
                 i2l4054 1770                   i2l4046 1738                   i2l4038 170A  
                 i2l4150 2472                   i2l4134 2424                   i2l4126 23E4  
                 i2l4206 1F9E                   i2l4230 22A8                   i2l4072 1806  
                 i2l4080 1836                   i2l4064 17CC                   i2l4056 1780  
                 i2l4048 1748                   i2l4160 24A2                   i2l4136 2434  
                 i2l4208 1FAC                   i2l4240 2388                   i2l4232 22C8  
                 i2l4250 2D34                   i2l4082 1844                   i2l4074 180C  
                 i2l4066 17CE                   i2l4058 1794                   i2l4162 24B2  
                 i2l4146 245E                   i2l4138 2438                   i2l4170 1E1E  
                 i2l4242 2394                   i2l4234 22E0                   i2l4260 2D82  
                 i2l4252 2D44                   i2l4092 18AE                   i2l4084 1848  
                 i2l4076 1816                   i2l4068 17DE                   i2l4164 24C2  
                 i2l4156 2486                   i2l4148 2468                   i2l4180 1E9C  
                 i2l4172 1E2C                   i2l4244 23B2                   i2l4236 235C  
                 i2l4262 2D8E                   i2l4254 2D50                   i2l4270 2CA6  
                 i2l4094 18BA                   i2l4086 1856                   i2l4078 1824  
                 i2l4158 2492                   i2l4190 1EF0                   i2l4182 1EA4  
                 i2l4174 1E72                   i2l4246 23C0                   i2l4238 237A  
                 i2l4264 2D9C                   i2l4256 2D5E                   i2l4248 2D30  
                 i2l4280 2CF4                   i2l4272 2CB6                   i2l3800 0860  
                 i2l4096 18C8                   i2l4088 1884                   i2l4192 1F2C  
                 i2l4184 1EB0                   i2l4176 1E88                   i2l4168 1E0E  
                 i2l4600 0160                   i2l4266 2DAC                   i2l4258 2D72  
                 i2l4282 2D00                   i2l4274 2CC2                   i2l3810 0890  
                 i2l3802 0870                   i2l4098 18F2                   i2l4194 1F38  
                 i2l4186 1EE2                   i2l4602 0164                   i2l4284 2D0E  
                 i2l4276 2CD0                   i2l4268 2CA2                   i2l3900 0A66  
                 i2l3820 08D0                   i2l3812 089E                   i2l3804 0876  
                 i2l4196 1F46                   i2l4188 1EE4                   i2l4604 0168  
                 i2l4286 2D1E                   i2l4278 2CE4                   i2l3910 0AAC  
                 i2l3902 0A74                   i2l3830 090A                   i2l3822 08D2  
                 i2l3814 08A0                   i2l3806 0888                   i2l4198 1F64  
                 i2l4550 001A                   i2l3920 0B28                   i2l3912 0AE0  
                 i2l3904 0A76                   i2l3840 091E                   i2l3832 090E  
                 i2l3816 08B0                   i2l3824 08DA                   i2l3808 088A  
                 i2l4560 0034                   i2l4552 001C                   i2l3930 0B64  
                 i2l3922 0B38                   i2l3914 0AE2                   i2l3906 0A80  
                 i2l3850 0932                   i2l3842 0922                   i2l3834 0912  
                 i2l3826 08EA                   i2l3818 08C0                   i2l4570 0096  
                 i2l4562 0042                   i2l4554 0020                   i2l3940 0B90  
                 i2l3932 0B66                   i2l3916 0AF2                   i2l3908 0A86  
                 i2l3860 0946                   i2l3852 0936                   i2l3844 0926  
                 i2l3836 0916                   i2l3828 08FC                   i2l4580 00C6  
                 i2l4572 00AC                   i2l4564 005E                   i2l4556 0024  
                 i2l4548 000A                   i2l3950 0BC8                   i2l3934 0B74  
                 i2l3926 0B4C                   i2l3942 0B92                   i2l3918 0B02  
                 i2l3870 09A4                   i2l3854 093A                   i2l3846 092A  
                 i2l3838 091A                   i2l3862 094A                   i2l3790 0826  
                 i2l4590 010E                   i2l4574 00BA                   i2l4566 006C  
                 i2l4582 00C8                   i2l4558 0026                   i2l3960 0C46  
                 i2l3936 0B7C                   i2l3928 0B56                   i2l3944 0BA0  
                 i2l3880 09DA                   i2l3872 09BA                   i2l3864 094E  
                 i2l3856 093E                   i2l3848 092E                   i2l3792 0836  
                 i2l3784 080A                   i2l4592 012A                   i2l4584 00D6  
                 i2l4576 00BE                   i2l4568 0088                   i2l3970 0C8C  
                 i2l3954 0BF2                   i2l3962 0C48                   i2l3946 0BA4  
                 i2l3938 0B80                   i2l3890 0A2A                   i2l3882 09E4  
                 i2l3874 09C6                   i2l3866 0978                   i2l3858 0942  
                 i2l3794 0846                   i2l3786 0816                   i2l4594 0138  
                 i2l4586 00E4                   i2l4578 00C2                   i2l3980 0CB6  
                 i2l3972 0C9A                   i2l3964 0C58                   i2l3956 0BFE  
                 i2l3948 0BB2                   i2l3892 0A3A                   i2l3884 0A06  
                 i2l3876 09CA                   i2l3868 0994                   i2l3796 0856  
                 i2l3788 0824                   i2l4596 014E                   i2l4588 0100  
                 i2l3982 0CB8                   i2l3974 0CA0                   i2l3966 0C68  
                 i2l3958 0C0C                   i2l3894 0A48                   i2l3886 0A16  
                 i2l3878 09D8                   i2l3798 0858                   i2l3990 1602  
                 i2l4598 015C                   i2l3976 0CA2                   i2l3968 0C88  
                 i2l3896 0A56                   i2l3992 1604                   i2l3978 0CA8  
                 i2l3898 0A62                   i2l3994 1614                   i2l3986 15E8  
                 i2l3996 1624                   i2l3988 15F4                   i2l3998 1634  
       __end_of_backward 3208                   _TMR1IF 007648                   _TMR1ON 007E70  
       __end_of___xxtofl 1FC0       __size_of_i2c_write 00C8         __end_of_ccp_init 2F92  
       __end_of_lcd_char 2838             vfprintf@cfmt 00B3         __end_of_lcd_init 3398  
   __size_of_lcd_command 00D0                ??_t1_init 0060             ?_set_minutes 0001  
           ?_set_seconds 0001                ??___fladd 0030                ??___fldiv 0017  
              ??_adcNum0 0064                ??___awdiv 0064                ??___awmod 006C  
       __end_of_lcdprint 1C06                ??___fltol 003C                ??___lodiv 0070  
              ??___lomod 0070     __size_of_get_minutes 0024     __size_of_get_seconds 0026  
                 clear_0 3212                   clear_1 321E                   clear_2 322A  
       ___awdiv@quotient 0066          ___awmod@divisor 006A                   _value0 0048  
        ___awmod@counter 006C                   pad@buf 0072                   _us_irs 22A8  
                 _strlen 3242                   fputc@c 0060                   fputs@c 006D  
                 fputs@i 006E                   fputs@s 0069                ??_forward 0062  
       __end_of_reversel 3076         __end_of_reverser 302A             __mediumconst 0000  
       __end_of_rtc_init 2CA2                   tblptrh 000FF7                   tblptrl 000FF6  
                 tblptru 000FF8         __end_of_pwm_init 31CC                   putch@c 0001  
       __end_of_vfprintf 2E94                   utoa@fp 007B                ??_sprintf 00BB  
           ___xxtofl@arg 000B        __end_ofi2_forward 332E             ___xxtofl@exp 000A  
           ___xxtofl@val 0001               __accesstop 0060  __end_of__initialization 3230  
          ___rparam_used 000001               ___fltol@f1 0038           __pcstackCOMRAM 0001  
          __end_of_fputc 2904            __end_of_fputs 310A            __end_of_lturn 30C2  
          __end_of_putch 33A4             IRpath1@i_736 00D9            __end_of_rturn 2FDE  
             __end_of_go 0805             IRpath1@check 00DB             IRpath1@dist1 00E1  
           IRpath1@dist2 00E3             IRpath1@dist3 00DF        __end_of_i2c_write 2A96  
                ??_fputc 0064                  ??_fputs 006D                  ??_lturn 0060  
                ??_putch 0060                  ??_rturn 0060               __pbssBANK0 00F7  
             __pbssBANK1 0100                ?_i2c_init 0001                ?_i2c_read 0060  
        i2forward@gostop 0001      set_seconds@curr_sec 0070           get_minutes@min 0068  
         get_seconds@sec 0068          lcd_command@temp 0061                  _CCP1CON 000FAB  
              ?_adc_init 0001                  ?_us_irs 0001                  ?_strlen 0060  
              ?_backward 0001                ?___xxtofl 0001                ?_ccp_init 0001  
                _OSCCON1 000ED3                  _OSCCON3 000ED5       __size_of_vfpfcnvrt 0196  
                _OSCTUNE 000ED8                  _PWM3DCH 000FA3                  _PWM3DCL 000FA2  
                _SSP1ADD 000F92                  _SSP1BUF 000F91                ?_lcd_char 0001  
              ?_lcd_init 0001         ___lomod@dividend 0060                  _IRpath1 116C  
              ?_lcdprint 0001               ??_i2c_init 0060               ??_i2c_read 0061  
                __Hparam 0000                  __Lparam 0000                ?_reversel 0001  
              ?_reverser 0001                  _t1_init 3150                ?_rtc_init 0001  
                ___fladd 080A                  ___fldiv 15E8                  _adcNum0 310A  
                ___awdiv 2A96                  ___awmod 2B5C                  ___fltol 23CE  
                ___lodiv 24D4                ?_pwm_init 0001                  ___lomod 25C6  
              ?_vfprintf 00AD             __psmallconst 0800     __size_of_set_minutes 0060  
   __size_of_set_seconds 0074                  __pcinit 3208                  __ramtop 0800  
        i2c_read@address 0066               ??_adc_init 0060                  __ptext0 0CCA  
                __ptext1 3150                  __ptext2 2DBE                  __ptext3 2E94  
                __ptext4 2C0E                  __ptext5 29CE                  __ptext6 3190  
                __ptext7 3378                  __ptext8 32DA                  __ptext9 2F46  
             ??_backward 0060          __size_of_us_irs 0126             __size_of_IRL 008E  
           __size_of_IRR 008E          __size_of_strlen 003A             __size_of_pad 00CA  
                _forward 32AC               ??___xxtofl 0005               ??_ccp_init 0060  
       ___awmod@dividend 0068                _IOCAFbits 000F05                _IOCBFbits 000F0D  
              _IOCANbits 000F06                _IOCBNbits 000F0E                _IOCBPbits 000F0F  
             ??_lcd_char 0060                  _sprintf 2EF4               ??_lcd_init 0063  
   end_of_initialization 3230               ??_lcdprint 00C5                  fputc@fp 0062  
                fputs@fp 006B            lcdprint@array 00CC            lcdprint@temp1 00D0  
          lcdprint@temp2 00CE        __end_of_vfpfcnvrt 2156               ??_reversel 0060  
             ??_reverser 0060               ??_rtc_init 0067                  postdec2 000FDD  
                postinc0 000FEE                  postinc1 000FE6                  postinc2 000FDE  
             ??_pwm_init 0060               ??_vfprintf 00B3                  strlen@a 0062  
                strlen@s 0060                _PORTAbits 000F8C                _PORTBbits 000F8D  
            ___fladd@grs 0037            i2c_write@data 0061            ___xxtofl@sign 0009  
              _TRISAbits 000F87                _TRISBbits 000F88                _TRISCbits 000F89  
              _TRISDbits 000F8A                _TRISEbits 000F8B              ___fldiv@grs 0022  
            ___fldiv@rem 001B              rtc_init@sec 006A               main@distcc 00F1  
            _CCP2CONbits 000FA7            ??_lcd_command 0060               _ultra_dist 327C  
              i2_forward 3304            ??_get_minutes 0067            ??_get_seconds 0067  
            vfpfcnvrt@ap 009F              vfpfcnvrt@fp 009B               lcdprint@d1 00C6  
             lcdprint@d2 00C7               lcdprint@d3 00C8               lcdprint@dd 00CB  
         __end_of_us_irs 23CE           __end_of_strlen 327C      start_initialization 3208  
        ___lodiv@divisor 0068         us_irs@time_taken 0046          ___lodiv@counter 0078  
            __end_of_IRL 2DBE              __end_of_IRR 2D30              __end_of_pad 29CE  
              _i2c_write 29CE           set_minutes@min 0070           set_seconds@sec 0071  
          IRpath1@distcr 00D5            IRpath1@distlr 00D3        __size_of_i2c_init 002A  
      __size_of_i2c_read 0152               ?i2_forward 0001              vfprintf@fmt 00AF  
            _CCPTMRSbits 000FAD      __end_of_lcd_command 2768      __end_of_get_minutes 3378  
    __end_of_get_seconds 3354                 ??_us_irs 0042                 ??_strlen 0062  
              ___fladd@a 002C                ___fladd@b 0028                ___fldiv@a 0013  
              ___fldiv@b 000F        __size_of_adc_init 000A              __pbssCOMRAM 0048  
      __size_of_backward 003C            __pcstackBANK0 0060               ?_i2c_write 0060  
      __size_of___xxtofl 01B4        __size_of_ccp_init 004C                 ?_IRpath1 0001  
      __size_of_lcd_char 00D0        __size_of_lcd_init 0020        __size_of_lcdprint 0284  
            ?_ultra_dist 0060                 ?_t1_init 0001                __pintcode 0008  
               ?___fladd 0028                 ?___fldiv 000F                 ?_adcNum0 0060  
               ?___awdiv 0060                 ?___awmod 0068                 ?___fltol 0038  
               ?___lodiv 0060                 ?___lomod 0060        __size_of_reversel 004C  
      __size_of_reverser 004C        __size_of_rtc_init 0094        __size_of_pwm_init 003C  
      __size_of_vfprintf 0062          ___lomod@divisor 0068         IRpath1@turncheck 00DD  
            __smallconst 0800          ___lomod@counter 0070                 ?_forward 0060  
               IRpath1@i 00D7                 ?_sprintf 00B5           __size_of_fputc 00CC  
               _T2CLKCON 000FBE           __size_of_fputs 0048                 _T4CLKCON 000FB8  
         __size_of_lturn 004C           __size_of_putch 0002           __size_of_rturn 004C  
               _LATBbits 000F83                 _PIE0bits 000EBD              _lcd_command 2698  
            ??i2_forward 0003                 i2u400_40 1E2C                 i2u400_41 1E28  
               i2u401_40 1E88                 i2u401_41 1E84                 i2u330_40 0824  
               i2u402_40 1EDE                 i2u330_41 0820                 i2u402_41 1EDA  
               i2u410_45 3318                 i2u411_40 332A                 i2u331_40 0836  
               i2u403_40 1F28                 i2u411_41 3324                 i2u331_41 0832  
               i2u403_41 1F24                 i2u420_40 2D6E                 i2u340_40 0990  
               i2u332_40 0846                 i2u404_40 1F46                 i2u420_41 2D6A  
               i2u340_41 098A                 i2u332_41 0842                 i2u404_41 1F42  
               i2u412_45 332C                 i2u421_40 2D9C                 i2u341_40 0992  
               i2u333_40 0888                 i2u405_40 1F56                 i2u413_40 22B6  
               i2u421_41 2D98                 i2u333_41 0884                 i2u405_41 1F52  
               i2u413_41 22B2                 i2u422_40 2DAC                 i2u350_40 0AAC  
               i2u342_40 09BA                 i2u334_40 089E                 i2u406_40 1F64  
               i2u414_40 22C6                 i2u422_41 2DA8                 i2u350_41 0AA8  
               i2u342_41 09B6                 i2u334_41 089A                 i2u406_41 1F60  
               i2u414_41 22C2                 i2u423_40 2CD0                 i2u351_40 0AF2  
               i2u343_40 09D8                 i2u335_40 08B0                 i2u407_40 1F9E  
               i2u415_40 237A                 i2u423_41 2CCC                 i2u351_41 0AEE  
               i2u343_41 09D4                 i2u335_41 08AC                 i2u407_41 1F9A  
               i2u415_41 2376                 i2u424_40 2CE0                 i2u360_40 0BDE  
               i2u352_40 0B28                 i2u344_40 09F8                 i2u336_40 08C0  
               i2u408_40 1FAC                 i2u416_40 2388                 i2u424_41 2CDC  
               i2u360_41 0BDA                 i2u352_41 0B24                 i2u344_41 09F4  
               i2u336_41 08BC                 i2u408_41 1FA8                 i2u416_41 2384  
               i2u409_40 3316                 i2u425_40 2D0E                 i2u361_40 0BF2  
               i2u353_40 0B38                 i2u345_40 0A06                 i2u337_40 08FC  
               i2u417_40 23B2                 i2u409_41 3310                 i2u425_41 2D0A  
               i2u361_41 0BEE                 i2u353_41 0B34                 i2u345_41 0A02  
               i2u337_41 08F8                 i2u417_41 23AE                 i2u426_40 2D1E  
               i2u362_40 0C0C                 i2u354_40 0B64                 i2u346_40 0A16  
               i2u338_40 090A                 i2u370_40 1614                 i2u418_40 23C0  
               i2u426_41 2D1A                 i2u362_41 0C08                 i2u354_41 0B60  
               i2u346_41 0A12                 i2u338_41 0906                 i2u370_41 1610  
               i2u418_41 23BC                 i2u419_40 2D5E                 i2u363_40 0C46  
               i2u355_40 0B74                 i2u347_40 0A48                 i2u339_40 0978  
               i2u371_40 1624                 i2u419_41 2D5A                 i2u363_41 0C42  
               i2u355_41 0B70                 i2u347_41 0A44                 i2u339_41 0974  
               i2u371_41 1620                 i2u364_40 0C58                 i2u356_40 0B90  
               i2u348_40 0A56                 i2u380_40 17F0                 i2u372_40 1668  
               i2u460_40 0096                 i2u452_40 001A                 i2u364_41 0C54  
               i2u356_41 0B8C                 i2u348_41 0A52                 i2u380_41 17EC  
               i2u372_41 1664                 i2u460_41 0092                 i2u452_41 0016  
               i2u365_40 0C68                 i2u357_40 0BA0                 i2u349_40 0A74  
               i2u381_40 1806                 i2u373_40 167A                 i2u461_40 00AC  
               i2u453_40 0034                 i2u365_41 0C64                 i2u357_41 0B9C  
               i2u349_41 0A70                 i2u381_41 1802                 i2u373_41 1676  
               i2u461_41 00A8                 i2u453_41 0030                 i2u366_40 0C88  
               i2u358_40 0BB2                 i2u390_40 1940                 i2u382_40 1824  
               i2u374_40 168A                 i2u470_40 0138                 i2u462_40 00BA  
               i2u454_40 0042                 i2u366_41 0C84                 i2u358_41 0BAE  
               i2u390_41 193C                 i2u382_41 1820                 i2u374_41 1686  
               i2u470_41 0134                 i2u462_41 00B6                 i2u454_41 003E  
               i2u367_40 0C9A                 i2u359_40 0BC8                 i2u391_40 196E  
               i2u383_40 1844                 i2u375_40 16CA                 i2u471_40 014E  
               i2u463_40 00D6                 i2u455_40 0050                 i2u367_41 0C96  
               i2u359_41 0BC4                 i2u391_41 196A                 i2u383_41 1840  
               i2u375_41 16C6                 i2u471_41 014A                 i2u463_41 00D2  
               i2u455_41 004C                 i2u368_40 0CB6                 i2u384_40 1856  
               i2u376_40 170A                 i2u392_40 23E4                 i2u472_40 015C  
               i2u464_40 00E4                 i2u456_40 005E                 i2u368_41 0CB2  
               i2u384_41 1852                 i2u376_41 1706                 i2u392_41 23E0  
               i2u472_41 0158                 i2u464_41 00E0                 i2u456_41 005A  
               i2u385_40 1884                 i2u377_40 1780                 i2u369_40 1602  
               i2u393_40 2418                 i2u465_40 00F2                 i2u457_40 006C  
               i2u385_41 1880                 i2u377_41 177C                 i2u369_41 15FE  
               i2u465_41 00EE                 i2u457_41 0068                 i2u393_45 240E  
               i2u386_40 189A                 i2u378_40 17A2                 i2u394_40 2446  
               i2u466_40 0100                 i2u458_40 007A                 i2u386_41 1896  
               i2u378_41 179E                 i2u394_41 2442                 i2u466_41 00FC  
               i2u458_41 0076                 i2u387_40 18AE                 i2u379_40 17CC  
               i2u395_40 245A                 i2u467_40 010E                 i2u459_40 0088  
               i2u387_41 18AA                 i2u379_41 17C8                 i2u395_41 2456  
               i2u467_41 010A                 i2u459_41 0084                 i2u388_40 18C8  
               i2u396_40 2482                 i2u468_40 011C                 i2u388_41 18C4  
               i2u396_41 247E                 i2u468_41 0118                 i2u389_40 1910  
               i2u397_40 24A2                 i2u469_40 012A                 i2u389_41 190C  
               i2u397_41 249E                 i2u469_41 0126                 i2u398_40 24B2  
               i2u398_41 24AE                 i2u399_40 1E1E                 i2u399_41 1E1A  
            _get_minutes 3354              _get_seconds 332E            ??_set_minutes 006E  
          ??_set_seconds 006E        i2c_read@registers 0060                _vfpfcnvrt 1FC0  
              lcd_char@x 0062               _ADCON0bits 000F5B                main@i_778 00EB  
              main@i_779 00ED                main@distc 00E7                main@distl 00F3  
              main@distr 00F5      __size_of_ultra_dist 0030              ??_i2c_write 0062  
              lcdprint@d 00CF                lcdprint@i 00C9         __size_of_IRpath1 047C  
               _i2c_init 32DA                 _i2c_read 2156                 __Hrparam 0000  
             vfprintf@ap 00B1                 __Lrparam 0000               vfprintf@fp 00AD  
           __Lsmallconst 0800         __size_of_t1_init 0040         __size_of___fladd 04C0  
       __size_of___fldiv 039A         __size_of_adcNum0 0046         __size_of___awdiv 00C6  
       __size_of___awmod 00B2         __size_of___fltol 0106         __size_of___lodiv 00F2  
       __size_of___lomod 00D2               ?_vfpfcnvrt 009B                 _adc_init 3398  
               _backward 31CC      __end_of_set_minutes 2EF4      __end_of_set_seconds 2E32  
             sprintf@fmt 00B7                 ___xxtofl 1E0C                 _ccp_init 2F46  
       __size_of_forward 002E                 __ptext10 3398                 __ptext11 310A  
               __ptext20 2E32                 __ptext12 116C                 __ptext21 1FC0  
               __ptext13 327C                 __ptext30 2698                 __ptext22 1C06  
               __ptext14 2F92                 __ptext31 2768                 __ptext23 2904  
               __ptext15 2FDE                 __ptext40 22A8                 __ptext32 332E  
               __ptext24 3242                 __ptext16 302A                 __ptext41 1E0C  
               __ptext33 3354                 __ptext25 30C2                 __ptext17 3076  
               __ptext42 23CE                 __ptext34 2156                 __ptext26 2838  
               __ptext18 1982                 __ptext43 15E8                 __ptext35 2B5C  
               __ptext27 33A2                 __ptext19 2EF4                 __ptext44 080A  
               __ptext36 2A96                 __ptext28 25C6                 __ptext45 2CA2  
               __ptext37 32AC                 __ptext29 24D4                 __ptext46 2D30  
               __ptext38 31CC                 __ptext47 3304             _SSP1CON1bits 000F95  
           _SSP1CON2bits 000F96                 _lcd_char 2768                 _lcd_init 3378  
               _distance 00FD         __size_of_sprintf 0052                 _lcdprint 1982  
          __size_of_echo 0166            __size_of_main 04A2            __size_of_utoa 0206  
               _reversel 302A                 _reverser 2FDE                 _rtc_init 2C0E  
               int$flags 0050                 _pwm_init 3190                 _vfprintf 2E32  
              rtc_init@i 0068             _SSP1STATbits 000F94               _INTCONbits 000FF2  
            _TMR1CLKbits 000FD1            forward@gostop 0060              _PWM3CONbits 000FA4  
               intlevel2 0000                sprintf@ap 00BD             ??_ultra_dist 0062  
     i2c_write@registers 0060              _set_minutes 2E94              _set_seconds 2DBE  
            ??_vfpfcnvrt 00A1                 sprintf@f 00BF                 sprintf@s 00B5  
             _SSP1DATPPS 000EB3               _SSP1CLKPPS 000EB2         i2c_write@address 0062  
     __end_of_ultra_dist 32AC            ___fladd@signs 0034             ___fladd@aexp 0035  
           ___fladd@bexp 0036             ?_lcd_command 0001  
